
Drone.elf:     file format elf32-avr

Sections:
Idx Name          Size      VMA       LMA       File off  Algn
  0 .data         00000056  00800100  00005e6a  00005efe  2**0
                  CONTENTS, ALLOC, LOAD, DATA
  1 .text         00005e6a  00000000  00000000  00000094  2**1
                  CONTENTS, ALLOC, LOAD, READONLY, CODE
  2 .bss          0000027c  00800156  00800156  00005f54  2**0
                  ALLOC
  3 .stab         00004e48  00000000  00000000  00005f54  2**2
                  CONTENTS, READONLY, DEBUGGING
  4 .stabstr      0000121d  00000000  00000000  0000ad9c  2**0
                  CONTENTS, READONLY, DEBUGGING
  5 .debug_aranges 000001a0  00000000  00000000  0000bfc0  2**3
                  CONTENTS, READONLY, DEBUGGING
  6 .debug_info   00000f02  00000000  00000000  0000c160  2**0
                  CONTENTS, READONLY, DEBUGGING
  7 .debug_abbrev 000003ff  00000000  00000000  0000d062  2**0
                  CONTENTS, READONLY, DEBUGGING
  8 .debug_line   00000ad3  00000000  00000000  0000d461  2**0
                  CONTENTS, READONLY, DEBUGGING
  9 .debug_frame  000000b4  00000000  00000000  0000df34  2**2
                  CONTENTS, READONLY, DEBUGGING
 10 .debug_str    000001da  00000000  00000000  0000dfe8  2**0
                  CONTENTS, READONLY, DEBUGGING
 11 .debug_loc    000005b5  00000000  00000000  0000e1c2  2**0
                  CONTENTS, READONLY, DEBUGGING
 12 .debug_ranges 00000030  00000000  00000000  0000e777  2**0
                  CONTENTS, READONLY, DEBUGGING

Disassembly of section .text:

00000000 <__vectors>:
       0:	0c 94 9b 00 	jmp	0x136	; 0x136 <__ctors_end>
       4:	0c 94 b8 00 	jmp	0x170	; 0x170 <__bad_interrupt>
       8:	0c 94 b8 00 	jmp	0x170	; 0x170 <__bad_interrupt>
       c:	0c 94 b8 00 	jmp	0x170	; 0x170 <__bad_interrupt>
      10:	0c 94 b8 00 	jmp	0x170	; 0x170 <__bad_interrupt>
      14:	0c 94 b8 00 	jmp	0x170	; 0x170 <__bad_interrupt>
      18:	0c 94 b8 00 	jmp	0x170	; 0x170 <__bad_interrupt>
      1c:	0c 94 fe 25 	jmp	0x4bfc	; 0x4bfc <__vector_7>
      20:	0c 94 b6 24 	jmp	0x496c	; 0x496c <__vector_8>
      24:	0c 94 b8 00 	jmp	0x170	; 0x170 <__bad_interrupt>
      28:	0c 94 b8 00 	jmp	0x170	; 0x170 <__bad_interrupt>
      2c:	0c 94 e3 08 	jmp	0x11c6	; 0x11c6 <__vector_11>
      30:	0c 94 b8 00 	jmp	0x170	; 0x170 <__bad_interrupt>
      34:	0c 94 b8 00 	jmp	0x170	; 0x170 <__bad_interrupt>
      38:	0c 94 b8 00 	jmp	0x170	; 0x170 <__bad_interrupt>
      3c:	0c 94 b8 00 	jmp	0x170	; 0x170 <__bad_interrupt>
      40:	0c 94 4e 0b 	jmp	0x169c	; 0x169c <__vector_16>
      44:	0c 94 b8 00 	jmp	0x170	; 0x170 <__bad_interrupt>
      48:	0c 94 fb 0d 	jmp	0x1bf6	; 0x1bf6 <__vector_18>
      4c:	0c 94 b8 00 	jmp	0x170	; 0x170 <__bad_interrupt>
      50:	0c 94 a4 0e 	jmp	0x1d48	; 0x1d48 <__vector_20>
      54:	0c 94 31 06 	jmp	0xc62	; 0xc62 <__vector_21>
      58:	0c 94 b8 00 	jmp	0x170	; 0x170 <__bad_interrupt>
      5c:	0c 94 b8 00 	jmp	0x170	; 0x170 <__bad_interrupt>
      60:	0c 94 b8 00 	jmp	0x170	; 0x170 <__bad_interrupt>
      64:	0c 94 b8 00 	jmp	0x170	; 0x170 <__bad_interrupt>
      68:	08 4a       	sbci	r16, 0xA8	; 168
      6a:	d7 3b       	cpi	r29, 0xB7	; 183
      6c:	3b ce       	rjmp	.-906    	; 0xfffffce4 <__eeprom_end+0xff7efce4>
      6e:	01 6e       	ori	r16, 0xE1	; 225
      70:	84 bc       	out	0x24, r8	; 36
      72:	bf fd       	.word	0xfdbf	; ????
      74:	c1 2f       	mov	r28, r17
      76:	3d 6c       	ori	r19, 0xCD	; 205
      78:	74 31       	cpi	r23, 0x14	; 20
      7a:	9a bd       	out	0x2a, r25	; 42
      7c:	56 83       	std	Z+6, r21	; 0x06
      7e:	3d da       	rcall	.-2950   	; 0xfffff4fa <__eeprom_end+0xff7ef4fa>
      80:	3d 00       	.word	0x003d	; ????
      82:	c7 7f       	andi	r28, 0xF7	; 247
      84:	11 be       	out	0x31, r1	; 49
      86:	d9 e4       	ldi	r29, 0x49	; 73
      88:	bb 4c       	sbci	r27, 0xCB	; 203
      8a:	3e 91       	ld	r19, -X
      8c:	6b aa       	sts	0x9b, r22
      8e:	aa be       	out	0x3a, r10	; 58
      90:	00 00       	nop
      92:	00 80       	ld	r0, Z
      94:	3f 05       	cpc	r19, r15
      96:	a8 4c       	sbci	r26, 0xC8	; 200
      98:	cd b2       	in	r12, 0x1d	; 29
      9a:	d4 4e       	sbci	r29, 0xE4	; 228
      9c:	b9 38       	cpi	r27, 0x89	; 137
      9e:	36 a9       	sts	0x46, r19
      a0:	02 0c       	add	r0, r2
      a2:	50 b9       	out	0x00, r21	; 0
      a4:	91 86       	std	Z+9, r9	; 0x09
      a6:	88 08       	sbc	r8, r8
      a8:	3c a6       	lds	r19, 0xbc
      aa:	aa aa       	sts	0x9a, r26
      ac:	2a be       	out	0x3a, r2	; 58
      ae:	00 00       	nop
      b0:	00 80       	ld	r0, Z
      b2:	3f 07       	cpc	r19, r31
      b4:	63 42       	sbci	r22, 0x23	; 35
      b6:	36 b7       	in	r19, 0x36	; 54
      b8:	9b d8       	rcall	.-3786   	; 0xfffff1f0 <__eeprom_end+0xff7ef1f0>
      ba:	a7 1a       	sub	r10, r23
      bc:	39 68       	ori	r19, 0x89	; 137
      be:	56 18       	sub	r5, r6
      c0:	ae ba       	out	0x1e, r10	; 30
      c2:	ab 55       	subi	r26, 0x5B	; 91
      c4:	8c 1d       	adc	r24, r12
      c6:	3c b7       	in	r19, 0x3c	; 60
      c8:	cc 57       	subi	r28, 0x7C	; 124
      ca:	63 bd       	out	0x23, r22	; 35
      cc:	6d ed       	ldi	r22, 0xDD	; 221
      ce:	fd 75       	andi	r31, 0x5D	; 93
      d0:	3e f6       	brtc	.-114    	; 0x60 <__SREG__+0x21>
      d2:	17 72       	andi	r17, 0x27	; 39
      d4:	31 bf       	out	0x31, r19	; 49
      d6:	00 00       	nop
      d8:	00 80       	ld	r0, Z
      da:	3f 08       	sbc	r3, r15
      dc:	00 00       	nop
      de:	00 be       	out	0x30, r0	; 48
      e0:	92 24       	eor	r9, r2
      e2:	49 12       	cpse	r4, r25
      e4:	3e ab       	sts	0x5e, r19
      e6:	aa aa       	sts	0x9a, r26
      e8:	2a be       	out	0x3a, r2	; 58
      ea:	cd cc       	rjmp	.-1638   	; 0xfffffa86 <__eeprom_end+0xff7efa86>
      ec:	cc 4c       	sbci	r28, 0xCC	; 204
      ee:	3e 00       	.word	0x003e	; ????
      f0:	00 00       	nop
      f2:	80 be       	out	0x30, r8	; 48
      f4:	ab aa       	sts	0x9b, r26
      f6:	aa aa       	sts	0x9a, r26
      f8:	3e 00       	.word	0x003e	; ????
      fa:	00 00       	nop
      fc:	00 bf       	out	0x30, r16	; 48
      fe:	00 00       	nop
     100:	00 80       	ld	r0, Z
     102:	3f 00       	.word	0x003f	; ????
     104:	00 00       	nop
     106:	00 00       	nop
     108:	08 41       	sbci	r16, 0x18	; 24
     10a:	78 d3       	rcall	.+1776   	; 0x7fc <CmpBMP085GetAltitude+0x3a6>
     10c:	bb 43       	sbci	r27, 0x3B	; 59
     10e:	87 d1       	rcall	.+782    	; 0x41e <CmpBMP085Init+0xe>
     110:	13 3d       	cpi	r17, 0xD3	; 211
     112:	19 0e       	add	r1, r25
     114:	3c c3       	rjmp	.+1656   	; 0x78e <CmpBMP085GetAltitude+0x338>
     116:	bd 42       	sbci	r27, 0x2D	; 45
     118:	82 ad       	sts	0x62, r24
     11a:	2b 3e       	cpi	r18, 0xEB	; 235
     11c:	68 ec       	ldi	r22, 0xC8	; 200
     11e:	82 76       	andi	r24, 0x62	; 98
     120:	be d9       	rcall	.-3204   	; 0xfffff49e <__eeprom_end+0xff7ef49e>
     122:	8f e1       	ldi	r24, 0x1F	; 31
     124:	a9 3e       	cpi	r26, 0xE9	; 233
     126:	4c 80       	ldd	r4, Y+4	; 0x04
     128:	ef ff       	.word	0xffef	; ????
     12a:	be 01       	movw	r22, r28
     12c:	c4 ff       	sbrs	r28, 4
     12e:	7f 3f       	cpi	r23, 0xFF	; 255
     130:	00 00       	nop
     132:	00 00       	nop
	...

00000136 <__ctors_end>:
     136:	11 24       	eor	r1, r1
     138:	1f be       	out	0x3f, r1	; 63
     13a:	cf ef       	ldi	r28, 0xFF	; 255
     13c:	d8 e0       	ldi	r29, 0x08	; 8
     13e:	de bf       	out	0x3e, r29	; 62
     140:	cd bf       	out	0x3d, r28	; 61

00000142 <__do_copy_data>:
     142:	11 e0       	ldi	r17, 0x01	; 1
     144:	a0 e0       	ldi	r26, 0x00	; 0
     146:	b1 e0       	ldi	r27, 0x01	; 1
     148:	ea e6       	ldi	r30, 0x6A	; 106
     14a:	fe e5       	ldi	r31, 0x5E	; 94
     14c:	02 c0       	rjmp	.+4      	; 0x152 <__do_copy_data+0x10>
     14e:	05 90       	lpm	r0, Z+
     150:	0d 92       	st	X+, r0
     152:	a6 35       	cpi	r26, 0x56	; 86
     154:	b1 07       	cpc	r27, r17
     156:	d9 f7       	brne	.-10     	; 0x14e <__do_copy_data+0xc>

00000158 <__do_clear_bss>:
     158:	13 e0       	ldi	r17, 0x03	; 3
     15a:	a6 e5       	ldi	r26, 0x56	; 86
     15c:	b1 e0       	ldi	r27, 0x01	; 1
     15e:	01 c0       	rjmp	.+2      	; 0x162 <.do_clear_bss_start>

00000160 <.do_clear_bss_loop>:
     160:	1d 92       	st	X+, r1

00000162 <.do_clear_bss_start>:
     162:	a2 3d       	cpi	r26, 0xD2	; 210
     164:	b1 07       	cpc	r27, r17
     166:	e1 f7       	brne	.-8      	; 0x160 <.do_clear_bss_loop>
     168:	0e 94 75 26 	call	0x4cea	; 0x4cea <main>
     16c:	0c 94 33 2f 	jmp	0x5e66	; 0x5e66 <_exit>

00000170 <__bad_interrupt>:
     170:	0c 94 00 00 	jmp	0	; 0x0 <__vectors>

00000174 <CmpBMA180Init>:
     174:	80 e4       	ldi	r24, 0x40	; 64
     176:	60 e0       	ldi	r22, 0x00	; 0
     178:	0e 94 e5 0c 	call	0x19ca	; 0x19ca <DrvTwiReadReg>
     17c:	83 30       	cpi	r24, 0x03	; 3
     17e:	11 f0       	breq	.+4      	; 0x184 <CmpBMA180Init+0x10>
     180:	80 e0       	ldi	r24, 0x00	; 0
     182:	08 95       	ret
     184:	88 ec       	ldi	r24, 0xC8	; 200
     186:	90 e0       	ldi	r25, 0x00	; 0
     188:	0e 94 90 0a 	call	0x1520	; 0x1520 <DrvTimerDelayUs>
     18c:	80 e4       	ldi	r24, 0x40	; 64
     18e:	6d e0       	ldi	r22, 0x0D	; 13
     190:	40 e1       	ldi	r20, 0x10	; 16
     192:	0e 94 9a 0c 	call	0x1934	; 0x1934 <DrvTwiWriteReg>
     196:	88 ec       	ldi	r24, 0xC8	; 200
     198:	90 e0       	ldi	r25, 0x00	; 0
     19a:	0e 94 90 0a 	call	0x1520	; 0x1520 <DrvTimerDelayUs>
     19e:	80 e4       	ldi	r24, 0x40	; 64
     1a0:	60 e2       	ldi	r22, 0x20	; 32
     1a2:	0e 94 e5 0c 	call	0x19ca	; 0x19ca <DrvTwiReadReg>
     1a6:	48 2f       	mov	r20, r24
     1a8:	4f 70       	andi	r20, 0x0F	; 15
     1aa:	40 61       	ori	r20, 0x10	; 16
     1ac:	80 e4       	ldi	r24, 0x40	; 64
     1ae:	60 e2       	ldi	r22, 0x20	; 32
     1b0:	0e 94 9a 0c 	call	0x1934	; 0x1934 <DrvTwiWriteReg>
     1b4:	88 ec       	ldi	r24, 0xC8	; 200
     1b6:	90 e0       	ldi	r25, 0x00	; 0
     1b8:	0e 94 90 0a 	call	0x1520	; 0x1520 <DrvTimerDelayUs>
     1bc:	80 e4       	ldi	r24, 0x40	; 64
     1be:	60 e3       	ldi	r22, 0x30	; 48
     1c0:	0e 94 e5 0c 	call	0x19ca	; 0x19ca <DrvTwiReadReg>
     1c4:	48 2f       	mov	r20, r24
     1c6:	4c 7f       	andi	r20, 0xFC	; 252
     1c8:	80 e4       	ldi	r24, 0x40	; 64
     1ca:	60 e3       	ldi	r22, 0x30	; 48
     1cc:	0e 94 9a 0c 	call	0x1934	; 0x1934 <DrvTwiWriteReg>
     1d0:	88 ec       	ldi	r24, 0xC8	; 200
     1d2:	90 e0       	ldi	r25, 0x00	; 0
     1d4:	0e 94 90 0a 	call	0x1520	; 0x1520 <DrvTimerDelayUs>
     1d8:	80 e4       	ldi	r24, 0x40	; 64
     1da:	65 e3       	ldi	r22, 0x35	; 53
     1dc:	0e 94 e5 0c 	call	0x19ca	; 0x19ca <DrvTwiReadReg>
     1e0:	48 2f       	mov	r20, r24
     1e2:	41 7f       	andi	r20, 0xF1	; 241
     1e4:	4a 60       	ori	r20, 0x0A	; 10
     1e6:	80 e4       	ldi	r24, 0x40	; 64
     1e8:	65 e3       	ldi	r22, 0x35	; 53
     1ea:	0e 94 9a 0c 	call	0x1934	; 0x1934 <DrvTwiWriteReg>
     1ee:	88 ec       	ldi	r24, 0xC8	; 200
     1f0:	90 e0       	ldi	r25, 0x00	; 0
     1f2:	0e 94 90 0a 	call	0x1520	; 0x1520 <DrvTimerDelayUs>
     1f6:	0e 94 67 06 	call	0xcce	; 0xcce <DrvEepromIsConfigured>
     1fa:	88 23       	and	r24, r24
     1fc:	89 f4       	brne	.+34     	; 0x220 <CmpBMA180Init+0xac>
     1fe:	84 e6       	ldi	r24, 0x64	; 100
     200:	80 93 56 01 	sts	0x0156, r24
     204:	10 92 58 01 	sts	0x0158, r1
     208:	10 92 57 01 	sts	0x0157, r1
     20c:	10 92 5a 01 	sts	0x015A, r1
     210:	10 92 59 01 	sts	0x0159, r1
     214:	10 92 5c 01 	sts	0x015C, r1
     218:	10 92 5b 01 	sts	0x015B, r1
     21c:	81 e0       	ldi	r24, 0x01	; 1
     21e:	08 95       	ret
     220:	10 92 56 01 	sts	0x0156, r1
     224:	87 e5       	ldi	r24, 0x57	; 87
     226:	91 e0       	ldi	r25, 0x01	; 1
     228:	0e 94 6a 06 	call	0xcd4	; 0xcd4 <DrvEepromReadAcc>
     22c:	81 e0       	ldi	r24, 0x01	; 1
     22e:	08 95       	ret

00000230 <CmpBMA180IsCalibrate>:
     230:	80 91 56 01 	lds	r24, 0x0156
     234:	88 23       	and	r24, r24
     236:	11 f0       	breq	.+4      	; 0x23c <CmpBMA180IsCalibrate+0xc>
     238:	80 e0       	ldi	r24, 0x00	; 0
     23a:	08 95       	ret
     23c:	87 e5       	ldi	r24, 0x57	; 87
     23e:	91 e0       	ldi	r25, 0x01	; 1
     240:	0e 94 a7 06 	call	0xd4e	; 0xd4e <DrvEepromWriteAcc>
     244:	81 e0       	ldi	r24, 0x01	; 1
     246:	08 95       	ret

00000248 <CmpBMA180GetAcceleration>:
     248:	0f 93       	push	r16
     24a:	1f 93       	push	r17
     24c:	cf 93       	push	r28
     24e:	df 93       	push	r29
     250:	00 d0       	rcall	.+0      	; 0x252 <CmpBMA180GetAcceleration+0xa>
     252:	00 d0       	rcall	.+0      	; 0x254 <CmpBMA180GetAcceleration+0xc>
     254:	00 d0       	rcall	.+0      	; 0x256 <CmpBMA180GetAcceleration+0xe>
     256:	cd b7       	in	r28, 0x3d	; 61
     258:	de b7       	in	r29, 0x3e	; 62
     25a:	8c 01       	movw	r16, r24
     25c:	ae 01       	movw	r20, r28
     25e:	4f 5f       	subi	r20, 0xFF	; 255
     260:	5f 4f       	sbci	r21, 0xFF	; 255
     262:	86 e0       	ldi	r24, 0x06	; 6
     264:	da 01       	movw	r26, r20
     266:	1d 92       	st	X+, r1
     268:	8a 95       	dec	r24
     26a:	e9 f7       	brne	.-6      	; 0x266 <CmpBMA180GetAcceleration+0x1e>
     26c:	80 e4       	ldi	r24, 0x40	; 64
     26e:	62 e0       	ldi	r22, 0x02	; 2
     270:	26 e0       	ldi	r18, 0x06	; 6
     272:	0e 94 5c 0c 	call	0x18b8	; 0x18b8 <DrvTwiReadRegBuf>
     276:	86 30       	cpi	r24, 0x06	; 6
     278:	61 f0       	breq	.+24     	; 0x292 <CmpBMA180GetAcceleration+0x4a>
     27a:	80 e0       	ldi	r24, 0x00	; 0
     27c:	26 96       	adiw	r28, 0x06	; 6
     27e:	0f b6       	in	r0, 0x3f	; 63
     280:	f8 94       	cli
     282:	de bf       	out	0x3e, r29	; 62
     284:	0f be       	out	0x3f, r0	; 63
     286:	cd bf       	out	0x3d, r28	; 61
     288:	df 91       	pop	r29
     28a:	cf 91       	pop	r28
     28c:	1f 91       	pop	r17
     28e:	0f 91       	pop	r16
     290:	08 95       	ret
     292:	9a 81       	ldd	r25, Y+2	; 0x02
     294:	80 e0       	ldi	r24, 0x00	; 0
     296:	49 81       	ldd	r20, Y+1	; 0x01
     298:	50 e0       	ldi	r21, 0x00	; 0
     29a:	48 2b       	or	r20, r24
     29c:	59 2b       	or	r21, r25
     29e:	57 fd       	sbrc	r21, 7
     2a0:	81 c0       	rjmp	.+258    	; 0x3a4 <CmpBMA180GetAcceleration+0x15c>
     2a2:	55 95       	asr	r21
     2a4:	47 95       	ror	r20
     2a6:	55 95       	asr	r21
     2a8:	47 95       	ror	r20
     2aa:	55 95       	asr	r21
     2ac:	47 95       	ror	r20
     2ae:	55 95       	asr	r21
     2b0:	47 95       	ror	r20
     2b2:	f8 01       	movw	r30, r16
     2b4:	51 83       	std	Z+1, r21	; 0x01
     2b6:	40 83       	st	Z, r20
     2b8:	3c 81       	ldd	r19, Y+4	; 0x04
     2ba:	20 e0       	ldi	r18, 0x00	; 0
     2bc:	8b 81       	ldd	r24, Y+3	; 0x03
     2be:	90 e0       	ldi	r25, 0x00	; 0
     2c0:	82 2b       	or	r24, r18
     2c2:	93 2b       	or	r25, r19
     2c4:	97 fd       	sbrc	r25, 7
     2c6:	6c c0       	rjmp	.+216    	; 0x3a0 <CmpBMA180GetAcceleration+0x158>
     2c8:	fc 01       	movw	r30, r24
     2ca:	f5 95       	asr	r31
     2cc:	e7 95       	ror	r30
     2ce:	f5 95       	asr	r31
     2d0:	e7 95       	ror	r30
     2d2:	f5 95       	asr	r31
     2d4:	e7 95       	ror	r30
     2d6:	f5 95       	asr	r31
     2d8:	e7 95       	ror	r30
     2da:	d8 01       	movw	r26, r16
     2dc:	13 96       	adiw	r26, 0x03	; 3
     2de:	fc 93       	st	X, r31
     2e0:	ee 93       	st	-X, r30
     2e2:	12 97       	sbiw	r26, 0x02	; 2
     2e4:	3e 81       	ldd	r19, Y+6	; 0x06
     2e6:	20 e0       	ldi	r18, 0x00	; 0
     2e8:	8d 81       	ldd	r24, Y+5	; 0x05
     2ea:	90 e0       	ldi	r25, 0x00	; 0
     2ec:	82 2b       	or	r24, r18
     2ee:	93 2b       	or	r25, r19
     2f0:	97 fd       	sbrc	r25, 7
     2f2:	54 c0       	rjmp	.+168    	; 0x39c <CmpBMA180GetAcceleration+0x154>
     2f4:	bc 01       	movw	r22, r24
     2f6:	75 95       	asr	r23
     2f8:	67 95       	ror	r22
     2fa:	75 95       	asr	r23
     2fc:	67 95       	ror	r22
     2fe:	75 95       	asr	r23
     300:	67 95       	ror	r22
     302:	75 95       	asr	r23
     304:	67 95       	ror	r22
     306:	d8 01       	movw	r26, r16
     308:	15 96       	adiw	r26, 0x05	; 5
     30a:	7c 93       	st	X, r23
     30c:	6e 93       	st	-X, r22
     30e:	14 97       	sbiw	r26, 0x04	; 4
     310:	20 91 56 01 	lds	r18, 0x0156
     314:	80 91 57 01 	lds	r24, 0x0157
     318:	90 91 58 01 	lds	r25, 0x0158
     31c:	22 23       	and	r18, r18
     31e:	11 f1       	breq	.+68     	; 0x364 <CmpBMA180GetAcceleration+0x11c>
     320:	21 30       	cpi	r18, 0x01	; 1
     322:	09 f4       	brne	.+2      	; 0x326 <CmpBMA180GetAcceleration+0xde>
     324:	42 c0       	rjmp	.+132    	; 0x3aa <CmpBMA180GetAcceleration+0x162>
     326:	84 0f       	add	r24, r20
     328:	95 1f       	adc	r25, r21
     32a:	90 93 58 01 	sts	0x0158, r25
     32e:	80 93 57 01 	sts	0x0157, r24
     332:	80 91 59 01 	lds	r24, 0x0159
     336:	90 91 5a 01 	lds	r25, 0x015A
     33a:	8e 0f       	add	r24, r30
     33c:	9f 1f       	adc	r25, r31
     33e:	90 93 5a 01 	sts	0x015A, r25
     342:	80 93 59 01 	sts	0x0159, r24
     346:	80 91 5b 01 	lds	r24, 0x015B
     34a:	90 91 5c 01 	lds	r25, 0x015C
     34e:	86 0f       	add	r24, r22
     350:	97 1f       	adc	r25, r23
     352:	90 93 5c 01 	sts	0x015C, r25
     356:	80 93 5b 01 	sts	0x015B, r24
     35a:	21 50       	subi	r18, 0x01	; 1
     35c:	20 93 56 01 	sts	0x0156, r18
     360:	81 e0       	ldi	r24, 0x01	; 1
     362:	8c cf       	rjmp	.-232    	; 0x27c <CmpBMA180GetAcceleration+0x34>
     364:	48 1b       	sub	r20, r24
     366:	59 0b       	sbc	r21, r25
     368:	d8 01       	movw	r26, r16
     36a:	11 96       	adiw	r26, 0x01	; 1
     36c:	5c 93       	st	X, r21
     36e:	4e 93       	st	-X, r20
     370:	80 91 59 01 	lds	r24, 0x0159
     374:	90 91 5a 01 	lds	r25, 0x015A
     378:	e8 1b       	sub	r30, r24
     37a:	f9 0b       	sbc	r31, r25
     37c:	13 96       	adiw	r26, 0x03	; 3
     37e:	fc 93       	st	X, r31
     380:	ee 93       	st	-X, r30
     382:	12 97       	sbiw	r26, 0x02	; 2
     384:	80 91 5b 01 	lds	r24, 0x015B
     388:	90 91 5c 01 	lds	r25, 0x015C
     38c:	68 1b       	sub	r22, r24
     38e:	79 0b       	sbc	r23, r25
     390:	15 96       	adiw	r26, 0x05	; 5
     392:	7c 93       	st	X, r23
     394:	6e 93       	st	-X, r22
     396:	14 97       	sbiw	r26, 0x04	; 4
     398:	81 e0       	ldi	r24, 0x01	; 1
     39a:	70 cf       	rjmp	.-288    	; 0x27c <CmpBMA180GetAcceleration+0x34>
     39c:	0f 96       	adiw	r24, 0x0f	; 15
     39e:	aa cf       	rjmp	.-172    	; 0x2f4 <CmpBMA180GetAcceleration+0xac>
     3a0:	0f 96       	adiw	r24, 0x0f	; 15
     3a2:	92 cf       	rjmp	.-220    	; 0x2c8 <CmpBMA180GetAcceleration+0x80>
     3a4:	41 5f       	subi	r20, 0xF1	; 241
     3a6:	5f 4f       	sbci	r21, 0xFF	; 255
     3a8:	7c cf       	rjmp	.-264    	; 0x2a2 <CmpBMA180GetAcceleration+0x5a>
     3aa:	e3 e6       	ldi	r30, 0x63	; 99
     3ac:	f0 e0       	ldi	r31, 0x00	; 0
     3ae:	bf 01       	movw	r22, r30
     3b0:	0e 94 bf 2b 	call	0x577e	; 0x577e <__divmodhi4>
     3b4:	70 93 58 01 	sts	0x0158, r23
     3b8:	60 93 57 01 	sts	0x0157, r22
     3bc:	80 91 59 01 	lds	r24, 0x0159
     3c0:	90 91 5a 01 	lds	r25, 0x015A
     3c4:	bf 01       	movw	r22, r30
     3c6:	0e 94 bf 2b 	call	0x577e	; 0x577e <__divmodhi4>
     3ca:	70 93 5a 01 	sts	0x015A, r23
     3ce:	60 93 59 01 	sts	0x0159, r22
     3d2:	80 91 5b 01 	lds	r24, 0x015B
     3d6:	90 91 5c 01 	lds	r25, 0x015C
     3da:	bf 01       	movw	r22, r30
     3dc:	0e 94 bf 2b 	call	0x577e	; 0x577e <__divmodhi4>
     3e0:	60 50       	subi	r22, 0x00	; 0
     3e2:	71 40       	sbci	r23, 0x01	; 1
     3e4:	70 93 5c 01 	sts	0x015C, r23
     3e8:	60 93 5b 01 	sts	0x015B, r22
     3ec:	b6 cf       	rjmp	.-148    	; 0x35a <CmpBMA180GetAcceleration+0x112>

000003ee <CmpBMP085CallbackUT>:
     3ee:	10 92 00 01 	sts	0x0100, r1
     3f2:	81 e0       	ldi	r24, 0x01	; 1
     3f4:	6f e0       	ldi	r22, 0x0F	; 15
     3f6:	70 e0       	ldi	r23, 0x00	; 0
     3f8:	40 e0       	ldi	r20, 0x00	; 0
     3fa:	22 e0       	ldi	r18, 0x02	; 2
     3fc:	32 e0       	ldi	r19, 0x02	; 2
     3fe:	0e 94 28 24 	call	0x4850	; 0x4850 <SrvTimerAddTimer>
     402:	08 95       	ret

00000404 <CmpBMP085CallbackUP>:
     404:	81 e0       	ldi	r24, 0x01	; 1
     406:	80 93 00 01 	sts	0x0100, r24
     40a:	0e 94 4c 24 	call	0x4898	; 0x4898 <SrvTimerStopTimer>
     40e:	08 95       	ret

00000410 <CmpBMP085Init>:
     410:	10 92 5d 01 	sts	0x015D, r1
     414:	10 92 5e 01 	sts	0x015E, r1
     418:	10 92 5f 01 	sts	0x015F, r1
     41c:	10 92 60 01 	sts	0x0160, r1
     420:	87 e7       	ldi	r24, 0x77	; 119
     422:	6a ea       	ldi	r22, 0xAA	; 170
     424:	4b e9       	ldi	r20, 0x9B	; 155
     426:	52 e0       	ldi	r21, 0x02	; 2
     428:	26 e1       	ldi	r18, 0x16	; 22
     42a:	0e 94 5c 0c 	call	0x18b8	; 0x18b8 <DrvTwiReadRegBuf>
     42e:	8b e9       	ldi	r24, 0x9B	; 155
     430:	92 e0       	ldi	r25, 0x02	; 2
     432:	fc 01       	movw	r30, r24
     434:	31 96       	adiw	r30, 0x01	; 1
     436:	dc 01       	movw	r26, r24
     438:	2c 91       	ld	r18, X
     43a:	30 81       	ld	r19, Z
     43c:	3d 93       	st	X+, r19
     43e:	20 83       	st	Z, r18
     440:	31 97       	sbiw	r30, 0x01	; 1
     442:	ae 17       	cp	r26, r30
     444:	bf 07       	cpc	r27, r31
     446:	c0 f3       	brcs	.-16     	; 0x438 <CmpBMP085Init+0x28>
     448:	02 96       	adiw	r24, 0x02	; 2
     44a:	22 e0       	ldi	r18, 0x02	; 2
     44c:	81 3b       	cpi	r24, 0xB1	; 177
     44e:	92 07       	cpc	r25, r18
     450:	81 f7       	brne	.-32     	; 0x432 <CmpBMP085Init+0x22>
     452:	81 e0       	ldi	r24, 0x01	; 1
     454:	08 95       	ret

00000456 <CmpBMP085GetAltitude>:
     456:	4f 92       	push	r4
     458:	5f 92       	push	r5
     45a:	6f 92       	push	r6
     45c:	7f 92       	push	r7
     45e:	8f 92       	push	r8
     460:	9f 92       	push	r9
     462:	af 92       	push	r10
     464:	bf 92       	push	r11
     466:	cf 92       	push	r12
     468:	df 92       	push	r13
     46a:	ef 92       	push	r14
     46c:	ff 92       	push	r15
     46e:	0f 93       	push	r16
     470:	1f 93       	push	r17
     472:	cf 93       	push	r28
     474:	df 93       	push	r29
     476:	cd b7       	in	r28, 0x3d	; 61
     478:	de b7       	in	r29, 0x3e	; 62
     47a:	2b 97       	sbiw	r28, 0x0b	; 11
     47c:	0f b6       	in	r0, 0x3f	; 63
     47e:	f8 94       	cli
     480:	de bf       	out	0x3e, r29	; 62
     482:	0f be       	out	0x3f, r0	; 63
     484:	cd bf       	out	0x3d, r28	; 61
     486:	80 91 00 01 	lds	r24, 0x0100
     48a:	88 23       	and	r24, r24
     48c:	11 f1       	breq	.+68     	; 0x4d2 <CmpBMP085GetAltitude+0x7c>
     48e:	81 30       	cpi	r24, 0x01	; 1
     490:	09 f4       	brne	.+2      	; 0x494 <CmpBMP085GetAltitude+0x3e>
     492:	40 c0       	rjmp	.+128    	; 0x514 <CmpBMP085GetAltitude+0xbe>
     494:	60 91 61 01 	lds	r22, 0x0161
     498:	70 91 62 01 	lds	r23, 0x0162
     49c:	80 91 63 01 	lds	r24, 0x0163
     4a0:	90 91 64 01 	lds	r25, 0x0164
     4a4:	2b 96       	adiw	r28, 0x0b	; 11
     4a6:	0f b6       	in	r0, 0x3f	; 63
     4a8:	f8 94       	cli
     4aa:	de bf       	out	0x3e, r29	; 62
     4ac:	0f be       	out	0x3f, r0	; 63
     4ae:	cd bf       	out	0x3d, r28	; 61
     4b0:	df 91       	pop	r29
     4b2:	cf 91       	pop	r28
     4b4:	1f 91       	pop	r17
     4b6:	0f 91       	pop	r16
     4b8:	ff 90       	pop	r15
     4ba:	ef 90       	pop	r14
     4bc:	df 90       	pop	r13
     4be:	cf 90       	pop	r12
     4c0:	bf 90       	pop	r11
     4c2:	af 90       	pop	r10
     4c4:	9f 90       	pop	r9
     4c6:	8f 90       	pop	r8
     4c8:	7f 90       	pop	r7
     4ca:	6f 90       	pop	r6
     4cc:	5f 90       	pop	r5
     4ce:	4f 90       	pop	r4
     4d0:	08 95       	ret
     4d2:	19 82       	std	Y+1, r1	; 0x01
     4d4:	1a 82       	std	Y+2, r1	; 0x02
     4d6:	87 e7       	ldi	r24, 0x77	; 119
     4d8:	66 ef       	ldi	r22, 0xF6	; 246
     4da:	ae 01       	movw	r20, r28
     4dc:	4f 5f       	subi	r20, 0xFF	; 255
     4de:	5f 4f       	sbci	r21, 0xFF	; 255
     4e0:	22 e0       	ldi	r18, 0x02	; 2
     4e2:	0e 94 5c 0c 	call	0x18b8	; 0x18b8 <DrvTwiReadRegBuf>
     4e6:	89 81       	ldd	r24, Y+1	; 0x01
     4e8:	80 93 b2 02 	sts	0x02B2, r24
     4ec:	8a 81       	ldd	r24, Y+2	; 0x02
     4ee:	80 93 b1 02 	sts	0x02B1, r24
     4f2:	87 e7       	ldi	r24, 0x77	; 119
     4f4:	64 ef       	ldi	r22, 0xF4	; 244
     4f6:	44 eb       	ldi	r20, 0xB4	; 180
     4f8:	0e 94 9a 0c 	call	0x1934	; 0x1934 <DrvTwiWriteReg>
     4fc:	83 e0       	ldi	r24, 0x03	; 3
     4fe:	80 93 00 01 	sts	0x0100, r24
     502:	60 91 61 01 	lds	r22, 0x0161
     506:	70 91 62 01 	lds	r23, 0x0162
     50a:	80 91 63 01 	lds	r24, 0x0163
     50e:	90 91 64 01 	lds	r25, 0x0164
     512:	c8 cf       	rjmp	.-112    	; 0x4a4 <CmpBMP085GetAltitude+0x4e>
     514:	19 82       	std	Y+1, r1	; 0x01
     516:	1a 82       	std	Y+2, r1	; 0x02
     518:	1b 82       	std	Y+3, r1	; 0x03
     51a:	87 e7       	ldi	r24, 0x77	; 119
     51c:	66 ef       	ldi	r22, 0xF6	; 246
     51e:	ae 01       	movw	r20, r28
     520:	4f 5f       	subi	r20, 0xFF	; 255
     522:	5f 4f       	sbci	r21, 0xFF	; 255
     524:	23 e0       	ldi	r18, 0x03	; 3
     526:	0e 94 5c 0c 	call	0x18b8	; 0x18b8 <DrvTwiReadRegBuf>
     52a:	89 81       	ldd	r24, Y+1	; 0x01
     52c:	80 93 b5 02 	sts	0x02B5, r24
     530:	8a 81       	ldd	r24, Y+2	; 0x02
     532:	80 93 b4 02 	sts	0x02B4, r24
     536:	8b 81       	ldd	r24, Y+3	; 0x03
     538:	80 93 b3 02 	sts	0x02B3, r24
     53c:	60 91 b1 02 	lds	r22, 0x02B1
     540:	70 91 b2 02 	lds	r23, 0x02B2
     544:	80 e0       	ldi	r24, 0x00	; 0
     546:	90 e0       	ldi	r25, 0x00	; 0
     548:	00 91 a5 02 	lds	r16, 0x02A5
     54c:	10 91 a6 02 	lds	r17, 0x02A6
     550:	20 e0       	ldi	r18, 0x00	; 0
     552:	30 e0       	ldi	r19, 0x00	; 0
     554:	60 1b       	sub	r22, r16
     556:	71 0b       	sbc	r23, r17
     558:	82 0b       	sbc	r24, r18
     55a:	93 0b       	sbc	r25, r19
     55c:	20 91 a3 02 	lds	r18, 0x02A3
     560:	30 91 a4 02 	lds	r19, 0x02A4
     564:	40 e0       	ldi	r20, 0x00	; 0
     566:	50 e0       	ldi	r21, 0x00	; 0
     568:	0e 94 a0 2b 	call	0x5740	; 0x5740 <__mulsi3>
     56c:	6b 01       	movw	r12, r22
     56e:	7c 01       	movw	r14, r24
     570:	ef e0       	ldi	r30, 0x0F	; 15
     572:	f5 94       	asr	r15
     574:	e7 94       	ror	r14
     576:	d7 94       	ror	r13
     578:	c7 94       	ror	r12
     57a:	ea 95       	dec	r30
     57c:	d1 f7       	brne	.-12     	; 0x572 <CmpBMP085GetAltitude+0x11c>
     57e:	60 91 ad 02 	lds	r22, 0x02AD
     582:	70 91 ae 02 	lds	r23, 0x02AE
     586:	88 27       	eor	r24, r24
     588:	77 fd       	sbrc	r23, 7
     58a:	80 95       	com	r24
     58c:	98 2f       	mov	r25, r24
     58e:	fb e0       	ldi	r31, 0x0B	; 11
     590:	66 0f       	add	r22, r22
     592:	77 1f       	adc	r23, r23
     594:	88 1f       	adc	r24, r24
     596:	99 1f       	adc	r25, r25
     598:	fa 95       	dec	r31
     59a:	d1 f7       	brne	.-12     	; 0x590 <CmpBMP085GetAltitude+0x13a>
     59c:	20 91 af 02 	lds	r18, 0x02AF
     5a0:	30 91 b0 02 	lds	r19, 0x02B0
     5a4:	44 27       	eor	r20, r20
     5a6:	37 fd       	sbrc	r19, 7
     5a8:	40 95       	com	r20
     5aa:	54 2f       	mov	r21, r20
     5ac:	2c 0d       	add	r18, r12
     5ae:	3d 1d       	adc	r19, r13
     5b0:	4e 1d       	adc	r20, r14
     5b2:	5f 1d       	adc	r21, r15
     5b4:	0e 94 f4 2b 	call	0x57e8	; 0x57e8 <__divmodsi4>
     5b8:	89 01       	movw	r16, r18
     5ba:	9a 01       	movw	r18, r20
     5bc:	0c 0d       	add	r16, r12
     5be:	1d 1d       	adc	r17, r13
     5c0:	2e 1d       	adc	r18, r14
     5c2:	3f 1d       	adc	r19, r15
     5c4:	d9 01       	movw	r26, r18
     5c6:	c8 01       	movw	r24, r16
     5c8:	08 96       	adiw	r24, 0x08	; 8
     5ca:	a1 1d       	adc	r26, r1
     5cc:	b1 1d       	adc	r27, r1
     5ce:	64 e0       	ldi	r22, 0x04	; 4
     5d0:	b5 95       	asr	r27
     5d2:	a7 95       	ror	r26
     5d4:	97 95       	ror	r25
     5d6:	87 95       	ror	r24
     5d8:	6a 95       	dec	r22
     5da:	d1 f7       	brne	.-12     	; 0x5d0 <CmpBMP085GetAltitude+0x17a>
     5dc:	90 93 c9 02 	sts	0x02C9, r25
     5e0:	80 93 c8 02 	sts	0x02C8, r24
     5e4:	d9 01       	movw	r26, r18
     5e6:	c8 01       	movw	r24, r16
     5e8:	80 5a       	subi	r24, 0xA0	; 160
     5ea:	9f 40       	sbci	r25, 0x0F	; 15
     5ec:	a0 40       	sbci	r26, 0x00	; 0
     5ee:	b0 40       	sbci	r27, 0x00	; 0
     5f0:	8c 83       	std	Y+4, r24	; 0x04
     5f2:	9d 83       	std	Y+5, r25	; 0x05
     5f4:	ae 83       	std	Y+6, r26	; 0x06
     5f6:	bf 83       	std	Y+7, r27	; 0x07
     5f8:	bc 01       	movw	r22, r24
     5fa:	cd 01       	movw	r24, r26
     5fc:	9b 01       	movw	r18, r22
     5fe:	ac 01       	movw	r20, r24
     600:	0e 94 a0 2b 	call	0x5740	; 0x5740 <__mulsi3>
     604:	2b 01       	movw	r4, r22
     606:	3c 01       	movw	r6, r24
     608:	ec e0       	ldi	r30, 0x0C	; 12
     60a:	75 94       	asr	r7
     60c:	67 94       	ror	r6
     60e:	57 94       	ror	r5
     610:	47 94       	ror	r4
     612:	ea 95       	dec	r30
     614:	d1 f7       	brne	.-12     	; 0x60a <CmpBMP085GetAltitude+0x1b4>
     616:	00 91 9b 02 	lds	r16, 0x029B
     61a:	10 91 9c 02 	lds	r17, 0x029C
     61e:	20 91 9f 02 	lds	r18, 0x029F
     622:	30 91 a0 02 	lds	r19, 0x02A0
     626:	44 27       	eor	r20, r20
     628:	37 fd       	sbrc	r19, 7
     62a:	40 95       	com	r20
     62c:	54 2f       	mov	r21, r20
     62e:	6c 81       	ldd	r22, Y+4	; 0x04
     630:	7d 81       	ldd	r23, Y+5	; 0x05
     632:	8e 81       	ldd	r24, Y+6	; 0x06
     634:	9f 81       	ldd	r25, Y+7	; 0x07
     636:	0e 94 a0 2b 	call	0x5740	; 0x5740 <__mulsi3>
     63a:	6b 01       	movw	r12, r22
     63c:	7c 01       	movw	r14, r24
     63e:	fd e0       	ldi	r31, 0x0D	; 13
     640:	f5 94       	asr	r15
     642:	e7 94       	ror	r14
     644:	d7 94       	ror	r13
     646:	c7 94       	ror	r12
     648:	fa 95       	dec	r31
     64a:	d1 f7       	brne	.-12     	; 0x640 <CmpBMP085GetAltitude+0x1ea>
     64c:	20 91 a7 02 	lds	r18, 0x02A7
     650:	30 91 a8 02 	lds	r19, 0x02A8
     654:	44 27       	eor	r20, r20
     656:	37 fd       	sbrc	r19, 7
     658:	40 95       	com	r20
     65a:	54 2f       	mov	r21, r20
     65c:	c3 01       	movw	r24, r6
     65e:	b2 01       	movw	r22, r4
     660:	0e 94 a0 2b 	call	0x5740	; 0x5740 <__mulsi3>
     664:	dc 01       	movw	r26, r24
     666:	cb 01       	movw	r24, r22
     668:	cd 01       	movw	r24, r26
     66a:	bb 27       	eor	r27, r27
     66c:	97 fd       	sbrc	r25, 7
     66e:	b0 95       	com	r27
     670:	ab 2f       	mov	r26, r27
     672:	c8 0e       	add	r12, r24
     674:	d9 1e       	adc	r13, r25
     676:	ea 1e       	adc	r14, r26
     678:	fb 1e       	adc	r15, r27
     67a:	82 e0       	ldi	r24, 0x02	; 2
     67c:	90 e0       	ldi	r25, 0x00	; 0
     67e:	a0 e0       	ldi	r26, 0x00	; 0
     680:	b0 e0       	ldi	r27, 0x00	; 0
     682:	c8 0e       	add	r12, r24
     684:	d9 1e       	adc	r13, r25
     686:	ea 1e       	adc	r14, r26
     688:	fb 1e       	adc	r15, r27
     68a:	f5 94       	asr	r15
     68c:	e7 94       	ror	r14
     68e:	d7 94       	ror	r13
     690:	c7 94       	ror	r12
     692:	f5 94       	asr	r15
     694:	e7 94       	ror	r14
     696:	d7 94       	ror	r13
     698:	c7 94       	ror	r12
     69a:	80 e0       	ldi	r24, 0x00	; 0
     69c:	90 e8       	ldi	r25, 0x80	; 128
     69e:	a0 e0       	ldi	r26, 0x00	; 0
     6a0:	b0 e0       	ldi	r27, 0x00	; 0
     6a2:	c8 0e       	add	r12, r24
     6a4:	d9 1e       	adc	r13, r25
     6a6:	ea 1e       	adc	r14, r26
     6a8:	fb 1e       	adc	r15, r27
     6aa:	20 91 a1 02 	lds	r18, 0x02A1
     6ae:	30 91 a2 02 	lds	r19, 0x02A2
     6b2:	40 e0       	ldi	r20, 0x00	; 0
     6b4:	50 e0       	ldi	r21, 0x00	; 0
     6b6:	c7 01       	movw	r24, r14
     6b8:	b6 01       	movw	r22, r12
     6ba:	0e 94 a0 2b 	call	0x5740	; 0x5740 <__mulsi3>
     6be:	dc 01       	movw	r26, r24
     6c0:	cb 01       	movw	r24, r22
     6c2:	ef e0       	ldi	r30, 0x0F	; 15
     6c4:	b6 95       	lsr	r27
     6c6:	a7 95       	ror	r26
     6c8:	97 95       	ror	r25
     6ca:	87 95       	ror	r24
     6cc:	ea 95       	dec	r30
     6ce:	d1 f7       	brne	.-12     	; 0x6c4 <CmpBMP085GetAltitude+0x26e>
     6d0:	88 87       	std	Y+8, r24	; 0x08
     6d2:	99 87       	std	Y+9, r25	; 0x09
     6d4:	aa 87       	std	Y+10, r26	; 0x0a
     6d6:	bb 87       	std	Y+11, r27	; 0x0b
     6d8:	80 90 b3 02 	lds	r8, 0x02B3
     6dc:	90 90 b4 02 	lds	r9, 0x02B4
     6e0:	a0 90 b5 02 	lds	r10, 0x02B5
     6e4:	b0 90 b6 02 	lds	r11, 0x02B6
     6e8:	f6 e0       	ldi	r31, 0x06	; 6
     6ea:	b6 94       	lsr	r11
     6ec:	a7 94       	ror	r10
     6ee:	97 94       	ror	r9
     6f0:	87 94       	ror	r8
     6f2:	fa 95       	dec	r31
     6f4:	d1 f7       	brne	.-12     	; 0x6ea <CmpBMP085GetAltitude+0x294>
     6f6:	60 91 a9 02 	lds	r22, 0x02A9
     6fa:	70 91 aa 02 	lds	r23, 0x02AA
     6fe:	88 27       	eor	r24, r24
     700:	77 fd       	sbrc	r23, 7
     702:	80 95       	com	r24
     704:	98 2f       	mov	r25, r24
     706:	a3 01       	movw	r20, r6
     708:	92 01       	movw	r18, r4
     70a:	0e 94 a0 2b 	call	0x5740	; 0x5740 <__mulsi3>
     70e:	6b 01       	movw	r12, r22
     710:	7c 01       	movw	r14, r24
     712:	ab e0       	ldi	r26, 0x0B	; 11
     714:	f5 94       	asr	r15
     716:	e7 94       	ror	r14
     718:	d7 94       	ror	r13
     71a:	c7 94       	ror	r12
     71c:	aa 95       	dec	r26
     71e:	d1 f7       	brne	.-12     	; 0x714 <CmpBMP085GetAltitude+0x2be>
     720:	20 91 9d 02 	lds	r18, 0x029D
     724:	30 91 9e 02 	lds	r19, 0x029E
     728:	44 27       	eor	r20, r20
     72a:	37 fd       	sbrc	r19, 7
     72c:	40 95       	com	r20
     72e:	54 2f       	mov	r21, r20
     730:	6c 81       	ldd	r22, Y+4	; 0x04
     732:	7d 81       	ldd	r23, Y+5	; 0x05
     734:	8e 81       	ldd	r24, Y+6	; 0x06
     736:	9f 81       	ldd	r25, Y+7	; 0x07
     738:	0e 94 a0 2b 	call	0x5740	; 0x5740 <__mulsi3>
     73c:	dc 01       	movw	r26, r24
     73e:	cb 01       	movw	r24, r22
     740:	eb e0       	ldi	r30, 0x0B	; 11
     742:	b5 95       	asr	r27
     744:	a7 95       	ror	r26
     746:	97 95       	ror	r25
     748:	87 95       	ror	r24
     74a:	ea 95       	dec	r30
     74c:	d1 f7       	brne	.-12     	; 0x742 <CmpBMP085GetAltitude+0x2ec>
     74e:	c8 0e       	add	r12, r24
     750:	d9 1e       	adc	r13, r25
     752:	ea 1e       	adc	r14, r26
     754:	fb 1e       	adc	r15, r27
     756:	c8 01       	movw	r24, r16
     758:	aa 27       	eor	r26, r26
     75a:	97 fd       	sbrc	r25, 7
     75c:	a0 95       	com	r26
     75e:	ba 2f       	mov	r27, r26
     760:	88 0f       	add	r24, r24
     762:	99 1f       	adc	r25, r25
     764:	aa 1f       	adc	r26, r26
     766:	bb 1f       	adc	r27, r27
     768:	88 0f       	add	r24, r24
     76a:	99 1f       	adc	r25, r25
     76c:	aa 1f       	adc	r26, r26
     76e:	bb 1f       	adc	r27, r27
     770:	c8 0e       	add	r12, r24
     772:	d9 1e       	adc	r13, r25
     774:	ea 1e       	adc	r14, r26
     776:	fb 1e       	adc	r15, r27
     778:	cc 0c       	add	r12, r12
     77a:	dd 1c       	adc	r13, r13
     77c:	ee 1c       	adc	r14, r14
     77e:	ff 1c       	adc	r15, r15
     780:	cc 0c       	add	r12, r12
     782:	dd 1c       	adc	r13, r13
     784:	ee 1c       	adc	r14, r14
     786:	ff 1c       	adc	r15, r15
     788:	82 e0       	ldi	r24, 0x02	; 2
     78a:	90 e0       	ldi	r25, 0x00	; 0
     78c:	a0 e0       	ldi	r26, 0x00	; 0
     78e:	b0 e0       	ldi	r27, 0x00	; 0
     790:	c8 0e       	add	r12, r24
     792:	d9 1e       	adc	r13, r25
     794:	ea 1e       	adc	r14, r26
     796:	fb 1e       	adc	r15, r27
     798:	c7 01       	movw	r24, r14
     79a:	b6 01       	movw	r22, r12
     79c:	24 e0       	ldi	r18, 0x04	; 4
     79e:	30 e0       	ldi	r19, 0x00	; 0
     7a0:	40 e0       	ldi	r20, 0x00	; 0
     7a2:	50 e0       	ldi	r21, 0x00	; 0
     7a4:	0e 94 f4 2b 	call	0x57e8	; 0x57e8 <__divmodsi4>
     7a8:	82 1a       	sub	r8, r18
     7aa:	93 0a       	sbc	r9, r19
     7ac:	a4 0a       	sbc	r10, r20
     7ae:	b5 0a       	sbc	r11, r21
     7b0:	c5 01       	movw	r24, r10
     7b2:	b4 01       	movw	r22, r8
     7b4:	24 ed       	ldi	r18, 0xD4	; 212
     7b6:	30 e3       	ldi	r19, 0x30	; 48
     7b8:	40 e0       	ldi	r20, 0x00	; 0
     7ba:	50 e0       	ldi	r21, 0x00	; 0
     7bc:	0e 94 a0 2b 	call	0x5740	; 0x5740 <__mulsi3>
     7c0:	97 fd       	sbrc	r25, 7
     7c2:	8d c0       	rjmp	.+282    	; 0x8de <CmpBMP085GetAltitude+0x488>
     7c4:	66 0f       	add	r22, r22
     7c6:	77 1f       	adc	r23, r23
     7c8:	88 1f       	adc	r24, r24
     7ca:	99 1f       	adc	r25, r25
     7cc:	28 85       	ldd	r18, Y+8	; 0x08
     7ce:	39 85       	ldd	r19, Y+9	; 0x09
     7d0:	4a 85       	ldd	r20, Y+10	; 0x0a
     7d2:	5b 85       	ldd	r21, Y+11	; 0x0b
     7d4:	0e 94 d2 2b 	call	0x57a4	; 0x57a4 <__udivmodsi4>
     7d8:	49 01       	movw	r8, r18
     7da:	5a 01       	movw	r10, r20
     7dc:	55 27       	eor	r21, r21
     7de:	b7 fc       	sbrc	r11, 7
     7e0:	5a 95       	dec	r21
     7e2:	4b 2d       	mov	r20, r11
     7e4:	3a 2d       	mov	r19, r10
     7e6:	29 2d       	mov	r18, r9
     7e8:	ca 01       	movw	r24, r20
     7ea:	b9 01       	movw	r22, r18
     7ec:	0e 94 a0 2b 	call	0x5740	; 0x5740 <__mulsi3>
     7f0:	2e ed       	ldi	r18, 0xDE	; 222
     7f2:	3b e0       	ldi	r19, 0x0B	; 11
     7f4:	40 e0       	ldi	r20, 0x00	; 0
     7f6:	50 e0       	ldi	r21, 0x00	; 0
     7f8:	0e 94 a0 2b 	call	0x5740	; 0x5740 <__mulsi3>
     7fc:	6c 01       	movw	r12, r24
     7fe:	ff 24       	eor	r15, r15
     800:	d7 fc       	sbrc	r13, 7
     802:	f0 94       	com	r15
     804:	ef 2c       	mov	r14, r15
     806:	c5 01       	movw	r24, r10
     808:	b4 01       	movw	r22, r8
     80a:	23 e4       	ldi	r18, 0x43	; 67
     80c:	33 ee       	ldi	r19, 0xE3	; 227
     80e:	4f ef       	ldi	r20, 0xFF	; 255
     810:	5f ef       	ldi	r21, 0xFF	; 255
     812:	0e 94 a0 2b 	call	0x5740	; 0x5740 <__mulsi3>
     816:	dc 01       	movw	r26, r24
     818:	cb 01       	movw	r24, r22
     81a:	cd 01       	movw	r24, r26
     81c:	bb 27       	eor	r27, r27
     81e:	97 fd       	sbrc	r25, 7
     820:	b0 95       	com	r27
     822:	ab 2f       	mov	r26, r27
     824:	c8 0e       	add	r12, r24
     826:	d9 1e       	adc	r13, r25
     828:	ea 1e       	adc	r14, r26
     82a:	fb 1e       	adc	r15, r27
     82c:	8f ec       	ldi	r24, 0xCF	; 207
     82e:	9e e0       	ldi	r25, 0x0E	; 14
     830:	a0 e0       	ldi	r26, 0x00	; 0
     832:	b0 e0       	ldi	r27, 0x00	; 0
     834:	c8 0e       	add	r12, r24
     836:	d9 1e       	adc	r13, r25
     838:	ea 1e       	adc	r14, r26
     83a:	fb 1e       	adc	r15, r27
     83c:	14 e0       	ldi	r17, 0x04	; 4
     83e:	f5 94       	asr	r15
     840:	e7 94       	ror	r14
     842:	d7 94       	ror	r13
     844:	c7 94       	ror	r12
     846:	1a 95       	dec	r17
     848:	d1 f7       	brne	.-12     	; 0x83e <CmpBMP085GetAltitude+0x3e8>
     84a:	c8 0c       	add	r12, r8
     84c:	d9 1c       	adc	r13, r9
     84e:	ea 1c       	adc	r14, r10
     850:	fb 1c       	adc	r15, r11
     852:	c0 92 5d 01 	sts	0x015D, r12
     856:	d0 92 5e 01 	sts	0x015E, r13
     85a:	e0 92 5f 01 	sts	0x015F, r14
     85e:	f0 92 60 01 	sts	0x0160, r15
     862:	c0 92 d2 02 	sts	0x02D2, r12
     866:	d0 92 d3 02 	sts	0x02D3, r13
     86a:	e0 92 d4 02 	sts	0x02D4, r14
     86e:	f0 92 d5 02 	sts	0x02D5, r15
     872:	c7 01       	movw	r24, r14
     874:	b6 01       	movw	r22, r12
     876:	0e 94 86 28 	call	0x510c	; 0x510c <__floatunsisf>
     87a:	20 e8       	ldi	r18, 0x80	; 128
     87c:	36 ee       	ldi	r19, 0xE6	; 230
     87e:	45 ec       	ldi	r20, 0xC5	; 197
     880:	57 e4       	ldi	r21, 0x47	; 71
     882:	0e 94 ed 27 	call	0x4fda	; 0x4fda <__divsf3>
     886:	21 eb       	ldi	r18, 0xB1	; 177
     888:	3c ed       	ldi	r19, 0xDC	; 220
     88a:	42 e4       	ldi	r20, 0x42	; 66
     88c:	5e e3       	ldi	r21, 0x3E	; 62
     88e:	0e 94 04 2a 	call	0x5408	; 0x5408 <pow>
     892:	b6 2f       	mov	r27, r22
     894:	a7 2f       	mov	r26, r23
     896:	38 2f       	mov	r19, r24
     898:	29 2f       	mov	r18, r25
     89a:	60 e0       	ldi	r22, 0x00	; 0
     89c:	70 e0       	ldi	r23, 0x00	; 0
     89e:	80 e8       	ldi	r24, 0x80	; 128
     8a0:	9f e3       	ldi	r25, 0x3F	; 63
     8a2:	fd 01       	movw	r30, r26
     8a4:	a9 01       	movw	r20, r18
     8a6:	0f 2f       	mov	r16, r31
     8a8:	1e 2f       	mov	r17, r30
     8aa:	25 2f       	mov	r18, r21
     8ac:	34 2f       	mov	r19, r20
     8ae:	a9 01       	movw	r20, r18
     8b0:	98 01       	movw	r18, r16
     8b2:	0e 94 1f 27 	call	0x4e3e	; 0x4e3e <__subsf3>
     8b6:	20 e8       	ldi	r18, 0x80	; 128
     8b8:	34 e7       	ldi	r19, 0x74	; 116
     8ba:	48 ed       	ldi	r20, 0xD8	; 216
     8bc:	58 e4       	ldi	r21, 0x48	; 72
     8be:	0e 94 a1 29 	call	0x5342	; 0x5342 <__mulsf3>
     8c2:	0e 94 5a 28 	call	0x50b4	; 0x50b4 <__fixunssfsi>
     8c6:	60 93 61 01 	sts	0x0161, r22
     8ca:	70 93 62 01 	sts	0x0162, r23
     8ce:	80 93 63 01 	sts	0x0163, r24
     8d2:	90 93 64 01 	sts	0x0164, r25
     8d6:	23 e0       	ldi	r18, 0x03	; 3
     8d8:	20 93 00 01 	sts	0x0100, r18
     8dc:	e3 cd       	rjmp	.-1082   	; 0x4a4 <CmpBMP085GetAltitude+0x4e>
     8de:	28 85       	ldd	r18, Y+8	; 0x08
     8e0:	39 85       	ldd	r19, Y+9	; 0x09
     8e2:	4a 85       	ldd	r20, Y+10	; 0x0a
     8e4:	5b 85       	ldd	r21, Y+11	; 0x0b
     8e6:	0e 94 d2 2b 	call	0x57a4	; 0x57a4 <__udivmodsi4>
     8ea:	49 01       	movw	r8, r18
     8ec:	5a 01       	movw	r10, r20
     8ee:	88 0c       	add	r8, r8
     8f0:	99 1c       	adc	r9, r9
     8f2:	aa 1c       	adc	r10, r10
     8f4:	bb 1c       	adc	r11, r11
     8f6:	72 cf       	rjmp	.-284    	; 0x7dc <CmpBMP085GetAltitude+0x386>

000008f8 <CmpBMP085StartCapture>:
     8f8:	87 e7       	ldi	r24, 0x77	; 119
     8fa:	64 ef       	ldi	r22, 0xF4	; 244
     8fc:	4e e2       	ldi	r20, 0x2E	; 46
     8fe:	0e 94 9a 0c 	call	0x1934	; 0x1934 <DrvTwiWriteReg>
     902:	81 e0       	ldi	r24, 0x01	; 1
     904:	65 e0       	ldi	r22, 0x05	; 5
     906:	70 e0       	ldi	r23, 0x00	; 0
     908:	40 e0       	ldi	r20, 0x00	; 0
     90a:	27 ef       	ldi	r18, 0xF7	; 247
     90c:	31 e0       	ldi	r19, 0x01	; 1
     90e:	0e 94 28 24 	call	0x4850	; 0x4850 <SrvTimerAddTimer>
     912:	08 95       	ret

00000914 <CmpHMC5883Init>:
     914:	8e e1       	ldi	r24, 0x1E	; 30
     916:	60 e0       	ldi	r22, 0x00	; 0
     918:	40 e7       	ldi	r20, 0x70	; 112
     91a:	0e 94 9a 0c 	call	0x1934	; 0x1934 <DrvTwiWriteReg>
     91e:	88 ec       	ldi	r24, 0xC8	; 200
     920:	90 e0       	ldi	r25, 0x00	; 0
     922:	0e 94 90 0a 	call	0x1520	; 0x1520 <DrvTimerDelayUs>
     926:	8e e1       	ldi	r24, 0x1E	; 30
     928:	61 e0       	ldi	r22, 0x01	; 1
     92a:	40 e2       	ldi	r20, 0x20	; 32
     92c:	0e 94 9a 0c 	call	0x1934	; 0x1934 <DrvTwiWriteReg>
     930:	88 ec       	ldi	r24, 0xC8	; 200
     932:	90 e0       	ldi	r25, 0x00	; 0
     934:	0e 94 90 0a 	call	0x1520	; 0x1520 <DrvTimerDelayUs>
     938:	8e e1       	ldi	r24, 0x1E	; 30
     93a:	62 e0       	ldi	r22, 0x02	; 2
     93c:	40 e0       	ldi	r20, 0x00	; 0
     93e:	0e 94 9a 0c 	call	0x1934	; 0x1934 <DrvTwiWriteReg>
     942:	88 ec       	ldi	r24, 0xC8	; 200
     944:	90 e0       	ldi	r25, 0x00	; 0
     946:	0e 94 90 0a 	call	0x1520	; 0x1520 <DrvTimerDelayUs>
     94a:	81 e0       	ldi	r24, 0x01	; 1
     94c:	80 93 65 01 	sts	0x0165, r24
     950:	85 e0       	ldi	r24, 0x05	; 5
     952:	90 e0       	ldi	r25, 0x00	; 0
     954:	0e 94 c7 09 	call	0x138e	; 0x138e <DrvTimerDelayMs>
     958:	81 e0       	ldi	r24, 0x01	; 1
     95a:	08 95       	ret

0000095c <CmpHMC5883IsCalibrate>:
     95c:	81 e0       	ldi	r24, 0x01	; 1
     95e:	90 91 65 01 	lds	r25, 0x0165
     962:	91 11       	cpse	r25, r1
     964:	80 e0       	ldi	r24, 0x00	; 0
     966:	08 95       	ret

00000968 <CmpHMC5883GetHeading>:
     968:	0f 93       	push	r16
     96a:	1f 93       	push	r17
     96c:	cf 93       	push	r28
     96e:	df 93       	push	r29
     970:	00 d0       	rcall	.+0      	; 0x972 <CmpHMC5883GetHeading+0xa>
     972:	00 d0       	rcall	.+0      	; 0x974 <CmpHMC5883GetHeading+0xc>
     974:	00 d0       	rcall	.+0      	; 0x976 <CmpHMC5883GetHeading+0xe>
     976:	cd b7       	in	r28, 0x3d	; 61
     978:	de b7       	in	r29, 0x3e	; 62
     97a:	8c 01       	movw	r16, r24
     97c:	ae 01       	movw	r20, r28
     97e:	4f 5f       	subi	r20, 0xFF	; 255
     980:	5f 4f       	sbci	r21, 0xFF	; 255
     982:	86 e0       	ldi	r24, 0x06	; 6
     984:	fa 01       	movw	r30, r20
     986:	11 92       	st	Z+, r1
     988:	8a 95       	dec	r24
     98a:	e9 f7       	brne	.-6      	; 0x986 <CmpHMC5883GetHeading+0x1e>
     98c:	8e e1       	ldi	r24, 0x1E	; 30
     98e:	63 e0       	ldi	r22, 0x03	; 3
     990:	26 e0       	ldi	r18, 0x06	; 6
     992:	0e 94 5c 0c 	call	0x18b8	; 0x18b8 <DrvTwiReadRegBuf>
     996:	86 30       	cpi	r24, 0x06	; 6
     998:	61 f0       	breq	.+24     	; 0x9b2 <CmpHMC5883GetHeading+0x4a>
     99a:	80 e0       	ldi	r24, 0x00	; 0
     99c:	26 96       	adiw	r28, 0x06	; 6
     99e:	0f b6       	in	r0, 0x3f	; 63
     9a0:	f8 94       	cli
     9a2:	de bf       	out	0x3e, r29	; 62
     9a4:	0f be       	out	0x3f, r0	; 63
     9a6:	cd bf       	out	0x3d, r28	; 61
     9a8:	df 91       	pop	r29
     9aa:	cf 91       	pop	r28
     9ac:	1f 91       	pop	r17
     9ae:	0f 91       	pop	r16
     9b0:	08 95       	ret
     9b2:	39 81       	ldd	r19, Y+1	; 0x01
     9b4:	20 e0       	ldi	r18, 0x00	; 0
     9b6:	8a 81       	ldd	r24, Y+2	; 0x02
     9b8:	90 e0       	ldi	r25, 0x00	; 0
     9ba:	82 2b       	or	r24, r18
     9bc:	93 2b       	or	r25, r19
     9be:	f8 01       	movw	r30, r16
     9c0:	91 83       	std	Z+1, r25	; 0x01
     9c2:	80 83       	st	Z, r24
     9c4:	3d 81       	ldd	r19, Y+5	; 0x05
     9c6:	20 e0       	ldi	r18, 0x00	; 0
     9c8:	4e 81       	ldd	r20, Y+6	; 0x06
     9ca:	50 e0       	ldi	r21, 0x00	; 0
     9cc:	42 2b       	or	r20, r18
     9ce:	53 2b       	or	r21, r19
     9d0:	53 83       	std	Z+3, r21	; 0x03
     9d2:	42 83       	std	Z+2, r20	; 0x02
     9d4:	7b 81       	ldd	r23, Y+3	; 0x03
     9d6:	60 e0       	ldi	r22, 0x00	; 0
     9d8:	2c 81       	ldd	r18, Y+4	; 0x04
     9da:	30 e0       	ldi	r19, 0x00	; 0
     9dc:	26 2b       	or	r18, r22
     9de:	37 2b       	or	r19, r23
     9e0:	35 83       	std	Z+5, r19	; 0x05
     9e2:	24 83       	std	Z+4, r18	; 0x04
     9e4:	60 91 65 01 	lds	r22, 0x0165
     9e8:	66 23       	and	r22, r22
     9ea:	29 f0       	breq	.+10     	; 0x9f6 <CmpHMC5883GetHeading+0x8e>
     9ec:	61 50       	subi	r22, 0x01	; 1
     9ee:	60 93 65 01 	sts	0x0165, r22
     9f2:	81 e0       	ldi	r24, 0x01	; 1
     9f4:	d3 cf       	rjmp	.-90     	; 0x99c <CmpHMC5883GetHeading+0x34>
     9f6:	60 91 66 01 	lds	r22, 0x0166
     9fa:	86 1b       	sub	r24, r22
     9fc:	91 09       	sbc	r25, r1
     9fe:	f8 01       	movw	r30, r16
     a00:	91 83       	std	Z+1, r25	; 0x01
     a02:	80 83       	st	Z, r24
     a04:	80 91 67 01 	lds	r24, 0x0167
     a08:	48 1b       	sub	r20, r24
     a0a:	51 09       	sbc	r21, r1
     a0c:	53 83       	std	Z+3, r21	; 0x03
     a0e:	42 83       	std	Z+2, r20	; 0x02
     a10:	80 91 68 01 	lds	r24, 0x0168
     a14:	28 1b       	sub	r18, r24
     a16:	31 09       	sbc	r19, r1
     a18:	35 83       	std	Z+5, r19	; 0x05
     a1a:	24 83       	std	Z+4, r18	; 0x04
     a1c:	81 e0       	ldi	r24, 0x01	; 1
     a1e:	be cf       	rjmp	.-132    	; 0x99c <CmpHMC5883GetHeading+0x34>

00000a20 <CmpITG3205Init>:
     a20:	88 e6       	ldi	r24, 0x68	; 104
     a22:	60 e0       	ldi	r22, 0x00	; 0
     a24:	0e 94 e5 0c 	call	0x19ca	; 0x19ca <DrvTwiReadReg>
     a28:	88 36       	cpi	r24, 0x68	; 104
     a2a:	11 f0       	breq	.+4      	; 0xa30 <CmpITG3205Init+0x10>
     a2c:	80 e0       	ldi	r24, 0x00	; 0
     a2e:	08 95       	ret
     a30:	6e e3       	ldi	r22, 0x3E	; 62
     a32:	40 e8       	ldi	r20, 0x80	; 128
     a34:	0e 94 9a 0c 	call	0x1934	; 0x1934 <DrvTwiWriteReg>
     a38:	88 ec       	ldi	r24, 0xC8	; 200
     a3a:	90 e0       	ldi	r25, 0x00	; 0
     a3c:	0e 94 90 0a 	call	0x1520	; 0x1520 <DrvTimerDelayUs>
     a40:	88 e6       	ldi	r24, 0x68	; 104
     a42:	66 e1       	ldi	r22, 0x16	; 22
     a44:	4a e1       	ldi	r20, 0x1A	; 26
     a46:	0e 94 9a 0c 	call	0x1934	; 0x1934 <DrvTwiWriteReg>
     a4a:	88 ec       	ldi	r24, 0xC8	; 200
     a4c:	90 e0       	ldi	r25, 0x00	; 0
     a4e:	0e 94 90 0a 	call	0x1520	; 0x1520 <DrvTimerDelayUs>
     a52:	88 e6       	ldi	r24, 0x68	; 104
     a54:	6e e3       	ldi	r22, 0x3E	; 62
     a56:	43 e0       	ldi	r20, 0x03	; 3
     a58:	0e 94 9a 0c 	call	0x1934	; 0x1934 <DrvTwiWriteReg>
     a5c:	81 e0       	ldi	r24, 0x01	; 1
     a5e:	90 e0       	ldi	r25, 0x00	; 0
     a60:	0e 94 c7 09 	call	0x138e	; 0x138e <DrvTimerDelayMs>
     a64:	0e 94 67 06 	call	0xcce	; 0xcce <DrvEepromIsConfigured>
     a68:	88 23       	and	r24, r24
     a6a:	89 f4       	brne	.+34     	; 0xa8e <CmpITG3205Init+0x6e>
     a6c:	88 ec       	ldi	r24, 0xC8	; 200
     a6e:	80 93 69 01 	sts	0x0169, r24
     a72:	10 92 6b 01 	sts	0x016B, r1
     a76:	10 92 6a 01 	sts	0x016A, r1
     a7a:	10 92 6d 01 	sts	0x016D, r1
     a7e:	10 92 6c 01 	sts	0x016C, r1
     a82:	10 92 6f 01 	sts	0x016F, r1
     a86:	10 92 6e 01 	sts	0x016E, r1
     a8a:	81 e0       	ldi	r24, 0x01	; 1
     a8c:	08 95       	ret
     a8e:	10 92 69 01 	sts	0x0169, r1
     a92:	8a e6       	ldi	r24, 0x6A	; 106
     a94:	91 e0       	ldi	r25, 0x01	; 1
     a96:	0e 94 d0 06 	call	0xda0	; 0xda0 <DrvEepromReadGyro>
     a9a:	81 e0       	ldi	r24, 0x01	; 1
     a9c:	08 95       	ret

00000a9e <CmpITG3205IsCalibrate>:
     a9e:	80 91 69 01 	lds	r24, 0x0169
     aa2:	88 23       	and	r24, r24
     aa4:	11 f0       	breq	.+4      	; 0xaaa <CmpITG3205IsCalibrate+0xc>
     aa6:	80 e0       	ldi	r24, 0x00	; 0
     aa8:	08 95       	ret
     aaa:	8a e6       	ldi	r24, 0x6A	; 106
     aac:	91 e0       	ldi	r25, 0x01	; 1
     aae:	0e 94 0d 07 	call	0xe1a	; 0xe1a <DrvEepromWriteGyro>
     ab2:	81 e0       	ldi	r24, 0x01	; 1
     ab4:	08 95       	ret

00000ab6 <CmpITG3205GetRotation>:
     ab6:	0f 93       	push	r16
     ab8:	1f 93       	push	r17
     aba:	cf 93       	push	r28
     abc:	df 93       	push	r29
     abe:	00 d0       	rcall	.+0      	; 0xac0 <CmpITG3205GetRotation+0xa>
     ac0:	00 d0       	rcall	.+0      	; 0xac2 <CmpITG3205GetRotation+0xc>
     ac2:	00 d0       	rcall	.+0      	; 0xac4 <CmpITG3205GetRotation+0xe>
     ac4:	cd b7       	in	r28, 0x3d	; 61
     ac6:	de b7       	in	r29, 0x3e	; 62
     ac8:	8c 01       	movw	r16, r24
     aca:	ae 01       	movw	r20, r28
     acc:	4f 5f       	subi	r20, 0xFF	; 255
     ace:	5f 4f       	sbci	r21, 0xFF	; 255
     ad0:	86 e0       	ldi	r24, 0x06	; 6
     ad2:	fa 01       	movw	r30, r20
     ad4:	11 92       	st	Z+, r1
     ad6:	8a 95       	dec	r24
     ad8:	e9 f7       	brne	.-6      	; 0xad4 <CmpITG3205GetRotation+0x1e>
     ada:	88 e6       	ldi	r24, 0x68	; 104
     adc:	6d e1       	ldi	r22, 0x1D	; 29
     ade:	26 e0       	ldi	r18, 0x06	; 6
     ae0:	0e 94 5c 0c 	call	0x18b8	; 0x18b8 <DrvTwiReadRegBuf>
     ae4:	86 30       	cpi	r24, 0x06	; 6
     ae6:	61 f0       	breq	.+24     	; 0xb00 <CmpITG3205GetRotation+0x4a>
     ae8:	80 e0       	ldi	r24, 0x00	; 0
     aea:	26 96       	adiw	r28, 0x06	; 6
     aec:	0f b6       	in	r0, 0x3f	; 63
     aee:	f8 94       	cli
     af0:	de bf       	out	0x3e, r29	; 62
     af2:	0f be       	out	0x3f, r0	; 63
     af4:	cd bf       	out	0x3d, r28	; 61
     af6:	df 91       	pop	r29
     af8:	cf 91       	pop	r28
     afa:	1f 91       	pop	r17
     afc:	0f 91       	pop	r16
     afe:	08 95       	ret
     b00:	39 81       	ldd	r19, Y+1	; 0x01
     b02:	20 e0       	ldi	r18, 0x00	; 0
     b04:	4a 81       	ldd	r20, Y+2	; 0x02
     b06:	50 e0       	ldi	r21, 0x00	; 0
     b08:	42 2b       	or	r20, r18
     b0a:	53 2b       	or	r21, r19
     b0c:	f8 01       	movw	r30, r16
     b0e:	51 83       	std	Z+1, r21	; 0x01
     b10:	40 83       	st	Z, r20
     b12:	9b 81       	ldd	r25, Y+3	; 0x03
     b14:	80 e0       	ldi	r24, 0x00	; 0
     b16:	6c 81       	ldd	r22, Y+4	; 0x04
     b18:	70 e0       	ldi	r23, 0x00	; 0
     b1a:	68 2b       	or	r22, r24
     b1c:	79 2b       	or	r23, r25
     b1e:	73 83       	std	Z+3, r23	; 0x03
     b20:	62 83       	std	Z+2, r22	; 0x02
     b22:	9d 81       	ldd	r25, Y+5	; 0x05
     b24:	80 e0       	ldi	r24, 0x00	; 0
     b26:	2e 81       	ldd	r18, Y+6	; 0x06
     b28:	30 e0       	ldi	r19, 0x00	; 0
     b2a:	28 2b       	or	r18, r24
     b2c:	39 2b       	or	r19, r25
     b2e:	35 83       	std	Z+5, r19	; 0x05
     b30:	24 83       	std	Z+4, r18	; 0x04
     b32:	c9 01       	movw	r24, r18
     b34:	05 96       	adiw	r24, 0x05	; 5
     b36:	8b 30       	cpi	r24, 0x0B	; 11
     b38:	91 05       	cpc	r25, r1
     b3a:	20 f4       	brcc	.+8      	; 0xb44 <CmpITG3205GetRotation+0x8e>
     b3c:	15 82       	std	Z+5, r1	; 0x05
     b3e:	14 82       	std	Z+4, r1	; 0x04
     b40:	20 e0       	ldi	r18, 0x00	; 0
     b42:	30 e0       	ldi	r19, 0x00	; 0
     b44:	e0 91 69 01 	lds	r30, 0x0169
     b48:	80 91 6a 01 	lds	r24, 0x016A
     b4c:	90 91 6b 01 	lds	r25, 0x016B
     b50:	ee 23       	and	r30, r30
     b52:	09 f1       	breq	.+66     	; 0xb96 <CmpITG3205GetRotation+0xe0>
     b54:	e1 30       	cpi	r30, 0x01	; 1
     b56:	c1 f1       	breq	.+112    	; 0xbc8 <CmpITG3205GetRotation+0x112>
     b58:	84 0f       	add	r24, r20
     b5a:	95 1f       	adc	r25, r21
     b5c:	90 93 6b 01 	sts	0x016B, r25
     b60:	80 93 6a 01 	sts	0x016A, r24
     b64:	80 91 6c 01 	lds	r24, 0x016C
     b68:	90 91 6d 01 	lds	r25, 0x016D
     b6c:	86 0f       	add	r24, r22
     b6e:	97 1f       	adc	r25, r23
     b70:	90 93 6d 01 	sts	0x016D, r25
     b74:	80 93 6c 01 	sts	0x016C, r24
     b78:	80 91 6e 01 	lds	r24, 0x016E
     b7c:	90 91 6f 01 	lds	r25, 0x016F
     b80:	82 0f       	add	r24, r18
     b82:	93 1f       	adc	r25, r19
     b84:	90 93 6f 01 	sts	0x016F, r25
     b88:	80 93 6e 01 	sts	0x016E, r24
     b8c:	e1 50       	subi	r30, 0x01	; 1
     b8e:	e0 93 69 01 	sts	0x0169, r30
     b92:	81 e0       	ldi	r24, 0x01	; 1
     b94:	aa cf       	rjmp	.-172    	; 0xaea <CmpITG3205GetRotation+0x34>
     b96:	fa 01       	movw	r30, r20
     b98:	e8 1b       	sub	r30, r24
     b9a:	f9 0b       	sbc	r31, r25
     b9c:	cf 01       	movw	r24, r30
     b9e:	f8 01       	movw	r30, r16
     ba0:	91 83       	std	Z+1, r25	; 0x01
     ba2:	80 83       	st	Z, r24
     ba4:	80 91 6c 01 	lds	r24, 0x016C
     ba8:	90 91 6d 01 	lds	r25, 0x016D
     bac:	68 1b       	sub	r22, r24
     bae:	79 0b       	sbc	r23, r25
     bb0:	73 83       	std	Z+3, r23	; 0x03
     bb2:	62 83       	std	Z+2, r22	; 0x02
     bb4:	80 91 6e 01 	lds	r24, 0x016E
     bb8:	90 91 6f 01 	lds	r25, 0x016F
     bbc:	28 1b       	sub	r18, r24
     bbe:	39 0b       	sbc	r19, r25
     bc0:	35 83       	std	Z+5, r19	; 0x05
     bc2:	24 83       	std	Z+4, r18	; 0x04
     bc4:	81 e0       	ldi	r24, 0x01	; 1
     bc6:	91 cf       	rjmp	.-222    	; 0xaea <CmpITG3205GetRotation+0x34>
     bc8:	28 ec       	ldi	r18, 0xC8	; 200
     bca:	30 e0       	ldi	r19, 0x00	; 0
     bcc:	b9 01       	movw	r22, r18
     bce:	0e 94 bf 2b 	call	0x577e	; 0x577e <__divmodhi4>
     bd2:	70 93 6b 01 	sts	0x016B, r23
     bd6:	60 93 6a 01 	sts	0x016A, r22
     bda:	80 91 6c 01 	lds	r24, 0x016C
     bde:	90 91 6d 01 	lds	r25, 0x016D
     be2:	b9 01       	movw	r22, r18
     be4:	0e 94 bf 2b 	call	0x577e	; 0x577e <__divmodhi4>
     be8:	70 93 6d 01 	sts	0x016D, r23
     bec:	60 93 6c 01 	sts	0x016C, r22
     bf0:	80 91 6e 01 	lds	r24, 0x016E
     bf4:	90 91 6f 01 	lds	r25, 0x016F
     bf8:	b9 01       	movw	r22, r18
     bfa:	0e 94 bf 2b 	call	0x577e	; 0x577e <__divmodhi4>
     bfe:	70 93 6f 01 	sts	0x016F, r23
     c02:	60 93 6e 01 	sts	0x016E, r22
     c06:	c2 cf       	rjmp	.-124    	; 0xb8c <CmpITG3205GetRotation+0xd6>

00000c08 <HeartbeatIsrCallbackTimer>:
     c08:	85 b1       	in	r24, 0x05	; 5
     c0a:	90 e2       	ldi	r25, 0x20	; 32
     c0c:	89 27       	eor	r24, r25
     c0e:	85 b9       	out	0x05, r24	; 5
     c10:	08 95       	ret

00000c12 <DrvAdcInit>:
     c12:	ec e7       	ldi	r30, 0x7C	; 124
     c14:	f0 e0       	ldi	r31, 0x00	; 0
     c16:	80 81       	ld	r24, Z
     c18:	80 64       	ori	r24, 0x40	; 64
     c1a:	80 83       	st	Z, r24
     c1c:	80 81       	ld	r24, Z
     c1e:	82 60       	ori	r24, 0x02	; 2
     c20:	80 83       	st	Z, r24
     c22:	80 81       	ld	r24, Z
     c24:	84 60       	ori	r24, 0x04	; 4
     c26:	80 83       	st	Z, r24
     c28:	80 81       	ld	r24, Z
     c2a:	80 64       	ori	r24, 0x40	; 64
     c2c:	80 83       	st	Z, r24
     c2e:	ea e7       	ldi	r30, 0x7A	; 122
     c30:	f0 e0       	ldi	r31, 0x00	; 0
     c32:	80 81       	ld	r24, Z
     c34:	80 68       	ori	r24, 0x80	; 128
     c36:	80 83       	st	Z, r24
     c38:	80 81       	ld	r24, Z
     c3a:	88 60       	ori	r24, 0x08	; 8
     c3c:	80 83       	st	Z, r24
     c3e:	10 92 7b 01 	sts	0x017B, r1
     c42:	10 92 7a 01 	sts	0x017A, r1
     c46:	80 e0       	ldi	r24, 0x00	; 0
     c48:	08 95       	ret

00000c4a <DrvAdcDispatcher>:
     c4a:	62 e0       	ldi	r22, 0x02	; 2
     c4c:	0e 94 5c 08 	call	0x10b8	; 0x10b8 <DrvEventTestEvent>
     c50:	81 30       	cpi	r24, 0x01	; 1
     c52:	09 f0       	breq	.+2      	; 0xc56 <DrvAdcDispatcher+0xc>
     c54:	08 95       	ret
     c56:	80 91 7a 00 	lds	r24, 0x007A
     c5a:	80 64       	ori	r24, 0x40	; 64
     c5c:	80 93 7a 00 	sts	0x007A, r24
     c60:	08 95       	ret

00000c62 <__vector_21>:
     c62:	1f 92       	push	r1
     c64:	0f 92       	push	r0
     c66:	0f b6       	in	r0, 0x3f	; 63
     c68:	0f 92       	push	r0
     c6a:	11 24       	eor	r1, r1
     c6c:	8f 93       	push	r24
     c6e:	9f 93       	push	r25
     c70:	80 91 78 00 	lds	r24, 0x0078
     c74:	90 91 79 00 	lds	r25, 0x0079
     c78:	90 93 7b 01 	sts	0x017B, r25
     c7c:	80 93 7a 01 	sts	0x017A, r24
     c80:	90 93 c6 02 	sts	0x02C6, r25
     c84:	80 93 c5 02 	sts	0x02C5, r24
     c88:	9f 91       	pop	r25
     c8a:	8f 91       	pop	r24
     c8c:	0f 90       	pop	r0
     c8e:	0f be       	out	0x3f, r0	; 63
     c90:	0f 90       	pop	r0
     c92:	1f 90       	pop	r1
     c94:	18 95       	reti

00000c96 <DrvEepromInit>:
     c96:	80 e0       	ldi	r24, 0x00	; 0
     c98:	90 e0       	ldi	r25, 0x00	; 0
     c9a:	0e 94 23 2e 	call	0x5c46	; 0x5c46 <__eerd_byte_m328p>
     c9e:	80 93 7c 01 	sts	0x017C, r24
     ca2:	88 23       	and	r24, r24
     ca4:	21 f0       	breq	.+8      	; 0xcae <DrvEepromInit+0x18>
     ca6:	10 92 7d 01 	sts	0x017D, r1
     caa:	80 e0       	ldi	r24, 0x00	; 0
     cac:	08 95       	ret
     cae:	81 e0       	ldi	r24, 0x01	; 1
     cb0:	80 93 7d 01 	sts	0x017D, r24
     cb4:	08 95       	ret

00000cb6 <DrvEepromDeconfigure>:
     cb6:	80 e0       	ldi	r24, 0x00	; 0
     cb8:	90 e0       	ldi	r25, 0x00	; 0
     cba:	6f ef       	ldi	r22, 0xFF	; 255
     cbc:	0e 94 31 2e 	call	0x5c62	; 0x5c62 <__eewr_byte_m328p>
     cc0:	08 95       	ret

00000cc2 <DrvEepromConfigure>:
     cc2:	80 e0       	ldi	r24, 0x00	; 0
     cc4:	90 e0       	ldi	r25, 0x00	; 0
     cc6:	60 e0       	ldi	r22, 0x00	; 0
     cc8:	0e 94 31 2e 	call	0x5c62	; 0x5c62 <__eewr_byte_m328p>
     ccc:	08 95       	ret

00000cce <DrvEepromIsConfigured>:
     cce:	80 91 7d 01 	lds	r24, 0x017D
     cd2:	08 95       	ret

00000cd4 <DrvEepromReadAcc>:
     cd4:	0f 93       	push	r16
     cd6:	1f 93       	push	r17
     cd8:	cf 93       	push	r28
     cda:	df 93       	push	r29
     cdc:	8c 01       	movw	r16, r24
     cde:	81 e0       	ldi	r24, 0x01	; 1
     ce0:	90 e0       	ldi	r25, 0x00	; 0
     ce2:	0e 94 23 2e 	call	0x5c46	; 0x5c46 <__eerd_byte_m328p>
     ce6:	d8 2f       	mov	r29, r24
     ce8:	80 e0       	ldi	r24, 0x00	; 0
     cea:	c8 2f       	mov	r28, r24
     cec:	82 e0       	ldi	r24, 0x02	; 2
     cee:	90 e0       	ldi	r25, 0x00	; 0
     cf0:	0e 94 23 2e 	call	0x5c46	; 0x5c46 <__eerd_byte_m328p>
     cf4:	90 e0       	ldi	r25, 0x00	; 0
     cf6:	8c 2b       	or	r24, r28
     cf8:	9d 2b       	or	r25, r29
     cfa:	f8 01       	movw	r30, r16
     cfc:	91 83       	std	Z+1, r25	; 0x01
     cfe:	80 83       	st	Z, r24
     d00:	83 e0       	ldi	r24, 0x03	; 3
     d02:	90 e0       	ldi	r25, 0x00	; 0
     d04:	0e 94 23 2e 	call	0x5c46	; 0x5c46 <__eerd_byte_m328p>
     d08:	d8 2f       	mov	r29, r24
     d0a:	f0 e0       	ldi	r31, 0x00	; 0
     d0c:	cf 2f       	mov	r28, r31
     d0e:	84 e0       	ldi	r24, 0x04	; 4
     d10:	90 e0       	ldi	r25, 0x00	; 0
     d12:	0e 94 23 2e 	call	0x5c46	; 0x5c46 <__eerd_byte_m328p>
     d16:	90 e0       	ldi	r25, 0x00	; 0
     d18:	8c 2b       	or	r24, r28
     d1a:	9d 2b       	or	r25, r29
     d1c:	f8 01       	movw	r30, r16
     d1e:	93 83       	std	Z+3, r25	; 0x03
     d20:	82 83       	std	Z+2, r24	; 0x02
     d22:	85 e0       	ldi	r24, 0x05	; 5
     d24:	90 e0       	ldi	r25, 0x00	; 0
     d26:	0e 94 23 2e 	call	0x5c46	; 0x5c46 <__eerd_byte_m328p>
     d2a:	d8 2f       	mov	r29, r24
     d2c:	f0 e0       	ldi	r31, 0x00	; 0
     d2e:	cf 2f       	mov	r28, r31
     d30:	86 e0       	ldi	r24, 0x06	; 6
     d32:	90 e0       	ldi	r25, 0x00	; 0
     d34:	0e 94 23 2e 	call	0x5c46	; 0x5c46 <__eerd_byte_m328p>
     d38:	90 e0       	ldi	r25, 0x00	; 0
     d3a:	8c 2b       	or	r24, r28
     d3c:	9d 2b       	or	r25, r29
     d3e:	f8 01       	movw	r30, r16
     d40:	95 83       	std	Z+5, r25	; 0x05
     d42:	84 83       	std	Z+4, r24	; 0x04
     d44:	df 91       	pop	r29
     d46:	cf 91       	pop	r28
     d48:	1f 91       	pop	r17
     d4a:	0f 91       	pop	r16
     d4c:	08 95       	ret

00000d4e <DrvEepromWriteAcc>:
     d4e:	1f 93       	push	r17
     d50:	cf 93       	push	r28
     d52:	df 93       	push	r29
     d54:	ec 01       	movw	r28, r24
     d56:	18 81       	ld	r17, Y
     d58:	69 81       	ldd	r22, Y+1	; 0x01
     d5a:	81 e0       	ldi	r24, 0x01	; 1
     d5c:	90 e0       	ldi	r25, 0x00	; 0
     d5e:	0e 94 31 2e 	call	0x5c62	; 0x5c62 <__eewr_byte_m328p>
     d62:	82 e0       	ldi	r24, 0x02	; 2
     d64:	90 e0       	ldi	r25, 0x00	; 0
     d66:	61 2f       	mov	r22, r17
     d68:	0e 94 31 2e 	call	0x5c62	; 0x5c62 <__eewr_byte_m328p>
     d6c:	1a 81       	ldd	r17, Y+2	; 0x02
     d6e:	6b 81       	ldd	r22, Y+3	; 0x03
     d70:	83 e0       	ldi	r24, 0x03	; 3
     d72:	90 e0       	ldi	r25, 0x00	; 0
     d74:	0e 94 31 2e 	call	0x5c62	; 0x5c62 <__eewr_byte_m328p>
     d78:	84 e0       	ldi	r24, 0x04	; 4
     d7a:	90 e0       	ldi	r25, 0x00	; 0
     d7c:	61 2f       	mov	r22, r17
     d7e:	0e 94 31 2e 	call	0x5c62	; 0x5c62 <__eewr_byte_m328p>
     d82:	1c 81       	ldd	r17, Y+4	; 0x04
     d84:	6d 81       	ldd	r22, Y+5	; 0x05
     d86:	85 e0       	ldi	r24, 0x05	; 5
     d88:	90 e0       	ldi	r25, 0x00	; 0
     d8a:	0e 94 31 2e 	call	0x5c62	; 0x5c62 <__eewr_byte_m328p>
     d8e:	86 e0       	ldi	r24, 0x06	; 6
     d90:	90 e0       	ldi	r25, 0x00	; 0
     d92:	61 2f       	mov	r22, r17
     d94:	0e 94 31 2e 	call	0x5c62	; 0x5c62 <__eewr_byte_m328p>
     d98:	df 91       	pop	r29
     d9a:	cf 91       	pop	r28
     d9c:	1f 91       	pop	r17
     d9e:	08 95       	ret

00000da0 <DrvEepromReadGyro>:
     da0:	0f 93       	push	r16
     da2:	1f 93       	push	r17
     da4:	cf 93       	push	r28
     da6:	df 93       	push	r29
     da8:	8c 01       	movw	r16, r24
     daa:	87 e0       	ldi	r24, 0x07	; 7
     dac:	90 e0       	ldi	r25, 0x00	; 0
     dae:	0e 94 23 2e 	call	0x5c46	; 0x5c46 <__eerd_byte_m328p>
     db2:	d8 2f       	mov	r29, r24
     db4:	80 e0       	ldi	r24, 0x00	; 0
     db6:	c8 2f       	mov	r28, r24
     db8:	88 e0       	ldi	r24, 0x08	; 8
     dba:	90 e0       	ldi	r25, 0x00	; 0
     dbc:	0e 94 23 2e 	call	0x5c46	; 0x5c46 <__eerd_byte_m328p>
     dc0:	90 e0       	ldi	r25, 0x00	; 0
     dc2:	8c 2b       	or	r24, r28
     dc4:	9d 2b       	or	r25, r29
     dc6:	f8 01       	movw	r30, r16
     dc8:	91 83       	std	Z+1, r25	; 0x01
     dca:	80 83       	st	Z, r24
     dcc:	89 e0       	ldi	r24, 0x09	; 9
     dce:	90 e0       	ldi	r25, 0x00	; 0
     dd0:	0e 94 23 2e 	call	0x5c46	; 0x5c46 <__eerd_byte_m328p>
     dd4:	d8 2f       	mov	r29, r24
     dd6:	f0 e0       	ldi	r31, 0x00	; 0
     dd8:	cf 2f       	mov	r28, r31
     dda:	8a e0       	ldi	r24, 0x0A	; 10
     ddc:	90 e0       	ldi	r25, 0x00	; 0
     dde:	0e 94 23 2e 	call	0x5c46	; 0x5c46 <__eerd_byte_m328p>
     de2:	90 e0       	ldi	r25, 0x00	; 0
     de4:	8c 2b       	or	r24, r28
     de6:	9d 2b       	or	r25, r29
     de8:	f8 01       	movw	r30, r16
     dea:	93 83       	std	Z+3, r25	; 0x03
     dec:	82 83       	std	Z+2, r24	; 0x02
     dee:	8b e0       	ldi	r24, 0x0B	; 11
     df0:	90 e0       	ldi	r25, 0x00	; 0
     df2:	0e 94 23 2e 	call	0x5c46	; 0x5c46 <__eerd_byte_m328p>
     df6:	d8 2f       	mov	r29, r24
     df8:	f0 e0       	ldi	r31, 0x00	; 0
     dfa:	cf 2f       	mov	r28, r31
     dfc:	8c e0       	ldi	r24, 0x0C	; 12
     dfe:	90 e0       	ldi	r25, 0x00	; 0
     e00:	0e 94 23 2e 	call	0x5c46	; 0x5c46 <__eerd_byte_m328p>
     e04:	90 e0       	ldi	r25, 0x00	; 0
     e06:	8c 2b       	or	r24, r28
     e08:	9d 2b       	or	r25, r29
     e0a:	f8 01       	movw	r30, r16
     e0c:	95 83       	std	Z+5, r25	; 0x05
     e0e:	84 83       	std	Z+4, r24	; 0x04
     e10:	df 91       	pop	r29
     e12:	cf 91       	pop	r28
     e14:	1f 91       	pop	r17
     e16:	0f 91       	pop	r16
     e18:	08 95       	ret

00000e1a <DrvEepromWriteGyro>:
     e1a:	1f 93       	push	r17
     e1c:	cf 93       	push	r28
     e1e:	df 93       	push	r29
     e20:	ec 01       	movw	r28, r24
     e22:	18 81       	ld	r17, Y
     e24:	69 81       	ldd	r22, Y+1	; 0x01
     e26:	87 e0       	ldi	r24, 0x07	; 7
     e28:	90 e0       	ldi	r25, 0x00	; 0
     e2a:	0e 94 31 2e 	call	0x5c62	; 0x5c62 <__eewr_byte_m328p>
     e2e:	88 e0       	ldi	r24, 0x08	; 8
     e30:	90 e0       	ldi	r25, 0x00	; 0
     e32:	61 2f       	mov	r22, r17
     e34:	0e 94 31 2e 	call	0x5c62	; 0x5c62 <__eewr_byte_m328p>
     e38:	1a 81       	ldd	r17, Y+2	; 0x02
     e3a:	6b 81       	ldd	r22, Y+3	; 0x03
     e3c:	89 e0       	ldi	r24, 0x09	; 9
     e3e:	90 e0       	ldi	r25, 0x00	; 0
     e40:	0e 94 31 2e 	call	0x5c62	; 0x5c62 <__eewr_byte_m328p>
     e44:	8a e0       	ldi	r24, 0x0A	; 10
     e46:	90 e0       	ldi	r25, 0x00	; 0
     e48:	61 2f       	mov	r22, r17
     e4a:	0e 94 31 2e 	call	0x5c62	; 0x5c62 <__eewr_byte_m328p>
     e4e:	1c 81       	ldd	r17, Y+4	; 0x04
     e50:	6d 81       	ldd	r22, Y+5	; 0x05
     e52:	8b e0       	ldi	r24, 0x0B	; 11
     e54:	90 e0       	ldi	r25, 0x00	; 0
     e56:	0e 94 31 2e 	call	0x5c62	; 0x5c62 <__eewr_byte_m328p>
     e5a:	8c e0       	ldi	r24, 0x0C	; 12
     e5c:	90 e0       	ldi	r25, 0x00	; 0
     e5e:	61 2f       	mov	r22, r17
     e60:	0e 94 31 2e 	call	0x5c62	; 0x5c62 <__eewr_byte_m328p>
     e64:	df 91       	pop	r29
     e66:	cf 91       	pop	r28
     e68:	1f 91       	pop	r17
     e6a:	08 95       	ret

00000e6c <DrvEepromReadPID>:
     e6c:	ef 92       	push	r14
     e6e:	ff 92       	push	r15
     e70:	0f 93       	push	r16
     e72:	1f 93       	push	r17
     e74:	cf 93       	push	r28
     e76:	df 93       	push	r29
     e78:	7b 01       	movw	r14, r22
     e7a:	8a 01       	movw	r16, r20
     e7c:	e9 01       	movw	r28, r18
     e7e:	88 23       	and	r24, r24
     e80:	79 f1       	breq	.+94     	; 0xee0 <DrvEepromReadPID+0x74>
     e82:	81 30       	cpi	r24, 0x01	; 1
     e84:	09 f4       	brne	.+2      	; 0xe88 <DrvEepromReadPID+0x1c>
     e86:	53 c0       	rjmp	.+166    	; 0xf2e <DrvEepromReadPID+0xc2>
     e88:	82 30       	cpi	r24, 0x02	; 2
     e8a:	09 f4       	brne	.+2      	; 0xe8e <DrvEepromReadPID+0x22>
     e8c:	77 c0       	rjmp	.+238    	; 0xf7c <DrvEepromReadPID+0x110>
     e8e:	83 30       	cpi	r24, 0x03	; 3
     e90:	01 f5       	brne	.+64     	; 0xed2 <DrvEepromReadPID+0x66>
     e92:	81 e3       	ldi	r24, 0x31	; 49
     e94:	90 e0       	ldi	r25, 0x00	; 0
     e96:	0e 94 2b 2e 	call	0x5c56	; 0x5c56 <__eerd_dword_m328p>
     e9a:	dc 01       	movw	r26, r24
     e9c:	cb 01       	movw	r24, r22
     e9e:	f7 01       	movw	r30, r14
     ea0:	80 83       	st	Z, r24
     ea2:	91 83       	std	Z+1, r25	; 0x01
     ea4:	a2 83       	std	Z+2, r26	; 0x02
     ea6:	b3 83       	std	Z+3, r27	; 0x03
     ea8:	85 e3       	ldi	r24, 0x35	; 53
     eaa:	90 e0       	ldi	r25, 0x00	; 0
     eac:	0e 94 2b 2e 	call	0x5c56	; 0x5c56 <__eerd_dword_m328p>
     eb0:	dc 01       	movw	r26, r24
     eb2:	cb 01       	movw	r24, r22
     eb4:	f8 01       	movw	r30, r16
     eb6:	80 83       	st	Z, r24
     eb8:	91 83       	std	Z+1, r25	; 0x01
     eba:	a2 83       	std	Z+2, r26	; 0x02
     ebc:	b3 83       	std	Z+3, r27	; 0x03
     ebe:	89 e3       	ldi	r24, 0x39	; 57
     ec0:	90 e0       	ldi	r25, 0x00	; 0
     ec2:	0e 94 2b 2e 	call	0x5c56	; 0x5c56 <__eerd_dword_m328p>
     ec6:	dc 01       	movw	r26, r24
     ec8:	cb 01       	movw	r24, r22
     eca:	88 83       	st	Y, r24
     ecc:	99 83       	std	Y+1, r25	; 0x01
     ece:	aa 83       	std	Y+2, r26	; 0x02
     ed0:	bb 83       	std	Y+3, r27	; 0x03
     ed2:	df 91       	pop	r29
     ed4:	cf 91       	pop	r28
     ed6:	1f 91       	pop	r17
     ed8:	0f 91       	pop	r16
     eda:	ff 90       	pop	r15
     edc:	ef 90       	pop	r14
     ede:	08 95       	ret
     ee0:	8d e0       	ldi	r24, 0x0D	; 13
     ee2:	90 e0       	ldi	r25, 0x00	; 0
     ee4:	0e 94 2b 2e 	call	0x5c56	; 0x5c56 <__eerd_dword_m328p>
     ee8:	dc 01       	movw	r26, r24
     eea:	cb 01       	movw	r24, r22
     eec:	f7 01       	movw	r30, r14
     eee:	80 83       	st	Z, r24
     ef0:	91 83       	std	Z+1, r25	; 0x01
     ef2:	a2 83       	std	Z+2, r26	; 0x02
     ef4:	b3 83       	std	Z+3, r27	; 0x03
     ef6:	81 e1       	ldi	r24, 0x11	; 17
     ef8:	90 e0       	ldi	r25, 0x00	; 0
     efa:	0e 94 2b 2e 	call	0x5c56	; 0x5c56 <__eerd_dword_m328p>
     efe:	dc 01       	movw	r26, r24
     f00:	cb 01       	movw	r24, r22
     f02:	f8 01       	movw	r30, r16
     f04:	80 83       	st	Z, r24
     f06:	91 83       	std	Z+1, r25	; 0x01
     f08:	a2 83       	std	Z+2, r26	; 0x02
     f0a:	b3 83       	std	Z+3, r27	; 0x03
     f0c:	85 e1       	ldi	r24, 0x15	; 21
     f0e:	90 e0       	ldi	r25, 0x00	; 0
     f10:	0e 94 2b 2e 	call	0x5c56	; 0x5c56 <__eerd_dword_m328p>
     f14:	dc 01       	movw	r26, r24
     f16:	cb 01       	movw	r24, r22
     f18:	88 83       	st	Y, r24
     f1a:	99 83       	std	Y+1, r25	; 0x01
     f1c:	aa 83       	std	Y+2, r26	; 0x02
     f1e:	bb 83       	std	Y+3, r27	; 0x03
     f20:	df 91       	pop	r29
     f22:	cf 91       	pop	r28
     f24:	1f 91       	pop	r17
     f26:	0f 91       	pop	r16
     f28:	ff 90       	pop	r15
     f2a:	ef 90       	pop	r14
     f2c:	08 95       	ret
     f2e:	89 e1       	ldi	r24, 0x19	; 25
     f30:	90 e0       	ldi	r25, 0x00	; 0
     f32:	0e 94 2b 2e 	call	0x5c56	; 0x5c56 <__eerd_dword_m328p>
     f36:	dc 01       	movw	r26, r24
     f38:	cb 01       	movw	r24, r22
     f3a:	f7 01       	movw	r30, r14
     f3c:	80 83       	st	Z, r24
     f3e:	91 83       	std	Z+1, r25	; 0x01
     f40:	a2 83       	std	Z+2, r26	; 0x02
     f42:	b3 83       	std	Z+3, r27	; 0x03
     f44:	8d e1       	ldi	r24, 0x1D	; 29
     f46:	90 e0       	ldi	r25, 0x00	; 0
     f48:	0e 94 2b 2e 	call	0x5c56	; 0x5c56 <__eerd_dword_m328p>
     f4c:	dc 01       	movw	r26, r24
     f4e:	cb 01       	movw	r24, r22
     f50:	f8 01       	movw	r30, r16
     f52:	80 83       	st	Z, r24
     f54:	91 83       	std	Z+1, r25	; 0x01
     f56:	a2 83       	std	Z+2, r26	; 0x02
     f58:	b3 83       	std	Z+3, r27	; 0x03
     f5a:	81 e2       	ldi	r24, 0x21	; 33
     f5c:	90 e0       	ldi	r25, 0x00	; 0
     f5e:	0e 94 2b 2e 	call	0x5c56	; 0x5c56 <__eerd_dword_m328p>
     f62:	dc 01       	movw	r26, r24
     f64:	cb 01       	movw	r24, r22
     f66:	88 83       	st	Y, r24
     f68:	99 83       	std	Y+1, r25	; 0x01
     f6a:	aa 83       	std	Y+2, r26	; 0x02
     f6c:	bb 83       	std	Y+3, r27	; 0x03
     f6e:	df 91       	pop	r29
     f70:	cf 91       	pop	r28
     f72:	1f 91       	pop	r17
     f74:	0f 91       	pop	r16
     f76:	ff 90       	pop	r15
     f78:	ef 90       	pop	r14
     f7a:	08 95       	ret
     f7c:	85 e2       	ldi	r24, 0x25	; 37
     f7e:	90 e0       	ldi	r25, 0x00	; 0
     f80:	0e 94 2b 2e 	call	0x5c56	; 0x5c56 <__eerd_dword_m328p>
     f84:	dc 01       	movw	r26, r24
     f86:	cb 01       	movw	r24, r22
     f88:	f7 01       	movw	r30, r14
     f8a:	80 83       	st	Z, r24
     f8c:	91 83       	std	Z+1, r25	; 0x01
     f8e:	a2 83       	std	Z+2, r26	; 0x02
     f90:	b3 83       	std	Z+3, r27	; 0x03
     f92:	89 e2       	ldi	r24, 0x29	; 41
     f94:	90 e0       	ldi	r25, 0x00	; 0
     f96:	0e 94 2b 2e 	call	0x5c56	; 0x5c56 <__eerd_dword_m328p>
     f9a:	dc 01       	movw	r26, r24
     f9c:	cb 01       	movw	r24, r22
     f9e:	f8 01       	movw	r30, r16
     fa0:	80 83       	st	Z, r24
     fa2:	91 83       	std	Z+1, r25	; 0x01
     fa4:	a2 83       	std	Z+2, r26	; 0x02
     fa6:	b3 83       	std	Z+3, r27	; 0x03
     fa8:	8d e2       	ldi	r24, 0x2D	; 45
     faa:	90 e0       	ldi	r25, 0x00	; 0
     fac:	0e 94 2b 2e 	call	0x5c56	; 0x5c56 <__eerd_dword_m328p>
     fb0:	dc 01       	movw	r26, r24
     fb2:	cb 01       	movw	r24, r22
     fb4:	88 83       	st	Y, r24
     fb6:	99 83       	std	Y+1, r25	; 0x01
     fb8:	aa 83       	std	Y+2, r26	; 0x02
     fba:	bb 83       	std	Y+3, r27	; 0x03
     fbc:	8a cf       	rjmp	.-236    	; 0xed2 <DrvEepromReadPID+0x66>

00000fbe <DrvEepromWritePID>:
     fbe:	8f 92       	push	r8
     fc0:	9f 92       	push	r9
     fc2:	af 92       	push	r10
     fc4:	bf 92       	push	r11
     fc6:	cf 92       	push	r12
     fc8:	df 92       	push	r13
     fca:	ef 92       	push	r14
     fcc:	ff 92       	push	r15
     fce:	0f 93       	push	r16
     fd0:	1f 93       	push	r17
     fd2:	48 01       	movw	r8, r16
     fd4:	59 01       	movw	r10, r18
     fd6:	88 23       	and	r24, r24
     fd8:	91 f0       	breq	.+36     	; 0xffe <DrvEepromWritePID+0x40>
     fda:	81 30       	cpi	r24, 0x01	; 1
     fdc:	91 f1       	breq	.+100    	; 0x1042 <DrvEepromWritePID+0x84>
     fde:	82 30       	cpi	r24, 0x02	; 2
     fe0:	09 f4       	brne	.+2      	; 0xfe4 <DrvEepromWritePID+0x26>
     fe2:	40 c0       	rjmp	.+128    	; 0x1064 <DrvEepromWritePID+0xa6>
     fe4:	83 30       	cpi	r24, 0x03	; 3
     fe6:	e1 f0       	breq	.+56     	; 0x1020 <DrvEepromWritePID+0x62>
     fe8:	1f 91       	pop	r17
     fea:	0f 91       	pop	r16
     fec:	ff 90       	pop	r15
     fee:	ef 90       	pop	r14
     ff0:	df 90       	pop	r13
     ff2:	cf 90       	pop	r12
     ff4:	bf 90       	pop	r11
     ff6:	af 90       	pop	r10
     ff8:	9f 90       	pop	r9
     ffa:	8f 90       	pop	r8
     ffc:	08 95       	ret
     ffe:	8d e0       	ldi	r24, 0x0D	; 13
    1000:	90 e0       	ldi	r25, 0x00	; 0
    1002:	0e 94 3f 2e 	call	0x5c7e	; 0x5c7e <__eewr_dword_m328p>
    1006:	81 e1       	ldi	r24, 0x11	; 17
    1008:	90 e0       	ldi	r25, 0x00	; 0
    100a:	b5 01       	movw	r22, r10
    100c:	a4 01       	movw	r20, r8
    100e:	0e 94 3f 2e 	call	0x5c7e	; 0x5c7e <__eewr_dword_m328p>
    1012:	85 e1       	ldi	r24, 0x15	; 21
    1014:	90 e0       	ldi	r25, 0x00	; 0
    1016:	b7 01       	movw	r22, r14
    1018:	a6 01       	movw	r20, r12
    101a:	0e 94 3f 2e 	call	0x5c7e	; 0x5c7e <__eewr_dword_m328p>
    101e:	e4 cf       	rjmp	.-56     	; 0xfe8 <DrvEepromWritePID+0x2a>
    1020:	81 e3       	ldi	r24, 0x31	; 49
    1022:	90 e0       	ldi	r25, 0x00	; 0
    1024:	0e 94 3f 2e 	call	0x5c7e	; 0x5c7e <__eewr_dword_m328p>
    1028:	81 e3       	ldi	r24, 0x31	; 49
    102a:	90 e0       	ldi	r25, 0x00	; 0
    102c:	b5 01       	movw	r22, r10
    102e:	a4 01       	movw	r20, r8
    1030:	0e 94 3f 2e 	call	0x5c7e	; 0x5c7e <__eewr_dword_m328p>
    1034:	81 e3       	ldi	r24, 0x31	; 49
    1036:	90 e0       	ldi	r25, 0x00	; 0
    1038:	b7 01       	movw	r22, r14
    103a:	a6 01       	movw	r20, r12
    103c:	0e 94 3f 2e 	call	0x5c7e	; 0x5c7e <__eewr_dword_m328p>
    1040:	d3 cf       	rjmp	.-90     	; 0xfe8 <DrvEepromWritePID+0x2a>
    1042:	89 e1       	ldi	r24, 0x19	; 25
    1044:	90 e0       	ldi	r25, 0x00	; 0
    1046:	0e 94 3f 2e 	call	0x5c7e	; 0x5c7e <__eewr_dword_m328p>
    104a:	8d e1       	ldi	r24, 0x1D	; 29
    104c:	90 e0       	ldi	r25, 0x00	; 0
    104e:	b5 01       	movw	r22, r10
    1050:	a4 01       	movw	r20, r8
    1052:	0e 94 3f 2e 	call	0x5c7e	; 0x5c7e <__eewr_dword_m328p>
    1056:	81 e2       	ldi	r24, 0x21	; 33
    1058:	90 e0       	ldi	r25, 0x00	; 0
    105a:	b7 01       	movw	r22, r14
    105c:	a6 01       	movw	r20, r12
    105e:	0e 94 3f 2e 	call	0x5c7e	; 0x5c7e <__eewr_dword_m328p>
    1062:	c2 cf       	rjmp	.-124    	; 0xfe8 <DrvEepromWritePID+0x2a>
    1064:	85 e2       	ldi	r24, 0x25	; 37
    1066:	90 e0       	ldi	r25, 0x00	; 0
    1068:	0e 94 3f 2e 	call	0x5c7e	; 0x5c7e <__eewr_dword_m328p>
    106c:	89 e2       	ldi	r24, 0x29	; 41
    106e:	90 e0       	ldi	r25, 0x00	; 0
    1070:	b5 01       	movw	r22, r10
    1072:	a4 01       	movw	r20, r8
    1074:	0e 94 3f 2e 	call	0x5c7e	; 0x5c7e <__eewr_dword_m328p>
    1078:	8d e2       	ldi	r24, 0x2D	; 45
    107a:	90 e0       	ldi	r25, 0x00	; 0
    107c:	b7 01       	movw	r22, r14
    107e:	a6 01       	movw	r20, r12
    1080:	0e 94 3f 2e 	call	0x5c7e	; 0x5c7e <__eewr_dword_m328p>
    1084:	b1 cf       	rjmp	.-158    	; 0xfe8 <DrvEepromWritePID+0x2a>

00001086 <DrvEventInit>:
    1086:	10 92 7f 01 	sts	0x017F, r1
    108a:	10 92 7e 01 	sts	0x017E, r1
    108e:	81 e0       	ldi	r24, 0x01	; 1
    1090:	08 95       	ret

00001092 <DrvEventGetEvent>:
    1092:	f8 94       	cli
    1094:	20 91 7e 01 	lds	r18, 0x017E
    1098:	30 91 7f 01 	lds	r19, 0x017F
    109c:	80 95       	com	r24
    109e:	90 95       	com	r25
    10a0:	82 23       	and	r24, r18
    10a2:	93 23       	and	r25, r19
    10a4:	90 93 7f 01 	sts	0x017F, r25
    10a8:	80 93 7e 01 	sts	0x017E, r24
    10ac:	78 94       	sei
    10ae:	80 91 7e 01 	lds	r24, 0x017E
    10b2:	90 91 7f 01 	lds	r25, 0x017F
    10b6:	08 95       	ret

000010b8 <DrvEventTestEvent>:
    10b8:	70 e0       	ldi	r23, 0x00	; 0
    10ba:	68 23       	and	r22, r24
    10bc:	79 23       	and	r23, r25
    10be:	81 e0       	ldi	r24, 0x01	; 1
    10c0:	61 15       	cp	r22, r1
    10c2:	71 05       	cpc	r23, r1
    10c4:	09 f4       	brne	.+2      	; 0x10c8 <DrvEventTestEvent+0x10>
    10c6:	80 e0       	ldi	r24, 0x00	; 0
    10c8:	08 95       	ret

000010ca <DrvEventAddEvent>:
    10ca:	20 91 7e 01 	lds	r18, 0x017E
    10ce:	30 91 7f 01 	lds	r19, 0x017F
    10d2:	28 2b       	or	r18, r24
    10d4:	39 2b       	or	r19, r25
    10d6:	30 93 7f 01 	sts	0x017F, r19
    10da:	20 93 7e 01 	sts	0x017E, r18
    10de:	81 e0       	ldi	r24, 0x01	; 1
    10e0:	08 95       	ret

000010e2 <DrvInterruptClearAllInterrupts>:
    10e2:	f8 94       	cli
    10e4:	08 95       	ret

000010e6 <DrvInterruptSetAllInterrupts>:
    10e6:	78 94       	sei
    10e8:	08 95       	ret

000010ea <DrvServo>:
    10ea:	10 92 81 01 	sts	0x0181, r1
    10ee:	10 92 80 01 	sts	0x0180, r1
    10f2:	8a ef       	ldi	r24, 0xFA	; 250
    10f4:	90 e0       	ldi	r25, 0x00	; 0
    10f6:	90 93 83 01 	sts	0x0183, r25
    10fa:	80 93 82 01 	sts	0x0182, r24
    10fe:	38 9a       	sbi	0x07, 0	; 7
    1100:	21 e0       	ldi	r18, 0x01	; 1
    1102:	30 e0       	ldi	r19, 0x00	; 0
    1104:	30 93 85 01 	sts	0x0185, r19
    1108:	20 93 84 01 	sts	0x0184, r18
    110c:	90 93 87 01 	sts	0x0187, r25
    1110:	80 93 86 01 	sts	0x0186, r24
    1114:	39 9a       	sbi	0x07, 1	; 7
    1116:	22 e0       	ldi	r18, 0x02	; 2
    1118:	30 e0       	ldi	r19, 0x00	; 0
    111a:	30 93 89 01 	sts	0x0189, r19
    111e:	20 93 88 01 	sts	0x0188, r18
    1122:	90 93 8b 01 	sts	0x018B, r25
    1126:	80 93 8a 01 	sts	0x018A, r24
    112a:	3a 9a       	sbi	0x07, 2	; 7
    112c:	23 e0       	ldi	r18, 0x03	; 3
    112e:	30 e0       	ldi	r19, 0x00	; 0
    1130:	30 93 8d 01 	sts	0x018D, r19
    1134:	20 93 8c 01 	sts	0x018C, r18
    1138:	90 93 8f 01 	sts	0x018F, r25
    113c:	80 93 8e 01 	sts	0x018E, r24
    1140:	3b 9a       	sbi	0x07, 3	; 7
    1142:	10 92 80 00 	sts	0x0080, r1
    1146:	e1 e8       	ldi	r30, 0x81	; 129
    1148:	f0 e0       	ldi	r31, 0x00	; 0
    114a:	80 81       	ld	r24, Z
    114c:	83 60       	ori	r24, 0x03	; 3
    114e:	80 83       	st	Z, r24
    1150:	ef e6       	ldi	r30, 0x6F	; 111
    1152:	f0 e0       	ldi	r31, 0x00	; 0
    1154:	80 81       	ld	r24, Z
    1156:	82 60       	ori	r24, 0x02	; 2
    1158:	80 83       	st	Z, r24
    115a:	10 92 85 00 	sts	0x0085, r1
    115e:	10 92 84 00 	sts	0x0084, r1
    1162:	81 e0       	ldi	r24, 0x01	; 1
    1164:	08 95       	ret

00001166 <DrvServoMoveToPosition>:
    1166:	cf 93       	push	r28
    1168:	df 93       	push	r29
    116a:	c8 2f       	mov	r28, r24
    116c:	d0 e0       	ldi	r29, 0x00	; 0
    116e:	80 e0       	ldi	r24, 0x00	; 0
    1170:	90 e0       	ldi	r25, 0x00	; 0
    1172:	0e 94 86 28 	call	0x510c	; 0x510c <__floatunsisf>
    1176:	20 e0       	ldi	r18, 0x00	; 0
    1178:	30 e0       	ldi	r19, 0x00	; 0
    117a:	4a e7       	ldi	r20, 0x7A	; 122
    117c:	54 e4       	ldi	r21, 0x44	; 68
    117e:	0e 94 a1 29 	call	0x5342	; 0x5342 <__mulsf3>
    1182:	20 e0       	ldi	r18, 0x00	; 0
    1184:	30 e0       	ldi	r19, 0x00	; 0
    1186:	4a e7       	ldi	r20, 0x7A	; 122
    1188:	54 e4       	ldi	r21, 0x44	; 68
    118a:	0e 94 ed 27 	call	0x4fda	; 0x4fda <__divsf3>
    118e:	20 e0       	ldi	r18, 0x00	; 0
    1190:	30 e0       	ldi	r19, 0x00	; 0
    1192:	4a e7       	ldi	r20, 0x7A	; 122
    1194:	54 e4       	ldi	r21, 0x44	; 68
    1196:	0e 94 20 27 	call	0x4e40	; 0x4e40 <__addsf3>
    119a:	20 e0       	ldi	r18, 0x00	; 0
    119c:	30 e0       	ldi	r19, 0x00	; 0
    119e:	40 e8       	ldi	r20, 0x80	; 128
    11a0:	5e e3       	ldi	r21, 0x3E	; 62
    11a2:	0e 94 a1 29 	call	0x5342	; 0x5342 <__mulsf3>
    11a6:	0e 94 5a 28 	call	0x50b4	; 0x50b4 <__fixunssfsi>
    11aa:	dc 01       	movw	r26, r24
    11ac:	cb 01       	movw	r24, r22
    11ae:	cc 0f       	add	r28, r28
    11b0:	dd 1f       	adc	r29, r29
    11b2:	cc 0f       	add	r28, r28
    11b4:	dd 1f       	adc	r29, r29
    11b6:	c0 58       	subi	r28, 0x80	; 128
    11b8:	de 4f       	sbci	r29, 0xFE	; 254
    11ba:	9b 83       	std	Y+3, r25	; 0x03
    11bc:	8a 83       	std	Y+2, r24	; 0x02
    11be:	81 e0       	ldi	r24, 0x01	; 1
    11c0:	df 91       	pop	r29
    11c2:	cf 91       	pop	r28
    11c4:	08 95       	ret

000011c6 <__vector_11>:
    11c6:	1f 92       	push	r1
    11c8:	0f 92       	push	r0
    11ca:	0f b6       	in	r0, 0x3f	; 63
    11cc:	0f 92       	push	r0
    11ce:	11 24       	eor	r1, r1
    11d0:	2f 93       	push	r18
    11d2:	3f 93       	push	r19
    11d4:	4f 93       	push	r20
    11d6:	8f 93       	push	r24
    11d8:	9f 93       	push	r25
    11da:	ef 93       	push	r30
    11dc:	ff 93       	push	r31
    11de:	80 91 01 01 	lds	r24, 0x0101
    11e2:	87 fd       	sbrc	r24, 7
    11e4:	6f c0       	rjmp	.+222    	; 0x12c4 <__vector_11+0xfe>
    11e6:	80 91 01 01 	lds	r24, 0x0101
    11ea:	84 30       	cpi	r24, 0x04	; 4
    11ec:	c8 f0       	brcs	.+50     	; 0x1220 <__vector_11+0x5a>
    11ee:	80 91 01 01 	lds	r24, 0x0101
    11f2:	8f 5f       	subi	r24, 0xFF	; 255
    11f4:	80 93 01 01 	sts	0x0101, r24
    11f8:	80 91 01 01 	lds	r24, 0x0101
    11fc:	84 30       	cpi	r24, 0x04	; 4
    11fe:	98 f1       	brcs	.+102    	; 0x1266 <__vector_11+0xa0>
    1200:	80 91 01 01 	lds	r24, 0x0101
    1204:	84 30       	cpi	r24, 0x04	; 4
    1206:	29 f1       	breq	.+74     	; 0x1252 <__vector_11+0x8c>
    1208:	ff 91       	pop	r31
    120a:	ef 91       	pop	r30
    120c:	9f 91       	pop	r25
    120e:	8f 91       	pop	r24
    1210:	4f 91       	pop	r20
    1212:	3f 91       	pop	r19
    1214:	2f 91       	pop	r18
    1216:	0f 90       	pop	r0
    1218:	0f be       	out	0x3f, r0	; 63
    121a:	0f 90       	pop	r0
    121c:	1f 90       	pop	r1
    121e:	18 95       	reti
    1220:	48 b1       	in	r20, 0x08	; 8
    1222:	e0 91 01 01 	lds	r30, 0x0101
    1226:	ff 27       	eor	r31, r31
    1228:	e7 fd       	sbrc	r30, 7
    122a:	f0 95       	com	r31
    122c:	ee 0f       	add	r30, r30
    122e:	ff 1f       	adc	r31, r31
    1230:	ee 0f       	add	r30, r30
    1232:	ff 1f       	adc	r31, r31
    1234:	e0 58       	subi	r30, 0x80	; 128
    1236:	fe 4f       	sbci	r31, 0xFE	; 254
    1238:	20 81       	ld	r18, Z
    123a:	31 81       	ldd	r19, Z+1	; 0x01
    123c:	81 e0       	ldi	r24, 0x01	; 1
    123e:	90 e0       	ldi	r25, 0x00	; 0
    1240:	02 c0       	rjmp	.+4      	; 0x1246 <__vector_11+0x80>
    1242:	88 0f       	add	r24, r24
    1244:	99 1f       	adc	r25, r25
    1246:	2a 95       	dec	r18
    1248:	e2 f7       	brpl	.-8      	; 0x1242 <__vector_11+0x7c>
    124a:	80 95       	com	r24
    124c:	84 23       	and	r24, r20
    124e:	88 b9       	out	0x08, r24	; 8
    1250:	ce cf       	rjmp	.-100    	; 0x11ee <__vector_11+0x28>
    1252:	88 e8       	ldi	r24, 0x88	; 136
    1254:	93 e1       	ldi	r25, 0x13	; 19
    1256:	90 93 89 00 	sts	0x0089, r25
    125a:	80 93 88 00 	sts	0x0088, r24
    125e:	8f ef       	ldi	r24, 0xFF	; 255
    1260:	80 93 01 01 	sts	0x0101, r24
    1264:	d1 cf       	rjmp	.-94     	; 0x1208 <__vector_11+0x42>
    1266:	20 91 84 00 	lds	r18, 0x0084
    126a:	30 91 85 00 	lds	r19, 0x0085
    126e:	e0 91 01 01 	lds	r30, 0x0101
    1272:	ff 27       	eor	r31, r31
    1274:	e7 fd       	sbrc	r30, 7
    1276:	f0 95       	com	r31
    1278:	ee 0f       	add	r30, r30
    127a:	ff 1f       	adc	r31, r31
    127c:	ee 0f       	add	r30, r30
    127e:	ff 1f       	adc	r31, r31
    1280:	e0 58       	subi	r30, 0x80	; 128
    1282:	fe 4f       	sbci	r31, 0xFE	; 254
    1284:	82 81       	ldd	r24, Z+2	; 0x02
    1286:	93 81       	ldd	r25, Z+3	; 0x03
    1288:	82 0f       	add	r24, r18
    128a:	93 1f       	adc	r25, r19
    128c:	90 93 89 00 	sts	0x0089, r25
    1290:	80 93 88 00 	sts	0x0088, r24
    1294:	48 b1       	in	r20, 0x08	; 8
    1296:	e0 91 01 01 	lds	r30, 0x0101
    129a:	ff 27       	eor	r31, r31
    129c:	e7 fd       	sbrc	r30, 7
    129e:	f0 95       	com	r31
    12a0:	ee 0f       	add	r30, r30
    12a2:	ff 1f       	adc	r31, r31
    12a4:	ee 0f       	add	r30, r30
    12a6:	ff 1f       	adc	r31, r31
    12a8:	e0 58       	subi	r30, 0x80	; 128
    12aa:	fe 4f       	sbci	r31, 0xFE	; 254
    12ac:	20 81       	ld	r18, Z
    12ae:	31 81       	ldd	r19, Z+1	; 0x01
    12b0:	81 e0       	ldi	r24, 0x01	; 1
    12b2:	90 e0       	ldi	r25, 0x00	; 0
    12b4:	02 c0       	rjmp	.+4      	; 0x12ba <__vector_11+0xf4>
    12b6:	88 0f       	add	r24, r24
    12b8:	99 1f       	adc	r25, r25
    12ba:	2a 95       	dec	r18
    12bc:	e2 f7       	brpl	.-8      	; 0x12b6 <__vector_11+0xf0>
    12be:	48 2b       	or	r20, r24
    12c0:	48 b9       	out	0x08, r20	; 8
    12c2:	a2 cf       	rjmp	.-188    	; 0x1208 <__vector_11+0x42>
    12c4:	10 92 85 00 	sts	0x0085, r1
    12c8:	10 92 84 00 	sts	0x0084, r1
    12cc:	90 cf       	rjmp	.-224    	; 0x11ee <__vector_11+0x28>

000012ce <DrvTickInit>:
    12ce:	10 92 94 01 	sts	0x0194, r1
    12d2:	10 92 95 01 	sts	0x0195, r1
    12d6:	10 92 96 01 	sts	0x0196, r1
    12da:	10 92 97 01 	sts	0x0197, r1
    12de:	14 bc       	out	0x24, r1	; 36
    12e0:	85 b5       	in	r24, 0x25	; 37
    12e2:	82 60       	ori	r24, 0x02	; 2
    12e4:	85 bd       	out	0x25, r24	; 37
    12e6:	16 bc       	out	0x26, r1	; 38
    12e8:	a9 9a       	sbi	0x15, 1	; 21
    12ea:	ee e6       	ldi	r30, 0x6E	; 110
    12ec:	f0 e0       	ldi	r31, 0x00	; 0
    12ee:	80 81       	ld	r24, Z
    12f0:	81 60       	ori	r24, 0x01	; 1
    12f2:	80 83       	st	Z, r24
    12f4:	08 95       	ret

000012f6 <DrvTimerGetTime>:
    12f6:	cf 92       	push	r12
    12f8:	df 92       	push	r13
    12fa:	ef 92       	push	r14
    12fc:	ff 92       	push	r15
    12fe:	cf 93       	push	r28
    1300:	f8 94       	cli
    1302:	80 91 94 01 	lds	r24, 0x0194
    1306:	90 91 95 01 	lds	r25, 0x0195
    130a:	a0 91 96 01 	lds	r26, 0x0196
    130e:	b0 91 97 01 	lds	r27, 0x0197
    1312:	c6 b5       	in	r28, 0x26	; 38
    1314:	78 94       	sei
    1316:	88 0f       	add	r24, r24
    1318:	99 1f       	adc	r25, r25
    131a:	aa 1f       	adc	r26, r26
    131c:	bb 1f       	adc	r27, r27
    131e:	88 0f       	add	r24, r24
    1320:	99 1f       	adc	r25, r25
    1322:	aa 1f       	adc	r26, r26
    1324:	bb 1f       	adc	r27, r27
    1326:	88 0f       	add	r24, r24
    1328:	99 1f       	adc	r25, r25
    132a:	aa 1f       	adc	r26, r26
    132c:	bb 1f       	adc	r27, r27
    132e:	88 0f       	add	r24, r24
    1330:	99 1f       	adc	r25, r25
    1332:	aa 1f       	adc	r26, r26
    1334:	bb 1f       	adc	r27, r27
    1336:	88 0f       	add	r24, r24
    1338:	99 1f       	adc	r25, r25
    133a:	aa 1f       	adc	r26, r26
    133c:	bb 1f       	adc	r27, r27
    133e:	88 0f       	add	r24, r24
    1340:	99 1f       	adc	r25, r25
    1342:	aa 1f       	adc	r26, r26
    1344:	bb 1f       	adc	r27, r27
    1346:	88 0f       	add	r24, r24
    1348:	99 1f       	adc	r25, r25
    134a:	aa 1f       	adc	r26, r26
    134c:	bb 1f       	adc	r27, r27
    134e:	bc 01       	movw	r22, r24
    1350:	cd 01       	movw	r24, r26
    1352:	0e 94 86 28 	call	0x510c	; 0x510c <__floatunsisf>
    1356:	6b 01       	movw	r12, r22
    1358:	7c 01       	movw	r14, r24
    135a:	6c 2f       	mov	r22, r28
    135c:	70 e0       	ldi	r23, 0x00	; 0
    135e:	80 e0       	ldi	r24, 0x00	; 0
    1360:	90 e0       	ldi	r25, 0x00	; 0
    1362:	0e 94 88 28 	call	0x5110	; 0x5110 <__floatsisf>
    1366:	20 e0       	ldi	r18, 0x00	; 0
    1368:	30 e0       	ldi	r19, 0x00	; 0
    136a:	40 e0       	ldi	r20, 0x00	; 0
    136c:	5f e3       	ldi	r21, 0x3F	; 63
    136e:	0e 94 a1 29 	call	0x5342	; 0x5342 <__mulsf3>
    1372:	9b 01       	movw	r18, r22
    1374:	ac 01       	movw	r20, r24
    1376:	c7 01       	movw	r24, r14
    1378:	b6 01       	movw	r22, r12
    137a:	0e 94 20 27 	call	0x4e40	; 0x4e40 <__addsf3>
    137e:	0e 94 5a 28 	call	0x50b4	; 0x50b4 <__fixunssfsi>
    1382:	cf 91       	pop	r28
    1384:	ff 90       	pop	r15
    1386:	ef 90       	pop	r14
    1388:	df 90       	pop	r13
    138a:	cf 90       	pop	r12
    138c:	08 95       	ret

0000138e <DrvTimerDelayMs>:
    138e:	4f 92       	push	r4
    1390:	5f 92       	push	r5
    1392:	6f 92       	push	r6
    1394:	7f 92       	push	r7
    1396:	8f 92       	push	r8
    1398:	9f 92       	push	r9
    139a:	af 92       	push	r10
    139c:	bf 92       	push	r11
    139e:	cf 92       	push	r12
    13a0:	df 92       	push	r13
    13a2:	ef 92       	push	r14
    13a4:	ff 92       	push	r15
    13a6:	cf 93       	push	r28
    13a8:	df 93       	push	r29
    13aa:	ec 01       	movw	r28, r24
    13ac:	f8 94       	cli
    13ae:	80 91 94 01 	lds	r24, 0x0194
    13b2:	90 91 95 01 	lds	r25, 0x0195
    13b6:	a0 91 96 01 	lds	r26, 0x0196
    13ba:	b0 91 97 01 	lds	r27, 0x0197
    13be:	86 b4       	in	r8, 0x26	; 38
    13c0:	88 0f       	add	r24, r24
    13c2:	99 1f       	adc	r25, r25
    13c4:	aa 1f       	adc	r26, r26
    13c6:	bb 1f       	adc	r27, r27
    13c8:	88 0f       	add	r24, r24
    13ca:	99 1f       	adc	r25, r25
    13cc:	aa 1f       	adc	r26, r26
    13ce:	bb 1f       	adc	r27, r27
    13d0:	88 0f       	add	r24, r24
    13d2:	99 1f       	adc	r25, r25
    13d4:	aa 1f       	adc	r26, r26
    13d6:	bb 1f       	adc	r27, r27
    13d8:	88 0f       	add	r24, r24
    13da:	99 1f       	adc	r25, r25
    13dc:	aa 1f       	adc	r26, r26
    13de:	bb 1f       	adc	r27, r27
    13e0:	88 0f       	add	r24, r24
    13e2:	99 1f       	adc	r25, r25
    13e4:	aa 1f       	adc	r26, r26
    13e6:	bb 1f       	adc	r27, r27
    13e8:	88 0f       	add	r24, r24
    13ea:	99 1f       	adc	r25, r25
    13ec:	aa 1f       	adc	r26, r26
    13ee:	bb 1f       	adc	r27, r27
    13f0:	88 0f       	add	r24, r24
    13f2:	99 1f       	adc	r25, r25
    13f4:	aa 1f       	adc	r26, r26
    13f6:	bb 1f       	adc	r27, r27
    13f8:	bc 01       	movw	r22, r24
    13fa:	cd 01       	movw	r24, r26
    13fc:	0e 94 86 28 	call	0x510c	; 0x510c <__floatunsisf>
    1400:	6b 01       	movw	r12, r22
    1402:	7c 01       	movw	r14, r24
    1404:	68 2d       	mov	r22, r8
    1406:	70 e0       	ldi	r23, 0x00	; 0
    1408:	80 e0       	ldi	r24, 0x00	; 0
    140a:	90 e0       	ldi	r25, 0x00	; 0
    140c:	0e 94 88 28 	call	0x5110	; 0x5110 <__floatsisf>
    1410:	20 e0       	ldi	r18, 0x00	; 0
    1412:	30 e0       	ldi	r19, 0x00	; 0
    1414:	40 e0       	ldi	r20, 0x00	; 0
    1416:	5f e3       	ldi	r21, 0x3F	; 63
    1418:	0e 94 a1 29 	call	0x5342	; 0x5342 <__mulsf3>
    141c:	9b 01       	movw	r18, r22
    141e:	ac 01       	movw	r20, r24
    1420:	c7 01       	movw	r24, r14
    1422:	b6 01       	movw	r22, r12
    1424:	0e 94 20 27 	call	0x4e40	; 0x4e40 <__addsf3>
    1428:	0e 94 5a 28 	call	0x50b4	; 0x50b4 <__fixunssfsi>
    142c:	ab 01       	movw	r20, r22
    142e:	bc 01       	movw	r22, r24
    1430:	78 94       	sei
    1432:	40 93 90 01 	sts	0x0190, r20
    1436:	50 93 91 01 	sts	0x0191, r21
    143a:	60 93 92 01 	sts	0x0192, r22
    143e:	70 93 93 01 	sts	0x0193, r23
    1442:	88 ee       	ldi	r24, 0xE8	; 232
    1444:	93 e0       	ldi	r25, 0x03	; 3
    1446:	c8 9f       	mul	r28, r24
    1448:	20 01       	movw	r4, r0
    144a:	c9 9f       	mul	r28, r25
    144c:	50 0c       	add	r5, r0
    144e:	d8 9f       	mul	r29, r24
    1450:	50 0c       	add	r5, r0
    1452:	11 24       	eor	r1, r1
    1454:	66 24       	eor	r6, r6
    1456:	77 24       	eor	r7, r7
    1458:	f8 94       	cli
    145a:	80 91 94 01 	lds	r24, 0x0194
    145e:	90 91 95 01 	lds	r25, 0x0195
    1462:	a0 91 96 01 	lds	r26, 0x0196
    1466:	b0 91 97 01 	lds	r27, 0x0197
    146a:	c6 b5       	in	r28, 0x26	; 38
    146c:	78 94       	sei
    146e:	c0 90 90 01 	lds	r12, 0x0190
    1472:	d0 90 91 01 	lds	r13, 0x0191
    1476:	e0 90 92 01 	lds	r14, 0x0192
    147a:	f0 90 93 01 	lds	r15, 0x0193
    147e:	c4 0c       	add	r12, r4
    1480:	d5 1c       	adc	r13, r5
    1482:	e6 1c       	adc	r14, r6
    1484:	f7 1c       	adc	r15, r7
    1486:	88 0f       	add	r24, r24
    1488:	99 1f       	adc	r25, r25
    148a:	aa 1f       	adc	r26, r26
    148c:	bb 1f       	adc	r27, r27
    148e:	88 0f       	add	r24, r24
    1490:	99 1f       	adc	r25, r25
    1492:	aa 1f       	adc	r26, r26
    1494:	bb 1f       	adc	r27, r27
    1496:	88 0f       	add	r24, r24
    1498:	99 1f       	adc	r25, r25
    149a:	aa 1f       	adc	r26, r26
    149c:	bb 1f       	adc	r27, r27
    149e:	88 0f       	add	r24, r24
    14a0:	99 1f       	adc	r25, r25
    14a2:	aa 1f       	adc	r26, r26
    14a4:	bb 1f       	adc	r27, r27
    14a6:	88 0f       	add	r24, r24
    14a8:	99 1f       	adc	r25, r25
    14aa:	aa 1f       	adc	r26, r26
    14ac:	bb 1f       	adc	r27, r27
    14ae:	88 0f       	add	r24, r24
    14b0:	99 1f       	adc	r25, r25
    14b2:	aa 1f       	adc	r26, r26
    14b4:	bb 1f       	adc	r27, r27
    14b6:	88 0f       	add	r24, r24
    14b8:	99 1f       	adc	r25, r25
    14ba:	aa 1f       	adc	r26, r26
    14bc:	bb 1f       	adc	r27, r27
    14be:	bc 01       	movw	r22, r24
    14c0:	cd 01       	movw	r24, r26
    14c2:	0e 94 86 28 	call	0x510c	; 0x510c <__floatunsisf>
    14c6:	4b 01       	movw	r8, r22
    14c8:	5c 01       	movw	r10, r24
    14ca:	6c 2f       	mov	r22, r28
    14cc:	70 e0       	ldi	r23, 0x00	; 0
    14ce:	80 e0       	ldi	r24, 0x00	; 0
    14d0:	90 e0       	ldi	r25, 0x00	; 0
    14d2:	0e 94 88 28 	call	0x5110	; 0x5110 <__floatsisf>
    14d6:	20 e0       	ldi	r18, 0x00	; 0
    14d8:	30 e0       	ldi	r19, 0x00	; 0
    14da:	40 e0       	ldi	r20, 0x00	; 0
    14dc:	5f e3       	ldi	r21, 0x3F	; 63
    14de:	0e 94 a1 29 	call	0x5342	; 0x5342 <__mulsf3>
    14e2:	9b 01       	movw	r18, r22
    14e4:	ac 01       	movw	r20, r24
    14e6:	c5 01       	movw	r24, r10
    14e8:	b4 01       	movw	r22, r8
    14ea:	0e 94 20 27 	call	0x4e40	; 0x4e40 <__addsf3>
    14ee:	0e 94 5a 28 	call	0x50b4	; 0x50b4 <__fixunssfsi>
    14f2:	dc 01       	movw	r26, r24
    14f4:	cb 01       	movw	r24, r22
    14f6:	8c 15       	cp	r24, r12
    14f8:	9d 05       	cpc	r25, r13
    14fa:	ae 05       	cpc	r26, r14
    14fc:	bf 05       	cpc	r27, r15
    14fe:	08 f4       	brcc	.+2      	; 0x1502 <DrvTimerDelayMs+0x174>
    1500:	ab cf       	rjmp	.-170    	; 0x1458 <DrvTimerDelayMs+0xca>
    1502:	df 91       	pop	r29
    1504:	cf 91       	pop	r28
    1506:	ff 90       	pop	r15
    1508:	ef 90       	pop	r14
    150a:	df 90       	pop	r13
    150c:	cf 90       	pop	r12
    150e:	bf 90       	pop	r11
    1510:	af 90       	pop	r10
    1512:	9f 90       	pop	r9
    1514:	8f 90       	pop	r8
    1516:	7f 90       	pop	r7
    1518:	6f 90       	pop	r6
    151a:	5f 90       	pop	r5
    151c:	4f 90       	pop	r4
    151e:	08 95       	ret

00001520 <DrvTimerDelayUs>:
    1520:	4f 92       	push	r4
    1522:	5f 92       	push	r5
    1524:	6f 92       	push	r6
    1526:	7f 92       	push	r7
    1528:	8f 92       	push	r8
    152a:	9f 92       	push	r9
    152c:	af 92       	push	r10
    152e:	bf 92       	push	r11
    1530:	cf 92       	push	r12
    1532:	df 92       	push	r13
    1534:	ef 92       	push	r14
    1536:	ff 92       	push	r15
    1538:	cf 93       	push	r28
    153a:	2c 01       	movw	r4, r24
    153c:	f8 94       	cli
    153e:	80 91 94 01 	lds	r24, 0x0194
    1542:	90 91 95 01 	lds	r25, 0x0195
    1546:	a0 91 96 01 	lds	r26, 0x0196
    154a:	b0 91 97 01 	lds	r27, 0x0197
    154e:	c6 b5       	in	r28, 0x26	; 38
    1550:	88 0f       	add	r24, r24
    1552:	99 1f       	adc	r25, r25
    1554:	aa 1f       	adc	r26, r26
    1556:	bb 1f       	adc	r27, r27
    1558:	88 0f       	add	r24, r24
    155a:	99 1f       	adc	r25, r25
    155c:	aa 1f       	adc	r26, r26
    155e:	bb 1f       	adc	r27, r27
    1560:	88 0f       	add	r24, r24
    1562:	99 1f       	adc	r25, r25
    1564:	aa 1f       	adc	r26, r26
    1566:	bb 1f       	adc	r27, r27
    1568:	88 0f       	add	r24, r24
    156a:	99 1f       	adc	r25, r25
    156c:	aa 1f       	adc	r26, r26
    156e:	bb 1f       	adc	r27, r27
    1570:	88 0f       	add	r24, r24
    1572:	99 1f       	adc	r25, r25
    1574:	aa 1f       	adc	r26, r26
    1576:	bb 1f       	adc	r27, r27
    1578:	88 0f       	add	r24, r24
    157a:	99 1f       	adc	r25, r25
    157c:	aa 1f       	adc	r26, r26
    157e:	bb 1f       	adc	r27, r27
    1580:	88 0f       	add	r24, r24
    1582:	99 1f       	adc	r25, r25
    1584:	aa 1f       	adc	r26, r26
    1586:	bb 1f       	adc	r27, r27
    1588:	bc 01       	movw	r22, r24
    158a:	cd 01       	movw	r24, r26
    158c:	0e 94 86 28 	call	0x510c	; 0x510c <__floatunsisf>
    1590:	6b 01       	movw	r12, r22
    1592:	7c 01       	movw	r14, r24
    1594:	6c 2f       	mov	r22, r28
    1596:	70 e0       	ldi	r23, 0x00	; 0
    1598:	80 e0       	ldi	r24, 0x00	; 0
    159a:	90 e0       	ldi	r25, 0x00	; 0
    159c:	0e 94 88 28 	call	0x5110	; 0x5110 <__floatsisf>
    15a0:	20 e0       	ldi	r18, 0x00	; 0
    15a2:	30 e0       	ldi	r19, 0x00	; 0
    15a4:	40 e0       	ldi	r20, 0x00	; 0
    15a6:	5f e3       	ldi	r21, 0x3F	; 63
    15a8:	0e 94 a1 29 	call	0x5342	; 0x5342 <__mulsf3>
    15ac:	9b 01       	movw	r18, r22
    15ae:	ac 01       	movw	r20, r24
    15b0:	c7 01       	movw	r24, r14
    15b2:	b6 01       	movw	r22, r12
    15b4:	0e 94 20 27 	call	0x4e40	; 0x4e40 <__addsf3>
    15b8:	0e 94 5a 28 	call	0x50b4	; 0x50b4 <__fixunssfsi>
    15bc:	ab 01       	movw	r20, r22
    15be:	bc 01       	movw	r22, r24
    15c0:	78 94       	sei
    15c2:	40 93 90 01 	sts	0x0190, r20
    15c6:	50 93 91 01 	sts	0x0191, r21
    15ca:	60 93 92 01 	sts	0x0192, r22
    15ce:	70 93 93 01 	sts	0x0193, r23
    15d2:	66 24       	eor	r6, r6
    15d4:	77 24       	eor	r7, r7
    15d6:	f8 94       	cli
    15d8:	80 91 94 01 	lds	r24, 0x0194
    15dc:	90 91 95 01 	lds	r25, 0x0195
    15e0:	a0 91 96 01 	lds	r26, 0x0196
    15e4:	b0 91 97 01 	lds	r27, 0x0197
    15e8:	c6 b5       	in	r28, 0x26	; 38
    15ea:	78 94       	sei
    15ec:	c0 90 90 01 	lds	r12, 0x0190
    15f0:	d0 90 91 01 	lds	r13, 0x0191
    15f4:	e0 90 92 01 	lds	r14, 0x0192
    15f8:	f0 90 93 01 	lds	r15, 0x0193
    15fc:	c4 0c       	add	r12, r4
    15fe:	d5 1c       	adc	r13, r5
    1600:	e6 1c       	adc	r14, r6
    1602:	f7 1c       	adc	r15, r7
    1604:	88 0f       	add	r24, r24
    1606:	99 1f       	adc	r25, r25
    1608:	aa 1f       	adc	r26, r26
    160a:	bb 1f       	adc	r27, r27
    160c:	88 0f       	add	r24, r24
    160e:	99 1f       	adc	r25, r25
    1610:	aa 1f       	adc	r26, r26
    1612:	bb 1f       	adc	r27, r27
    1614:	88 0f       	add	r24, r24
    1616:	99 1f       	adc	r25, r25
    1618:	aa 1f       	adc	r26, r26
    161a:	bb 1f       	adc	r27, r27
    161c:	88 0f       	add	r24, r24
    161e:	99 1f       	adc	r25, r25
    1620:	aa 1f       	adc	r26, r26
    1622:	bb 1f       	adc	r27, r27
    1624:	88 0f       	add	r24, r24
    1626:	99 1f       	adc	r25, r25
    1628:	aa 1f       	adc	r26, r26
    162a:	bb 1f       	adc	r27, r27
    162c:	88 0f       	add	r24, r24
    162e:	99 1f       	adc	r25, r25
    1630:	aa 1f       	adc	r26, r26
    1632:	bb 1f       	adc	r27, r27
    1634:	88 0f       	add	r24, r24
    1636:	99 1f       	adc	r25, r25
    1638:	aa 1f       	adc	r26, r26
    163a:	bb 1f       	adc	r27, r27
    163c:	bc 01       	movw	r22, r24
    163e:	cd 01       	movw	r24, r26
    1640:	0e 94 86 28 	call	0x510c	; 0x510c <__floatunsisf>
    1644:	4b 01       	movw	r8, r22
    1646:	5c 01       	movw	r10, r24
    1648:	6c 2f       	mov	r22, r28
    164a:	70 e0       	ldi	r23, 0x00	; 0
    164c:	80 e0       	ldi	r24, 0x00	; 0
    164e:	90 e0       	ldi	r25, 0x00	; 0
    1650:	0e 94 88 28 	call	0x5110	; 0x5110 <__floatsisf>
    1654:	20 e0       	ldi	r18, 0x00	; 0
    1656:	30 e0       	ldi	r19, 0x00	; 0
    1658:	40 e0       	ldi	r20, 0x00	; 0
    165a:	5f e3       	ldi	r21, 0x3F	; 63
    165c:	0e 94 a1 29 	call	0x5342	; 0x5342 <__mulsf3>
    1660:	9b 01       	movw	r18, r22
    1662:	ac 01       	movw	r20, r24
    1664:	c5 01       	movw	r24, r10
    1666:	b4 01       	movw	r22, r8
    1668:	0e 94 20 27 	call	0x4e40	; 0x4e40 <__addsf3>
    166c:	0e 94 5a 28 	call	0x50b4	; 0x50b4 <__fixunssfsi>
    1670:	dc 01       	movw	r26, r24
    1672:	cb 01       	movw	r24, r22
    1674:	8c 15       	cp	r24, r12
    1676:	9d 05       	cpc	r25, r13
    1678:	ae 05       	cpc	r26, r14
    167a:	bf 05       	cpc	r27, r15
    167c:	08 f4       	brcc	.+2      	; 0x1680 <DrvTimerDelayUs+0x160>
    167e:	ab cf       	rjmp	.-170    	; 0x15d6 <DrvTimerDelayUs+0xb6>
    1680:	cf 91       	pop	r28
    1682:	ff 90       	pop	r15
    1684:	ef 90       	pop	r14
    1686:	df 90       	pop	r13
    1688:	cf 90       	pop	r12
    168a:	bf 90       	pop	r11
    168c:	af 90       	pop	r10
    168e:	9f 90       	pop	r9
    1690:	8f 90       	pop	r8
    1692:	7f 90       	pop	r7
    1694:	6f 90       	pop	r6
    1696:	5f 90       	pop	r5
    1698:	4f 90       	pop	r4
    169a:	08 95       	ret

0000169c <__vector_16>:
    169c:	1f 92       	push	r1
    169e:	0f 92       	push	r0
    16a0:	0f b6       	in	r0, 0x3f	; 63
    16a2:	0f 92       	push	r0
    16a4:	11 24       	eor	r1, r1
    16a6:	8f 93       	push	r24
    16a8:	9f 93       	push	r25
    16aa:	af 93       	push	r26
    16ac:	bf 93       	push	r27
    16ae:	80 91 94 01 	lds	r24, 0x0194
    16b2:	90 91 95 01 	lds	r25, 0x0195
    16b6:	a0 91 96 01 	lds	r26, 0x0196
    16ba:	b0 91 97 01 	lds	r27, 0x0197
    16be:	01 96       	adiw	r24, 0x01	; 1
    16c0:	a1 1d       	adc	r26, r1
    16c2:	b1 1d       	adc	r27, r1
    16c4:	80 93 94 01 	sts	0x0194, r24
    16c8:	90 93 95 01 	sts	0x0195, r25
    16cc:	a0 93 96 01 	sts	0x0196, r26
    16d0:	b0 93 97 01 	sts	0x0197, r27
    16d4:	bf 91       	pop	r27
    16d6:	af 91       	pop	r26
    16d8:	9f 91       	pop	r25
    16da:	8f 91       	pop	r24
    16dc:	0f 90       	pop	r0
    16de:	0f be       	out	0x3f, r0	; 63
    16e0:	0f 90       	pop	r0
    16e2:	1f 90       	pop	r1
    16e4:	18 95       	reti

000016e6 <DrvTwiInit>:
    16e6:	10 92 b9 00 	sts	0x00B9, r1
    16ea:	8c e0       	ldi	r24, 0x0C	; 12
    16ec:	80 93 b8 00 	sts	0x00B8, r24
    16f0:	84 e0       	ldi	r24, 0x04	; 4
    16f2:	80 93 bc 00 	sts	0x00BC, r24
    16f6:	08 95       	ret

000016f8 <DrvTwiRepStart>:
    16f8:	94 ea       	ldi	r25, 0xA4	; 164
    16fa:	90 93 bc 00 	sts	0x00BC, r25
    16fe:	2f ef       	ldi	r18, 0xFF	; 255
    1700:	30 e0       	ldi	r19, 0x00	; 0
    1702:	03 c0       	rjmp	.+6      	; 0x170a <DrvTwiRepStart+0x12>
    1704:	21 50       	subi	r18, 0x01	; 1
    1706:	30 40       	sbci	r19, 0x00	; 0
    1708:	99 f0       	breq	.+38     	; 0x1730 <DrvTwiRepStart+0x38>
    170a:	90 91 bc 00 	lds	r25, 0x00BC
    170e:	97 ff       	sbrs	r25, 7
    1710:	f9 cf       	rjmp	.-14     	; 0x1704 <DrvTwiRepStart+0xc>
    1712:	80 93 bb 00 	sts	0x00BB, r24
    1716:	84 e8       	ldi	r24, 0x84	; 132
    1718:	80 93 bc 00 	sts	0x00BC, r24
    171c:	8f ef       	ldi	r24, 0xFF	; 255
    171e:	90 e0       	ldi	r25, 0x00	; 0
    1720:	02 c0       	rjmp	.+4      	; 0x1726 <DrvTwiRepStart+0x2e>
    1722:	01 97       	sbiw	r24, 0x01	; 1
    1724:	41 f0       	breq	.+16     	; 0x1736 <DrvTwiRepStart+0x3e>
    1726:	20 91 bc 00 	lds	r18, 0x00BC
    172a:	27 ff       	sbrs	r18, 7
    172c:	fa cf       	rjmp	.-12     	; 0x1722 <DrvTwiRepStart+0x2a>
    172e:	08 95       	ret
    1730:	10 92 bc 00 	sts	0x00BC, r1
    1734:	ee cf       	rjmp	.-36     	; 0x1712 <DrvTwiRepStart+0x1a>
    1736:	10 92 bc 00 	sts	0x00BC, r1
    173a:	08 95       	ret

0000173c <DrvTwiStop>:
    173c:	84 e9       	ldi	r24, 0x94	; 148
    173e:	80 93 bc 00 	sts	0x00BC, r24
    1742:	08 95       	ret

00001744 <DrvTwiWrite>:
    1744:	80 93 bb 00 	sts	0x00BB, r24
    1748:	84 e8       	ldi	r24, 0x84	; 132
    174a:	80 93 bc 00 	sts	0x00BC, r24
    174e:	8f ef       	ldi	r24, 0xFF	; 255
    1750:	90 e0       	ldi	r25, 0x00	; 0
    1752:	02 c0       	rjmp	.+4      	; 0x1758 <DrvTwiWrite+0x14>
    1754:	01 97       	sbiw	r24, 0x01	; 1
    1756:	29 f0       	breq	.+10     	; 0x1762 <DrvTwiWrite+0x1e>
    1758:	20 91 bc 00 	lds	r18, 0x00BC
    175c:	27 ff       	sbrs	r18, 7
    175e:	fa cf       	rjmp	.-12     	; 0x1754 <DrvTwiWrite+0x10>
    1760:	08 95       	ret
    1762:	10 92 bc 00 	sts	0x00BC, r1
    1766:	08 95       	ret

00001768 <DrvTwiRead>:
    1768:	88 23       	and	r24, r24
    176a:	b1 f0       	breq	.+44     	; 0x1798 <DrvTwiRead+0x30>
    176c:	94 ec       	ldi	r25, 0xC4	; 196
    176e:	90 93 bc 00 	sts	0x00BC, r25
    1772:	2f ef       	ldi	r18, 0xFF	; 255
    1774:	30 e0       	ldi	r19, 0x00	; 0
    1776:	03 c0       	rjmp	.+6      	; 0x177e <DrvTwiRead+0x16>
    1778:	21 50       	subi	r18, 0x01	; 1
    177a:	30 40       	sbci	r19, 0x00	; 0
    177c:	79 f0       	breq	.+30     	; 0x179c <DrvTwiRead+0x34>
    177e:	90 91 bc 00 	lds	r25, 0x00BC
    1782:	97 ff       	sbrs	r25, 7
    1784:	f9 cf       	rjmp	.-14     	; 0x1778 <DrvTwiRead+0x10>
    1786:	90 91 bb 00 	lds	r25, 0x00BB
    178a:	88 23       	and	r24, r24
    178c:	19 f4       	brne	.+6      	; 0x1794 <DrvTwiRead+0x2c>
    178e:	84 e9       	ldi	r24, 0x94	; 148
    1790:	80 93 bc 00 	sts	0x00BC, r24
    1794:	89 2f       	mov	r24, r25
    1796:	08 95       	ret
    1798:	94 e8       	ldi	r25, 0x84	; 132
    179a:	e9 cf       	rjmp	.-46     	; 0x176e <DrvTwiRead+0x6>
    179c:	10 92 bc 00 	sts	0x00BC, r1
    17a0:	f2 cf       	rjmp	.-28     	; 0x1786 <DrvTwiRead+0x1e>

000017a2 <DrvTwiReadAck>:
    17a2:	84 ec       	ldi	r24, 0xC4	; 196
    17a4:	80 93 bc 00 	sts	0x00BC, r24
    17a8:	8f ef       	ldi	r24, 0xFF	; 255
    17aa:	90 e0       	ldi	r25, 0x00	; 0
    17ac:	02 c0       	rjmp	.+4      	; 0x17b2 <DrvTwiReadAck+0x10>
    17ae:	01 97       	sbiw	r24, 0x01	; 1
    17b0:	39 f0       	breq	.+14     	; 0x17c0 <DrvTwiReadAck+0x1e>
    17b2:	20 91 bc 00 	lds	r18, 0x00BC
    17b6:	27 ff       	sbrs	r18, 7
    17b8:	fa cf       	rjmp	.-12     	; 0x17ae <DrvTwiReadAck+0xc>
    17ba:	80 91 bb 00 	lds	r24, 0x00BB
    17be:	08 95       	ret
    17c0:	10 92 bc 00 	sts	0x00BC, r1
    17c4:	80 91 bb 00 	lds	r24, 0x00BB
    17c8:	08 95       	ret

000017ca <DrvTwireadNak>:
    17ca:	84 e8       	ldi	r24, 0x84	; 132
    17cc:	80 93 bc 00 	sts	0x00BC, r24
    17d0:	8f ef       	ldi	r24, 0xFF	; 255
    17d2:	90 e0       	ldi	r25, 0x00	; 0
    17d4:	02 c0       	rjmp	.+4      	; 0x17da <DrvTwireadNak+0x10>
    17d6:	01 97       	sbiw	r24, 0x01	; 1
    17d8:	51 f0       	breq	.+20     	; 0x17ee <DrvTwireadNak+0x24>
    17da:	20 91 bc 00 	lds	r18, 0x00BC
    17de:	27 ff       	sbrs	r18, 7
    17e0:	fa cf       	rjmp	.-12     	; 0x17d6 <DrvTwireadNak+0xc>
    17e2:	80 91 bb 00 	lds	r24, 0x00BB
    17e6:	94 e9       	ldi	r25, 0x94	; 148
    17e8:	90 93 bc 00 	sts	0x00BC, r25
    17ec:	08 95       	ret
    17ee:	10 92 bc 00 	sts	0x00BC, r1
    17f2:	80 91 bb 00 	lds	r24, 0x00BB
    17f6:	94 e9       	ldi	r25, 0x94	; 148
    17f8:	90 93 bc 00 	sts	0x00BC, r25
    17fc:	08 95       	ret

000017fe <WaitTransmissionI2C>:
    17fe:	8f ef       	ldi	r24, 0xFF	; 255
    1800:	90 e0       	ldi	r25, 0x00	; 0
    1802:	02 c0       	rjmp	.+4      	; 0x1808 <WaitTransmissionI2C+0xa>
    1804:	01 97       	sbiw	r24, 0x01	; 1
    1806:	29 f0       	breq	.+10     	; 0x1812 <WaitTransmissionI2C+0x14>
    1808:	20 91 bc 00 	lds	r18, 0x00BC
    180c:	27 ff       	sbrs	r18, 7
    180e:	fa cf       	rjmp	.-12     	; 0x1804 <WaitTransmissionI2C+0x6>
    1810:	08 95       	ret
    1812:	10 92 bc 00 	sts	0x00BC, r1
    1816:	08 95       	ret

00001818 <DrvTwiReadToBuf>:
    1818:	88 0f       	add	r24, r24
    181a:	81 60       	ori	r24, 0x01	; 1
    181c:	94 ea       	ldi	r25, 0xA4	; 164
    181e:	90 93 bc 00 	sts	0x00BC, r25
    1822:	2f ef       	ldi	r18, 0xFF	; 255
    1824:	30 e0       	ldi	r19, 0x00	; 0
    1826:	04 c0       	rjmp	.+8      	; 0x1830 <DrvTwiReadToBuf+0x18>
    1828:	21 50       	subi	r18, 0x01	; 1
    182a:	30 40       	sbci	r19, 0x00	; 0
    182c:	09 f4       	brne	.+2      	; 0x1830 <DrvTwiReadToBuf+0x18>
    182e:	3b c0       	rjmp	.+118    	; 0x18a6 <DrvTwiReadToBuf+0x8e>
    1830:	90 91 bc 00 	lds	r25, 0x00BC
    1834:	97 ff       	sbrs	r25, 7
    1836:	f8 cf       	rjmp	.-16     	; 0x1828 <DrvTwiReadToBuf+0x10>
    1838:	80 93 bb 00 	sts	0x00BB, r24
    183c:	84 e8       	ldi	r24, 0x84	; 132
    183e:	80 93 bc 00 	sts	0x00BC, r24
    1842:	2f ef       	ldi	r18, 0xFF	; 255
    1844:	30 e0       	ldi	r19, 0x00	; 0
    1846:	03 c0       	rjmp	.+6      	; 0x184e <DrvTwiReadToBuf+0x36>
    1848:	21 50       	subi	r18, 0x01	; 1
    184a:	30 40       	sbci	r19, 0x00	; 0
    184c:	79 f1       	breq	.+94     	; 0x18ac <DrvTwiReadToBuf+0x94>
    184e:	80 91 bc 00 	lds	r24, 0x00BC
    1852:	87 ff       	sbrs	r24, 7
    1854:	f9 cf       	rjmp	.-14     	; 0x1848 <DrvTwiReadToBuf+0x30>
    1856:	44 23       	and	r20, r20
    1858:	69 f1       	breq	.+90     	; 0x18b4 <DrvTwiReadToBuf+0x9c>
    185a:	84 2f       	mov	r24, r20
    185c:	fb 01       	movw	r30, r22
    185e:	64 e9       	ldi	r22, 0x94	; 148
    1860:	98 2f       	mov	r25, r24
    1862:	91 50       	subi	r25, 0x01	; 1
    1864:	51 e0       	ldi	r21, 0x01	; 1
    1866:	d1 f4       	brne	.+52     	; 0x189c <DrvTwiReadToBuf+0x84>
    1868:	50 e0       	ldi	r21, 0x00	; 0
    186a:	84 e8       	ldi	r24, 0x84	; 132
    186c:	80 93 bc 00 	sts	0x00BC, r24
    1870:	2f ef       	ldi	r18, 0xFF	; 255
    1872:	30 e0       	ldi	r19, 0x00	; 0
    1874:	03 c0       	rjmp	.+6      	; 0x187c <DrvTwiReadToBuf+0x64>
    1876:	21 50       	subi	r18, 0x01	; 1
    1878:	30 40       	sbci	r19, 0x00	; 0
    187a:	91 f0       	breq	.+36     	; 0x18a0 <DrvTwiReadToBuf+0x88>
    187c:	80 91 bc 00 	lds	r24, 0x00BC
    1880:	87 ff       	sbrs	r24, 7
    1882:	f9 cf       	rjmp	.-14     	; 0x1876 <DrvTwiReadToBuf+0x5e>
    1884:	80 91 bb 00 	lds	r24, 0x00BB
    1888:	55 23       	and	r21, r21
    188a:	11 f4       	brne	.+4      	; 0x1890 <DrvTwiReadToBuf+0x78>
    188c:	60 93 bc 00 	sts	0x00BC, r22
    1890:	81 93       	st	Z+, r24
    1892:	89 2f       	mov	r24, r25
    1894:	99 23       	and	r25, r25
    1896:	21 f7       	brne	.-56     	; 0x1860 <DrvTwiReadToBuf+0x48>
    1898:	84 2f       	mov	r24, r20
    189a:	08 95       	ret
    189c:	84 ec       	ldi	r24, 0xC4	; 196
    189e:	e6 cf       	rjmp	.-52     	; 0x186c <DrvTwiReadToBuf+0x54>
    18a0:	10 92 bc 00 	sts	0x00BC, r1
    18a4:	ef cf       	rjmp	.-34     	; 0x1884 <DrvTwiReadToBuf+0x6c>
    18a6:	10 92 bc 00 	sts	0x00BC, r1
    18aa:	c6 cf       	rjmp	.-116    	; 0x1838 <DrvTwiReadToBuf+0x20>
    18ac:	10 92 bc 00 	sts	0x00BC, r1
    18b0:	44 23       	and	r20, r20
    18b2:	99 f6       	brne	.-90     	; 0x185a <DrvTwiReadToBuf+0x42>
    18b4:	80 e0       	ldi	r24, 0x00	; 0
    18b6:	08 95       	ret

000018b8 <DrvTwiReadRegBuf>:
    18b8:	fa 01       	movw	r30, r20
    18ba:	38 2f       	mov	r19, r24
    18bc:	33 0f       	add	r19, r19
    18be:	94 ea       	ldi	r25, 0xA4	; 164
    18c0:	90 93 bc 00 	sts	0x00BC, r25
    18c4:	af ef       	ldi	r26, 0xFF	; 255
    18c6:	b0 e0       	ldi	r27, 0x00	; 0
    18c8:	02 c0       	rjmp	.+4      	; 0x18ce <DrvTwiReadRegBuf+0x16>
    18ca:	11 97       	sbiw	r26, 0x01	; 1
    18cc:	31 f1       	breq	.+76     	; 0x191a <DrvTwiReadRegBuf+0x62>
    18ce:	90 91 bc 00 	lds	r25, 0x00BC
    18d2:	97 ff       	sbrs	r25, 7
    18d4:	fa cf       	rjmp	.-12     	; 0x18ca <DrvTwiReadRegBuf+0x12>
    18d6:	30 93 bb 00 	sts	0x00BB, r19
    18da:	94 e8       	ldi	r25, 0x84	; 132
    18dc:	90 93 bc 00 	sts	0x00BC, r25
    18e0:	af ef       	ldi	r26, 0xFF	; 255
    18e2:	b0 e0       	ldi	r27, 0x00	; 0
    18e4:	02 c0       	rjmp	.+4      	; 0x18ea <DrvTwiReadRegBuf+0x32>
    18e6:	11 97       	sbiw	r26, 0x01	; 1
    18e8:	d9 f0       	breq	.+54     	; 0x1920 <DrvTwiReadRegBuf+0x68>
    18ea:	90 91 bc 00 	lds	r25, 0x00BC
    18ee:	97 ff       	sbrs	r25, 7
    18f0:	fa cf       	rjmp	.-12     	; 0x18e6 <DrvTwiReadRegBuf+0x2e>
    18f2:	60 93 bb 00 	sts	0x00BB, r22
    18f6:	94 e8       	ldi	r25, 0x84	; 132
    18f8:	90 93 bc 00 	sts	0x00BC, r25
    18fc:	6f ef       	ldi	r22, 0xFF	; 255
    18fe:	70 e0       	ldi	r23, 0x00	; 0
    1900:	03 c0       	rjmp	.+6      	; 0x1908 <DrvTwiReadRegBuf+0x50>
    1902:	61 50       	subi	r22, 0x01	; 1
    1904:	70 40       	sbci	r23, 0x00	; 0
    1906:	79 f0       	breq	.+30     	; 0x1926 <DrvTwiReadRegBuf+0x6e>
    1908:	90 91 bc 00 	lds	r25, 0x00BC
    190c:	97 ff       	sbrs	r25, 7
    190e:	f9 cf       	rjmp	.-14     	; 0x1902 <DrvTwiReadRegBuf+0x4a>
    1910:	bf 01       	movw	r22, r30
    1912:	42 2f       	mov	r20, r18
    1914:	0e 94 0c 0c 	call	0x1818	; 0x1818 <DrvTwiReadToBuf>
    1918:	08 95       	ret
    191a:	10 92 bc 00 	sts	0x00BC, r1
    191e:	db cf       	rjmp	.-74     	; 0x18d6 <DrvTwiReadRegBuf+0x1e>
    1920:	10 92 bc 00 	sts	0x00BC, r1
    1924:	e6 cf       	rjmp	.-52     	; 0x18f2 <DrvTwiReadRegBuf+0x3a>
    1926:	10 92 bc 00 	sts	0x00BC, r1
    192a:	bf 01       	movw	r22, r30
    192c:	42 2f       	mov	r20, r18
    192e:	0e 94 0c 0c 	call	0x1818	; 0x1818 <DrvTwiReadToBuf>
    1932:	08 95       	ret

00001934 <DrvTwiWriteReg>:
    1934:	88 0f       	add	r24, r24
    1936:	94 ea       	ldi	r25, 0xA4	; 164
    1938:	90 93 bc 00 	sts	0x00BC, r25
    193c:	2f ef       	ldi	r18, 0xFF	; 255
    193e:	30 e0       	ldi	r19, 0x00	; 0
    1940:	03 c0       	rjmp	.+6      	; 0x1948 <DrvTwiWriteReg+0x14>
    1942:	21 50       	subi	r18, 0x01	; 1
    1944:	30 40       	sbci	r19, 0x00	; 0
    1946:	91 f1       	breq	.+100    	; 0x19ac <DrvTwiWriteReg+0x78>
    1948:	90 91 bc 00 	lds	r25, 0x00BC
    194c:	97 ff       	sbrs	r25, 7
    194e:	f9 cf       	rjmp	.-14     	; 0x1942 <DrvTwiWriteReg+0xe>
    1950:	80 93 bb 00 	sts	0x00BB, r24
    1954:	84 e8       	ldi	r24, 0x84	; 132
    1956:	80 93 bc 00 	sts	0x00BC, r24
    195a:	8f ef       	ldi	r24, 0xFF	; 255
    195c:	90 e0       	ldi	r25, 0x00	; 0
    195e:	02 c0       	rjmp	.+4      	; 0x1964 <DrvTwiWriteReg+0x30>
    1960:	01 97       	sbiw	r24, 0x01	; 1
    1962:	39 f1       	breq	.+78     	; 0x19b2 <DrvTwiWriteReg+0x7e>
    1964:	20 91 bc 00 	lds	r18, 0x00BC
    1968:	27 ff       	sbrs	r18, 7
    196a:	fa cf       	rjmp	.-12     	; 0x1960 <DrvTwiWriteReg+0x2c>
    196c:	60 93 bb 00 	sts	0x00BB, r22
    1970:	84 e8       	ldi	r24, 0x84	; 132
    1972:	80 93 bc 00 	sts	0x00BC, r24
    1976:	8f ef       	ldi	r24, 0xFF	; 255
    1978:	90 e0       	ldi	r25, 0x00	; 0
    197a:	02 c0       	rjmp	.+4      	; 0x1980 <DrvTwiWriteReg+0x4c>
    197c:	01 97       	sbiw	r24, 0x01	; 1
    197e:	e1 f0       	breq	.+56     	; 0x19b8 <DrvTwiWriteReg+0x84>
    1980:	20 91 bc 00 	lds	r18, 0x00BC
    1984:	27 ff       	sbrs	r18, 7
    1986:	fa cf       	rjmp	.-12     	; 0x197c <DrvTwiWriteReg+0x48>
    1988:	40 93 bb 00 	sts	0x00BB, r20
    198c:	84 e8       	ldi	r24, 0x84	; 132
    198e:	80 93 bc 00 	sts	0x00BC, r24
    1992:	8f ef       	ldi	r24, 0xFF	; 255
    1994:	90 e0       	ldi	r25, 0x00	; 0
    1996:	02 c0       	rjmp	.+4      	; 0x199c <DrvTwiWriteReg+0x68>
    1998:	01 97       	sbiw	r24, 0x01	; 1
    199a:	89 f0       	breq	.+34     	; 0x19be <DrvTwiWriteReg+0x8a>
    199c:	20 91 bc 00 	lds	r18, 0x00BC
    19a0:	27 ff       	sbrs	r18, 7
    19a2:	fa cf       	rjmp	.-12     	; 0x1998 <DrvTwiWriteReg+0x64>
    19a4:	84 e9       	ldi	r24, 0x94	; 148
    19a6:	80 93 bc 00 	sts	0x00BC, r24
    19aa:	08 95       	ret
    19ac:	10 92 bc 00 	sts	0x00BC, r1
    19b0:	cf cf       	rjmp	.-98     	; 0x1950 <DrvTwiWriteReg+0x1c>
    19b2:	10 92 bc 00 	sts	0x00BC, r1
    19b6:	da cf       	rjmp	.-76     	; 0x196c <DrvTwiWriteReg+0x38>
    19b8:	10 92 bc 00 	sts	0x00BC, r1
    19bc:	e5 cf       	rjmp	.-54     	; 0x1988 <DrvTwiWriteReg+0x54>
    19be:	10 92 bc 00 	sts	0x00BC, r1
    19c2:	84 e9       	ldi	r24, 0x94	; 148
    19c4:	80 93 bc 00 	sts	0x00BC, r24
    19c8:	08 95       	ret

000019ca <DrvTwiReadReg>:
    19ca:	48 2f       	mov	r20, r24
    19cc:	44 0f       	add	r20, r20
    19ce:	94 ea       	ldi	r25, 0xA4	; 164
    19d0:	90 93 bc 00 	sts	0x00BC, r25
    19d4:	2f ef       	ldi	r18, 0xFF	; 255
    19d6:	30 e0       	ldi	r19, 0x00	; 0
    19d8:	04 c0       	rjmp	.+8      	; 0x19e2 <DrvTwiReadReg+0x18>
    19da:	21 50       	subi	r18, 0x01	; 1
    19dc:	30 40       	sbci	r19, 0x00	; 0
    19de:	09 f4       	brne	.+2      	; 0x19e2 <DrvTwiReadReg+0x18>
    19e0:	5b c0       	rjmp	.+182    	; 0x1a98 <DrvTwiReadReg+0xce>
    19e2:	90 91 bc 00 	lds	r25, 0x00BC
    19e6:	97 ff       	sbrs	r25, 7
    19e8:	f8 cf       	rjmp	.-16     	; 0x19da <DrvTwiReadReg+0x10>
    19ea:	40 93 bb 00 	sts	0x00BB, r20
    19ee:	94 e8       	ldi	r25, 0x84	; 132
    19f0:	90 93 bc 00 	sts	0x00BC, r25
    19f4:	2f ef       	ldi	r18, 0xFF	; 255
    19f6:	30 e0       	ldi	r19, 0x00	; 0
    19f8:	04 c0       	rjmp	.+8      	; 0x1a02 <DrvTwiReadReg+0x38>
    19fa:	21 50       	subi	r18, 0x01	; 1
    19fc:	30 40       	sbci	r19, 0x00	; 0
    19fe:	09 f4       	brne	.+2      	; 0x1a02 <DrvTwiReadReg+0x38>
    1a00:	4e c0       	rjmp	.+156    	; 0x1a9e <DrvTwiReadReg+0xd4>
    1a02:	90 91 bc 00 	lds	r25, 0x00BC
    1a06:	97 ff       	sbrs	r25, 7
    1a08:	f8 cf       	rjmp	.-16     	; 0x19fa <DrvTwiReadReg+0x30>
    1a0a:	60 93 bb 00 	sts	0x00BB, r22
    1a0e:	94 e8       	ldi	r25, 0x84	; 132
    1a10:	90 93 bc 00 	sts	0x00BC, r25
    1a14:	2f ef       	ldi	r18, 0xFF	; 255
    1a16:	30 e0       	ldi	r19, 0x00	; 0
    1a18:	04 c0       	rjmp	.+8      	; 0x1a22 <DrvTwiReadReg+0x58>
    1a1a:	21 50       	subi	r18, 0x01	; 1
    1a1c:	30 40       	sbci	r19, 0x00	; 0
    1a1e:	09 f4       	brne	.+2      	; 0x1a22 <DrvTwiReadReg+0x58>
    1a20:	41 c0       	rjmp	.+130    	; 0x1aa4 <DrvTwiReadReg+0xda>
    1a22:	90 91 bc 00 	lds	r25, 0x00BC
    1a26:	97 ff       	sbrs	r25, 7
    1a28:	f8 cf       	rjmp	.-16     	; 0x1a1a <DrvTwiReadReg+0x50>
    1a2a:	88 0f       	add	r24, r24
    1a2c:	81 60       	ori	r24, 0x01	; 1
    1a2e:	94 ea       	ldi	r25, 0xA4	; 164
    1a30:	90 93 bc 00 	sts	0x00BC, r25
    1a34:	2f ef       	ldi	r18, 0xFF	; 255
    1a36:	30 e0       	ldi	r19, 0x00	; 0
    1a38:	03 c0       	rjmp	.+6      	; 0x1a40 <DrvTwiReadReg+0x76>
    1a3a:	21 50       	subi	r18, 0x01	; 1
    1a3c:	30 40       	sbci	r19, 0x00	; 0
    1a3e:	a9 f1       	breq	.+106    	; 0x1aaa <DrvTwiReadReg+0xe0>
    1a40:	90 91 bc 00 	lds	r25, 0x00BC
    1a44:	97 ff       	sbrs	r25, 7
    1a46:	f9 cf       	rjmp	.-14     	; 0x1a3a <DrvTwiReadReg+0x70>
    1a48:	80 93 bb 00 	sts	0x00BB, r24
    1a4c:	84 e8       	ldi	r24, 0x84	; 132
    1a4e:	80 93 bc 00 	sts	0x00BC, r24
    1a52:	8f ef       	ldi	r24, 0xFF	; 255
    1a54:	90 e0       	ldi	r25, 0x00	; 0
    1a56:	02 c0       	rjmp	.+4      	; 0x1a5c <DrvTwiReadReg+0x92>
    1a58:	01 97       	sbiw	r24, 0x01	; 1
    1a5a:	51 f1       	breq	.+84     	; 0x1ab0 <DrvTwiReadReg+0xe6>
    1a5c:	20 91 bc 00 	lds	r18, 0x00BC
    1a60:	27 ff       	sbrs	r18, 7
    1a62:	fa cf       	rjmp	.-12     	; 0x1a58 <DrvTwiReadReg+0x8e>
    1a64:	84 e8       	ldi	r24, 0x84	; 132
    1a66:	80 93 bc 00 	sts	0x00BC, r24
    1a6a:	8f ef       	ldi	r24, 0xFF	; 255
    1a6c:	90 e0       	ldi	r25, 0x00	; 0
    1a6e:	02 c0       	rjmp	.+4      	; 0x1a74 <DrvTwiReadReg+0xaa>
    1a70:	01 97       	sbiw	r24, 0x01	; 1
    1a72:	51 f0       	breq	.+20     	; 0x1a88 <DrvTwiReadReg+0xbe>
    1a74:	20 91 bc 00 	lds	r18, 0x00BC
    1a78:	27 ff       	sbrs	r18, 7
    1a7a:	fa cf       	rjmp	.-12     	; 0x1a70 <DrvTwiReadReg+0xa6>
    1a7c:	80 91 bb 00 	lds	r24, 0x00BB
    1a80:	94 e9       	ldi	r25, 0x94	; 148
    1a82:	90 93 bc 00 	sts	0x00BC, r25
    1a86:	08 95       	ret
    1a88:	10 92 bc 00 	sts	0x00BC, r1
    1a8c:	80 91 bb 00 	lds	r24, 0x00BB
    1a90:	94 e9       	ldi	r25, 0x94	; 148
    1a92:	90 93 bc 00 	sts	0x00BC, r25
    1a96:	08 95       	ret
    1a98:	10 92 bc 00 	sts	0x00BC, r1
    1a9c:	a6 cf       	rjmp	.-180    	; 0x19ea <DrvTwiReadReg+0x20>
    1a9e:	10 92 bc 00 	sts	0x00BC, r1
    1aa2:	b3 cf       	rjmp	.-154    	; 0x1a0a <DrvTwiReadReg+0x40>
    1aa4:	10 92 bc 00 	sts	0x00BC, r1
    1aa8:	c0 cf       	rjmp	.-128    	; 0x1a2a <DrvTwiReadReg+0x60>
    1aaa:	10 92 bc 00 	sts	0x00BC, r1
    1aae:	cc cf       	rjmp	.-104    	; 0x1a48 <DrvTwiReadReg+0x7e>
    1ab0:	10 92 bc 00 	sts	0x00BC, r1
    1ab4:	d7 cf       	rjmp	.-82     	; 0x1a64 <DrvTwiReadReg+0x9a>

00001ab6 <DrvUartInit>:
    1ab6:	88 e0       	ldi	r24, 0x08	; 8
    1ab8:	90 e0       	ldi	r25, 0x00	; 0
    1aba:	90 93 c5 00 	sts	0x00C5, r25
    1abe:	80 93 c4 00 	sts	0x00C4, r24
    1ac2:	e1 ec       	ldi	r30, 0xC1	; 193
    1ac4:	f0 e0       	ldi	r31, 0x00	; 0
    1ac6:	80 81       	ld	r24, Z
    1ac8:	80 61       	ori	r24, 0x10	; 16
    1aca:	80 83       	st	Z, r24
    1acc:	80 81       	ld	r24, Z
    1ace:	88 60       	ori	r24, 0x08	; 8
    1ad0:	80 83       	st	Z, r24
    1ad2:	80 81       	ld	r24, Z
    1ad4:	80 68       	ori	r24, 0x80	; 128
    1ad6:	80 83       	st	Z, r24
    1ad8:	80 81       	ld	r24, Z
    1ada:	80 64       	ori	r24, 0x40	; 64
    1adc:	80 83       	st	Z, r24
    1ade:	e2 ec       	ldi	r30, 0xC2	; 194
    1ae0:	f0 e0       	ldi	r31, 0x00	; 0
    1ae2:	80 81       	ld	r24, Z
    1ae4:	82 60       	ori	r24, 0x02	; 2
    1ae6:	80 83       	st	Z, r24
    1ae8:	80 81       	ld	r24, Z
    1aea:	84 60       	ori	r24, 0x04	; 4
    1aec:	80 83       	st	Z, r24
    1aee:	10 92 e8 02 	sts	0x02E8, r1
    1af2:	10 92 e7 02 	sts	0x02E7, r1
    1af6:	10 92 ea 02 	sts	0x02EA, r1
    1afa:	10 92 e9 02 	sts	0x02E9, r1
    1afe:	10 92 ec 02 	sts	0x02EC, r1
    1b02:	10 92 eb 02 	sts	0x02EB, r1
    1b06:	10 92 ee 02 	sts	0x02EE, r1
    1b0a:	10 92 ed 02 	sts	0x02ED, r1
    1b0e:	10 92 f0 02 	sts	0x02F0, r1
    1b12:	10 92 ef 02 	sts	0x02EF, r1
    1b16:	08 95       	ret

00001b18 <DrvUart0ReadMessage>:
    1b18:	fc 01       	movw	r30, r24
    1b1a:	80 91 e7 02 	lds	r24, 0x02E7
    1b1e:	90 91 e8 02 	lds	r25, 0x02E8
    1b22:	91 83       	std	Z+1, r25	; 0x01
    1b24:	80 83       	st	Z, r24
    1b26:	80 91 e9 02 	lds	r24, 0x02E9
    1b2a:	90 91 ea 02 	lds	r25, 0x02EA
    1b2e:	93 83       	std	Z+3, r25	; 0x03
    1b30:	82 83       	std	Z+2, r24	; 0x02
    1b32:	80 91 eb 02 	lds	r24, 0x02EB
    1b36:	90 91 ec 02 	lds	r25, 0x02EC
    1b3a:	95 83       	std	Z+5, r25	; 0x05
    1b3c:	84 83       	std	Z+4, r24	; 0x04
    1b3e:	80 91 ed 02 	lds	r24, 0x02ED
    1b42:	90 91 ee 02 	lds	r25, 0x02EE
    1b46:	97 83       	std	Z+7, r25	; 0x07
    1b48:	86 83       	std	Z+6, r24	; 0x06
    1b4a:	80 91 ef 02 	lds	r24, 0x02EF
    1b4e:	90 91 f0 02 	lds	r25, 0x02F0
    1b52:	91 87       	std	Z+9, r25	; 0x09
    1b54:	80 87       	std	Z+8, r24	; 0x08
    1b56:	10 92 e8 02 	sts	0x02E8, r1
    1b5a:	10 92 e7 02 	sts	0x02E7, r1
    1b5e:	10 92 ea 02 	sts	0x02EA, r1
    1b62:	10 92 e9 02 	sts	0x02E9, r1
    1b66:	10 92 ec 02 	sts	0x02EC, r1
    1b6a:	10 92 eb 02 	sts	0x02EB, r1
    1b6e:	10 92 ee 02 	sts	0x02EE, r1
    1b72:	10 92 ed 02 	sts	0x02ED, r1
    1b76:	10 92 f0 02 	sts	0x02F0, r1
    1b7a:	10 92 ef 02 	sts	0x02EF, r1
    1b7e:	08 95       	ret

00001b80 <DrvUart0SendMessage>:
    1b80:	40 91 9d 01 	lds	r20, 0x019D
    1b84:	46 17       	cp	r20, r22
    1b86:	68 f4       	brcc	.+26     	; 0x1ba2 <DrvUart0SendMessage+0x22>
    1b88:	24 2f       	mov	r18, r20
    1b8a:	30 e0       	ldi	r19, 0x00	; 0
    1b8c:	fc 01       	movw	r30, r24
    1b8e:	e2 0f       	add	r30, r18
    1b90:	f3 1f       	adc	r31, r19
    1b92:	50 81       	ld	r21, Z
    1b94:	2f 50       	subi	r18, 0x0F	; 15
    1b96:	3d 4f       	sbci	r19, 0xFD	; 253
    1b98:	f9 01       	movw	r30, r18
    1b9a:	50 83       	st	Z, r21
    1b9c:	4f 5f       	subi	r20, 0xFF	; 255
    1b9e:	46 17       	cp	r20, r22
    1ba0:	98 f3       	brcs	.-26     	; 0x1b88 <DrvUart0SendMessage+0x8>
    1ba2:	80 91 9d 01 	lds	r24, 0x019D
    1ba6:	86 0f       	add	r24, r22
    1ba8:	80 93 9d 01 	sts	0x019D, r24
    1bac:	e0 91 9d 01 	lds	r30, 0x019D
    1bb0:	f0 e0       	ldi	r31, 0x00	; 0
    1bb2:	ef 50       	subi	r30, 0x0F	; 15
    1bb4:	fd 4f       	sbci	r31, 0xFD	; 253
    1bb6:	10 82       	st	Z, r1
    1bb8:	80 91 9d 01 	lds	r24, 0x019D
    1bbc:	68 13       	cpse	r22, r24
    1bbe:	08 95       	ret
    1bc0:	80 91 c0 00 	lds	r24, 0x00C0
    1bc4:	85 ff       	sbrs	r24, 5
    1bc6:	fc cf       	rjmp	.-8      	; 0x1bc0 <DrvUart0SendMessage+0x40>
    1bc8:	80 91 f1 02 	lds	r24, 0x02F1
    1bcc:	80 93 c6 00 	sts	0x00C6, r24
    1bd0:	81 e0       	ldi	r24, 0x01	; 1
    1bd2:	80 93 9e 01 	sts	0x019E, r24
    1bd6:	08 95       	ret

00001bd8 <DrvUart0SendDirectMessage>:
    1bd8:	66 23       	and	r22, r22
    1bda:	61 f0       	breq	.+24     	; 0x1bf4 <DrvUart0SendDirectMessage+0x1c>
    1bdc:	fc 01       	movw	r30, r24
    1bde:	90 e0       	ldi	r25, 0x00	; 0
    1be0:	80 91 c0 00 	lds	r24, 0x00C0
    1be4:	85 ff       	sbrs	r24, 5
    1be6:	fc cf       	rjmp	.-8      	; 0x1be0 <DrvUart0SendDirectMessage+0x8>
    1be8:	81 91       	ld	r24, Z+
    1bea:	80 93 c6 00 	sts	0x00C6, r24
    1bee:	9f 5f       	subi	r25, 0xFF	; 255
    1bf0:	96 17       	cp	r25, r22
    1bf2:	b1 f7       	brne	.-20     	; 0x1be0 <DrvUart0SendDirectMessage+0x8>
    1bf4:	08 95       	ret

00001bf6 <__vector_18>:
    1bf6:	1f 92       	push	r1
    1bf8:	0f 92       	push	r0
    1bfa:	0f b6       	in	r0, 0x3f	; 63
    1bfc:	0f 92       	push	r0
    1bfe:	11 24       	eor	r1, r1
    1c00:	2f 93       	push	r18
    1c02:	3f 93       	push	r19
    1c04:	4f 93       	push	r20
    1c06:	5f 93       	push	r21
    1c08:	6f 93       	push	r22
    1c0a:	7f 93       	push	r23
    1c0c:	8f 93       	push	r24
    1c0e:	9f 93       	push	r25
    1c10:	af 93       	push	r26
    1c12:	bf 93       	push	r27
    1c14:	ef 93       	push	r30
    1c16:	ff 93       	push	r31
    1c18:	80 91 c6 00 	lds	r24, 0x00C6
    1c1c:	80 93 99 01 	sts	0x0199, r24
    1c20:	80 91 9b 01 	lds	r24, 0x019B
    1c24:	88 23       	and	r24, r24
    1c26:	b1 f4       	brne	.+44     	; 0x1c54 <__vector_18+0x5e>
    1c28:	80 91 99 01 	lds	r24, 0x0199
    1c2c:	8a 32       	cpi	r24, 0x2A	; 42
    1c2e:	09 f4       	brne	.+2      	; 0x1c32 <__vector_18+0x3c>
    1c30:	72 c0       	rjmp	.+228    	; 0x1d16 <__vector_18+0x120>
    1c32:	ff 91       	pop	r31
    1c34:	ef 91       	pop	r30
    1c36:	bf 91       	pop	r27
    1c38:	af 91       	pop	r26
    1c3a:	9f 91       	pop	r25
    1c3c:	8f 91       	pop	r24
    1c3e:	7f 91       	pop	r23
    1c40:	6f 91       	pop	r22
    1c42:	5f 91       	pop	r21
    1c44:	4f 91       	pop	r20
    1c46:	3f 91       	pop	r19
    1c48:	2f 91       	pop	r18
    1c4a:	0f 90       	pop	r0
    1c4c:	0f be       	out	0x3f, r0	; 63
    1c4e:	0f 90       	pop	r0
    1c50:	1f 90       	pop	r1
    1c52:	18 95       	reti
    1c54:	e0 91 9c 01 	lds	r30, 0x019C
    1c58:	f0 e0       	ldi	r31, 0x00	; 0
    1c5a:	80 91 99 01 	lds	r24, 0x0199
    1c5e:	ed 5d       	subi	r30, 0xDD	; 221
    1c60:	fc 4f       	sbci	r31, 0xFC	; 252
    1c62:	80 83       	st	Z, r24
    1c64:	e0 91 9c 01 	lds	r30, 0x019C
    1c68:	f0 e0       	ldi	r31, 0x00	; 0
    1c6a:	ee 5d       	subi	r30, 0xDE	; 222
    1c6c:	fc 4f       	sbci	r31, 0xFC	; 252
    1c6e:	80 81       	ld	r24, Z
    1c70:	80 93 98 01 	sts	0x0198, r24
    1c74:	80 91 9c 01 	lds	r24, 0x019C
    1c78:	8f 5f       	subi	r24, 0xFF	; 255
    1c7a:	80 93 9c 01 	sts	0x019C, r24
    1c7e:	80 91 98 01 	lds	r24, 0x0198
    1c82:	83 32       	cpi	r24, 0x23	; 35
    1c84:	c1 f1       	breq	.+112    	; 0x1cf6 <__vector_18+0x100>
    1c86:	80 91 99 01 	lds	r24, 0x0199
    1c8a:	8a 32       	cpi	r24, 0x2A	; 42
    1c8c:	09 f4       	brne	.+2      	; 0x1c90 <__vector_18+0x9a>
    1c8e:	4b c0       	rjmp	.+150    	; 0x1d26 <__vector_18+0x130>
    1c90:	80 91 98 01 	lds	r24, 0x0198
    1c94:	8d 32       	cpi	r24, 0x2D	; 45
    1c96:	09 f4       	brne	.+2      	; 0x1c9a <__vector_18+0xa4>
    1c98:	4e c0       	rjmp	.+156    	; 0x1d36 <__vector_18+0x140>
    1c9a:	80 91 98 01 	lds	r24, 0x0198
    1c9e:	8a 32       	cpi	r24, 0x2A	; 42
    1ca0:	41 f2       	breq	.-112    	; 0x1c32 <__vector_18+0x3c>
    1ca2:	e0 91 9a 01 	lds	r30, 0x019A
    1ca6:	f0 e0       	ldi	r31, 0x00	; 0
    1ca8:	80 91 02 01 	lds	r24, 0x0102
    1cac:	ee 0f       	add	r30, r30
    1cae:	ff 1f       	adc	r31, r31
    1cb0:	e9 51       	subi	r30, 0x19	; 25
    1cb2:	fd 4f       	sbci	r31, 0xFD	; 253
    1cb4:	90 e0       	ldi	r25, 0x00	; 0
    1cb6:	20 81       	ld	r18, Z
    1cb8:	31 81       	ldd	r19, Z+1	; 0x01
    1cba:	28 9f       	mul	r18, r24
    1cbc:	a0 01       	movw	r20, r0
    1cbe:	29 9f       	mul	r18, r25
    1cc0:	50 0d       	add	r21, r0
    1cc2:	38 9f       	mul	r19, r24
    1cc4:	50 0d       	add	r21, r0
    1cc6:	11 24       	eor	r1, r1
    1cc8:	51 83       	std	Z+1, r21	; 0x01
    1cca:	40 83       	st	Z, r20
    1ccc:	e0 91 9a 01 	lds	r30, 0x019A
    1cd0:	f0 e0       	ldi	r31, 0x00	; 0
    1cd2:	80 91 98 01 	lds	r24, 0x0198
    1cd6:	ee 0f       	add	r30, r30
    1cd8:	ff 1f       	adc	r31, r31
    1cda:	e9 51       	subi	r30, 0x19	; 25
    1cdc:	fd 4f       	sbci	r31, 0xFD	; 253
    1cde:	90 e0       	ldi	r25, 0x00	; 0
    1ce0:	c0 97       	sbiw	r24, 0x30	; 48
    1ce2:	20 81       	ld	r18, Z
    1ce4:	31 81       	ldd	r19, Z+1	; 0x01
    1ce6:	82 0f       	add	r24, r18
    1ce8:	93 1f       	adc	r25, r19
    1cea:	91 83       	std	Z+1, r25	; 0x01
    1cec:	80 83       	st	Z, r24
    1cee:	8a e0       	ldi	r24, 0x0A	; 10
    1cf0:	80 93 02 01 	sts	0x0102, r24
    1cf4:	9e cf       	rjmp	.-196    	; 0x1c32 <__vector_18+0x3c>
    1cf6:	80 91 99 01 	lds	r24, 0x0199
    1cfa:	83 32       	cpi	r24, 0x23	; 35
    1cfc:	21 f6       	brne	.-120    	; 0x1c86 <__vector_18+0x90>
    1cfe:	10 92 9b 01 	sts	0x019B, r1
    1d02:	10 92 9a 01 	sts	0x019A, r1
    1d06:	81 e0       	ldi	r24, 0x01	; 1
    1d08:	80 93 02 01 	sts	0x0102, r24
    1d0c:	80 e2       	ldi	r24, 0x20	; 32
    1d0e:	90 e0       	ldi	r25, 0x00	; 0
    1d10:	0e 94 65 08 	call	0x10ca	; 0x10ca <DrvEventAddEvent>
    1d14:	8e cf       	rjmp	.-228    	; 0x1c32 <__vector_18+0x3c>
    1d16:	80 93 23 03 	sts	0x0323, r24
    1d1a:	81 e0       	ldi	r24, 0x01	; 1
    1d1c:	80 93 9c 01 	sts	0x019C, r24
    1d20:	80 93 9b 01 	sts	0x019B, r24
    1d24:	86 cf       	rjmp	.-244    	; 0x1c32 <__vector_18+0x3c>
    1d26:	10 92 9b 01 	sts	0x019B, r1
    1d2a:	10 92 9a 01 	sts	0x019A, r1
    1d2e:	81 e0       	ldi	r24, 0x01	; 1
    1d30:	80 93 02 01 	sts	0x0102, r24
    1d34:	7e cf       	rjmp	.-260    	; 0x1c32 <__vector_18+0x3c>
    1d36:	80 91 9a 01 	lds	r24, 0x019A
    1d3a:	8f 5f       	subi	r24, 0xFF	; 255
    1d3c:	80 93 9a 01 	sts	0x019A, r24
    1d40:	81 e0       	ldi	r24, 0x01	; 1
    1d42:	80 93 02 01 	sts	0x0102, r24
    1d46:	75 cf       	rjmp	.-278    	; 0x1c32 <__vector_18+0x3c>

00001d48 <__vector_20>:
    1d48:	1f 92       	push	r1
    1d4a:	0f 92       	push	r0
    1d4c:	0f b6       	in	r0, 0x3f	; 63
    1d4e:	0f 92       	push	r0
    1d50:	11 24       	eor	r1, r1
    1d52:	8f 93       	push	r24
    1d54:	9f 93       	push	r25
    1d56:	ef 93       	push	r30
    1d58:	ff 93       	push	r31
    1d5a:	80 91 9d 01 	lds	r24, 0x019D
    1d5e:	88 23       	and	r24, r24
    1d60:	69 f4       	brne	.+26     	; 0x1d7c <__vector_20+0x34>
    1d62:	10 92 9d 01 	sts	0x019D, r1
    1d66:	10 92 9e 01 	sts	0x019E, r1
    1d6a:	ff 91       	pop	r31
    1d6c:	ef 91       	pop	r30
    1d6e:	9f 91       	pop	r25
    1d70:	8f 91       	pop	r24
    1d72:	0f 90       	pop	r0
    1d74:	0f be       	out	0x3f, r0	; 63
    1d76:	0f 90       	pop	r0
    1d78:	1f 90       	pop	r1
    1d7a:	18 95       	reti
    1d7c:	80 91 9e 01 	lds	r24, 0x019E
    1d80:	e8 2f       	mov	r30, r24
    1d82:	f0 e0       	ldi	r31, 0x00	; 0
    1d84:	ef 50       	subi	r30, 0x0F	; 15
    1d86:	fd 4f       	sbci	r31, 0xFD	; 253
    1d88:	90 81       	ld	r25, Z
    1d8a:	90 93 c6 00 	sts	0x00C6, r25
    1d8e:	8f 5f       	subi	r24, 0xFF	; 255
    1d90:	80 93 9e 01 	sts	0x019E, r24
    1d94:	80 91 9d 01 	lds	r24, 0x019D
    1d98:	81 50       	subi	r24, 0x01	; 1
    1d9a:	80 93 9d 01 	sts	0x019D, r24
    1d9e:	e5 cf       	rjmp	.-54     	; 0x1d6a <__vector_20+0x22>

00001da0 <SrvCommInit>:
    1da0:	10 92 a0 01 	sts	0x01A0, r1
    1da4:	10 92 9f 01 	sts	0x019F, r1
    1da8:	10 92 a2 01 	sts	0x01A2, r1
    1dac:	10 92 a1 01 	sts	0x01A1, r1
    1db0:	10 92 a4 01 	sts	0x01A4, r1
    1db4:	10 92 a3 01 	sts	0x01A3, r1
    1db8:	10 92 a6 01 	sts	0x01A6, r1
    1dbc:	10 92 a5 01 	sts	0x01A5, r1
    1dc0:	10 92 a8 01 	sts	0x01A8, r1
    1dc4:	10 92 a7 01 	sts	0x01A7, r1
    1dc8:	81 e0       	ldi	r24, 0x01	; 1
    1dca:	08 95       	ret

00001dcc <SrvCommDispatcher>:
    1dcc:	2f 92       	push	r2
    1dce:	3f 92       	push	r3
    1dd0:	4f 92       	push	r4
    1dd2:	5f 92       	push	r5
    1dd4:	6f 92       	push	r6
    1dd6:	7f 92       	push	r7
    1dd8:	8f 92       	push	r8
    1dda:	9f 92       	push	r9
    1ddc:	af 92       	push	r10
    1dde:	bf 92       	push	r11
    1de0:	cf 92       	push	r12
    1de2:	df 92       	push	r13
    1de4:	ef 92       	push	r14
    1de6:	ff 92       	push	r15
    1de8:	0f 93       	push	r16
    1dea:	1f 93       	push	r17
    1dec:	cf 93       	push	r28
    1dee:	df 93       	push	r29
    1df0:	cd b7       	in	r28, 0x3d	; 61
    1df2:	de b7       	in	r29, 0x3e	; 62
    1df4:	a4 97       	sbiw	r28, 0x24	; 36
    1df6:	0f b6       	in	r0, 0x3f	; 63
    1df8:	f8 94       	cli
    1dfa:	de bf       	out	0x3e, r29	; 62
    1dfc:	0f be       	out	0x3f, r0	; 63
    1dfe:	cd bf       	out	0x3d, r28	; 61
    1e00:	8c 01       	movw	r16, r24
    1e02:	60 e2       	ldi	r22, 0x20	; 32
    1e04:	0e 94 5c 08 	call	0x10b8	; 0x10b8 <DrvEventTestEvent>
    1e08:	88 23       	and	r24, r24
    1e0a:	09 f0       	breq	.+2      	; 0x1e0e <SrvCommDispatcher+0x42>
    1e0c:	90 c0       	rjmp	.+288    	; 0x1f2e <SrvCommDispatcher+0x162>
    1e0e:	c8 01       	movw	r24, r16
    1e10:	62 e0       	ldi	r22, 0x02	; 2
    1e12:	0e 94 5c 08 	call	0x10b8	; 0x10b8 <DrvEventTestEvent>
    1e16:	88 23       	and	r24, r24
    1e18:	09 f4       	brne	.+2      	; 0x1e1c <SrvCommDispatcher+0x50>
    1e1a:	70 c0       	rjmp	.+224    	; 0x1efc <SrvCommDispatcher+0x130>
    1e1c:	e0 90 bd 02 	lds	r14, 0x02BD
    1e20:	f0 90 be 02 	lds	r15, 0x02BE
    1e24:	c0 90 bf 02 	lds	r12, 0x02BF
    1e28:	d0 90 c0 02 	lds	r13, 0x02C0
    1e2c:	a0 90 c1 02 	lds	r10, 0x02C1
    1e30:	b0 90 c2 02 	lds	r11, 0x02C2
    1e34:	80 90 c3 02 	lds	r8, 0x02C3
    1e38:	90 90 c4 02 	lds	r9, 0x02C4
    1e3c:	60 90 ca 02 	lds	r6, 0x02CA
    1e40:	70 90 cb 02 	lds	r7, 0x02CB
    1e44:	40 90 ce 02 	lds	r4, 0x02CE
    1e48:	50 90 cf 02 	lds	r5, 0x02CF
    1e4c:	20 90 76 01 	lds	r2, 0x0176
    1e50:	30 90 77 01 	lds	r3, 0x0177
    1e54:	40 91 74 01 	lds	r20, 0x0174
    1e58:	50 91 75 01 	lds	r21, 0x0175
    1e5c:	60 91 72 01 	lds	r22, 0x0172
    1e60:	70 91 73 01 	lds	r23, 0x0173
    1e64:	20 91 70 01 	lds	r18, 0x0170
    1e68:	30 91 71 01 	lds	r19, 0x0171
    1e6c:	38 a3       	lds	r19, 0x58
    1e6e:	2f 8f       	std	Y+31, r18	; 0x1f
    1e70:	49 a3       	lds	r20, 0x59
    1e72:	5a a3       	lds	r21, 0x5a
    1e74:	6b a3       	lds	r22, 0x5b
    1e76:	7c a3       	lds	r23, 0x5c
    1e78:	0e 94 c9 21 	call	0x4392	; 0x4392 <SrvMotorGetSpeed>
    1e7c:	ad b7       	in	r26, 0x3d	; 61
    1e7e:	be b7       	in	r27, 0x3e	; 62
    1e80:	5a 97       	sbiw	r26, 0x1a	; 26
    1e82:	0f b6       	in	r0, 0x3f	; 63
    1e84:	f8 94       	cli
    1e86:	be bf       	out	0x3e, r27	; 62
    1e88:	0f be       	out	0x3f, r0	; 63
    1e8a:	ad bf       	out	0x3d, r26	; 61
    1e8c:	ed b7       	in	r30, 0x3d	; 61
    1e8e:	fe b7       	in	r31, 0x3e	; 62
    1e90:	31 96       	adiw	r30, 0x01	; 1
    1e92:	8e 01       	movw	r16, r28
    1e94:	0f 5f       	subi	r16, 0xFF	; 255
    1e96:	1f 4f       	sbci	r17, 0xFF	; 255
    1e98:	12 96       	adiw	r26, 0x02	; 2
    1e9a:	1c 93       	st	X, r17
    1e9c:	0e 93       	st	-X, r16
    1e9e:	11 97       	sbiw	r26, 0x01	; 1
    1ea0:	23 e0       	ldi	r18, 0x03	; 3
    1ea2:	31 e0       	ldi	r19, 0x01	; 1
    1ea4:	33 83       	std	Z+3, r19	; 0x03
    1ea6:	22 83       	std	Z+2, r18	; 0x02
    1ea8:	f5 82       	std	Z+5, r15	; 0x05
    1eaa:	e4 82       	std	Z+4, r14	; 0x04
    1eac:	d7 82       	std	Z+7, r13	; 0x07
    1eae:	c6 82       	std	Z+6, r12	; 0x06
    1eb0:	b1 86       	std	Z+9, r11	; 0x09
    1eb2:	a0 86       	std	Z+8, r10	; 0x08
    1eb4:	93 86       	std	Z+11, r9	; 0x0b
    1eb6:	82 86       	std	Z+10, r8	; 0x0a
    1eb8:	75 86       	std	Z+13, r7	; 0x0d
    1eba:	64 86       	std	Z+12, r6	; 0x0c
    1ebc:	57 86       	std	Z+15, r5	; 0x0f
    1ebe:	46 86       	std	Z+14, r4	; 0x0e
    1ec0:	31 8a       	std	Z+17, r3	; 0x11
    1ec2:	20 8a       	std	Z+16, r2	; 0x10
    1ec4:	49 a1       	lds	r20, 0x49
    1ec6:	5a a1       	lds	r21, 0x4a
    1ec8:	53 8b       	std	Z+19, r21	; 0x13
    1eca:	42 8b       	std	Z+18, r20	; 0x12
    1ecc:	6b a1       	lds	r22, 0x4b
    1ece:	7c a1       	lds	r23, 0x4c
    1ed0:	75 8b       	std	Z+21, r23	; 0x15
    1ed2:	64 8b       	std	Z+20, r22	; 0x14
    1ed4:	2f 8d       	ldd	r18, Y+31	; 0x1f
    1ed6:	38 a1       	lds	r19, 0x48
    1ed8:	37 8b       	std	Z+23, r19	; 0x17
    1eda:	26 8b       	std	Z+22, r18	; 0x16
    1edc:	91 8f       	std	Z+25, r25	; 0x19
    1ede:	80 8f       	std	Z+24, r24	; 0x18
    1ee0:	0e 94 23 2c 	call	0x5846	; 0x5846 <sprintf>
    1ee4:	68 2f       	mov	r22, r24
    1ee6:	8d b7       	in	r24, 0x3d	; 61
    1ee8:	9e b7       	in	r25, 0x3e	; 62
    1eea:	4a 96       	adiw	r24, 0x1a	; 26
    1eec:	0f b6       	in	r0, 0x3f	; 63
    1eee:	f8 94       	cli
    1ef0:	9e bf       	out	0x3e, r25	; 62
    1ef2:	0f be       	out	0x3f, r0	; 63
    1ef4:	8d bf       	out	0x3d, r24	; 61
    1ef6:	c8 01       	movw	r24, r16
    1ef8:	0e 94 c0 0d 	call	0x1b80	; 0x1b80 <DrvUart0SendMessage>
    1efc:	a4 96       	adiw	r28, 0x24	; 36
    1efe:	0f b6       	in	r0, 0x3f	; 63
    1f00:	f8 94       	cli
    1f02:	de bf       	out	0x3e, r29	; 62
    1f04:	0f be       	out	0x3f, r0	; 63
    1f06:	cd bf       	out	0x3d, r28	; 61
    1f08:	df 91       	pop	r29
    1f0a:	cf 91       	pop	r28
    1f0c:	1f 91       	pop	r17
    1f0e:	0f 91       	pop	r16
    1f10:	ff 90       	pop	r15
    1f12:	ef 90       	pop	r14
    1f14:	df 90       	pop	r13
    1f16:	cf 90       	pop	r12
    1f18:	bf 90       	pop	r11
    1f1a:	af 90       	pop	r10
    1f1c:	9f 90       	pop	r9
    1f1e:	8f 90       	pop	r8
    1f20:	7f 90       	pop	r7
    1f22:	6f 90       	pop	r6
    1f24:	5f 90       	pop	r5
    1f26:	4f 90       	pop	r4
    1f28:	3f 90       	pop	r3
    1f2a:	2f 90       	pop	r2
    1f2c:	08 95       	ret
    1f2e:	8f e9       	ldi	r24, 0x9F	; 159
    1f30:	91 e0       	ldi	r25, 0x01	; 1
    1f32:	0e 94 8c 0d 	call	0x1b18	; 0x1b18 <DrvUart0ReadMessage>
    1f36:	80 91 9f 01 	lds	r24, 0x019F
    1f3a:	90 91 a0 01 	lds	r25, 0x01A0
    1f3e:	00 97       	sbiw	r24, 0x00	; 0
    1f40:	c9 f0       	breq	.+50     	; 0x1f74 <SrvCommDispatcher+0x1a8>
    1f42:	81 30       	cpi	r24, 0x01	; 1
    1f44:	91 05       	cpc	r25, r1
    1f46:	11 f1       	breq	.+68     	; 0x1f8c <SrvCommDispatcher+0x1c0>
    1f48:	82 30       	cpi	r24, 0x02	; 2
    1f4a:	91 05       	cpc	r25, r1
    1f4c:	d9 f1       	breq	.+118    	; 0x1fc4 <SrvCommDispatcher+0x1f8>
    1f4e:	83 30       	cpi	r24, 0x03	; 3
    1f50:	91 05       	cpc	r25, r1
    1f52:	09 f4       	brne	.+2      	; 0x1f56 <SrvCommDispatcher+0x18a>
    1f54:	5c cf       	rjmp	.-328    	; 0x1e0e <SrvCommDispatcher+0x42>
    1f56:	84 30       	cpi	r24, 0x04	; 4
    1f58:	91 05       	cpc	r25, r1
    1f5a:	09 f0       	breq	.+2      	; 0x1f5e <SrvCommDispatcher+0x192>
    1f5c:	58 cf       	rjmp	.-336    	; 0x1e0e <SrvCommDispatcher+0x42>
    1f5e:	80 91 a1 01 	lds	r24, 0x01A1
    1f62:	90 91 a2 01 	lds	r25, 0x01A2
    1f66:	81 30       	cpi	r24, 0x01	; 1
    1f68:	91 05       	cpc	r25, r1
    1f6a:	99 f1       	breq	.+102    	; 0x1fd2 <SrvCommDispatcher+0x206>
    1f6c:	e0 e0       	ldi	r30, 0x00	; 0
    1f6e:	f0 e0       	ldi	r31, 0x00	; 0
    1f70:	09 95       	icall
    1f72:	4d cf       	rjmp	.-358    	; 0x1e0e <SrvCommDispatcher+0x42>
    1f74:	80 91 a1 01 	lds	r24, 0x01A1
    1f78:	90 91 a2 01 	lds	r25, 0x01A2
    1f7c:	23 e0       	ldi	r18, 0x03	; 3
    1f7e:	89 3e       	cpi	r24, 0xE9	; 233
    1f80:	92 07       	cpc	r25, r18
    1f82:	08 f0       	brcs	.+2      	; 0x1f86 <SrvCommDispatcher+0x1ba>
    1f84:	44 cf       	rjmp	.-376    	; 0x1e0e <SrvCommDispatcher+0x42>
    1f86:	0e 94 ce 21 	call	0x439c	; 0x439c <SrvMotorApplyAbsoluteSpeed>
    1f8a:	41 cf       	rjmp	.-382    	; 0x1e0e <SrvCommDispatcher+0x42>
    1f8c:	80 91 a1 01 	lds	r24, 0x01A1
    1f90:	90 91 a2 01 	lds	r25, 0x01A2
    1f94:	90 93 d7 02 	sts	0x02D7, r25
    1f98:	80 93 d6 02 	sts	0x02D6, r24
    1f9c:	80 91 a3 01 	lds	r24, 0x01A3
    1fa0:	90 91 a4 01 	lds	r25, 0x01A4
    1fa4:	90 95       	com	r25
    1fa6:	81 95       	neg	r24
    1fa8:	9f 4f       	sbci	r25, 0xFF	; 255
    1faa:	90 93 d9 02 	sts	0x02D9, r25
    1fae:	80 93 d8 02 	sts	0x02D8, r24
    1fb2:	80 91 a5 01 	lds	r24, 0x01A5
    1fb6:	90 91 a6 01 	lds	r25, 0x01A6
    1fba:	90 93 db 02 	sts	0x02DB, r25
    1fbe:	80 93 da 02 	sts	0x02DA, r24
    1fc2:	25 cf       	rjmp	.-438    	; 0x1e0e <SrvCommDispatcher+0x42>
    1fc4:	0e 94 8b 15 	call	0x2b16	; 0x2b16 <SrvImuSensorsSetAltitudeDepart>
    1fc8:	80 91 a1 01 	lds	r24, 0x01A1
    1fcc:	0e 94 94 15 	call	0x2b28	; 0x2b28 <SrvImuSensorsSetAltitudeMaintient>
    1fd0:	1e cf       	rjmp	.-452    	; 0x1e0e <SrvCommDispatcher+0x42>
    1fd2:	0e 94 5b 06 	call	0xcb6	; 0xcb6 <DrvEepromDeconfigure>
    1fd6:	ca cf       	rjmp	.-108    	; 0x1f6c <SrvCommDispatcher+0x1a0>

00001fd8 <SrvImuInit>:
    1fd8:	80 e0       	ldi	r24, 0x00	; 0
    1fda:	90 e0       	ldi	r25, 0x00	; 0
    1fdc:	dc 01       	movw	r26, r24
    1fde:	80 93 aa 01 	sts	0x01AA, r24
    1fe2:	90 93 ab 01 	sts	0x01AB, r25
    1fe6:	a0 93 ac 01 	sts	0x01AC, r26
    1fea:	b0 93 ad 01 	sts	0x01AD, r27
    1fee:	80 93 ae 01 	sts	0x01AE, r24
    1ff2:	90 93 af 01 	sts	0x01AF, r25
    1ff6:	a0 93 b0 01 	sts	0x01B0, r26
    1ffa:	b0 93 b1 01 	sts	0x01B1, r27
    1ffe:	80 93 b2 01 	sts	0x01B2, r24
    2002:	90 93 b3 01 	sts	0x01B3, r25
    2006:	a0 93 b4 01 	sts	0x01B4, r26
    200a:	b0 93 b5 01 	sts	0x01B5, r27
    200e:	80 93 b6 01 	sts	0x01B6, r24
    2012:	90 93 b7 01 	sts	0x01B7, r25
    2016:	a0 93 b8 01 	sts	0x01B8, r26
    201a:	b0 93 b9 01 	sts	0x01B9, r27
    201e:	80 93 ba 01 	sts	0x01BA, r24
    2022:	90 93 bb 01 	sts	0x01BB, r25
    2026:	a0 93 bc 01 	sts	0x01BC, r26
    202a:	b0 93 bd 01 	sts	0x01BD, r27
    202e:	80 93 be 01 	sts	0x01BE, r24
    2032:	90 93 bf 01 	sts	0x01BF, r25
    2036:	a0 93 c0 01 	sts	0x01C0, r26
    203a:	b0 93 c1 01 	sts	0x01C1, r27
    203e:	10 92 c2 01 	sts	0x01C2, r1
    2042:	10 92 c3 01 	sts	0x01C3, r1
    2046:	10 92 c4 01 	sts	0x01C4, r1
    204a:	10 92 c5 01 	sts	0x01C5, r1
    204e:	10 92 c6 01 	sts	0x01C6, r1
    2052:	10 92 c7 01 	sts	0x01C7, r1
    2056:	10 92 c8 01 	sts	0x01C8, r1
    205a:	10 92 c9 01 	sts	0x01C9, r1
    205e:	10 92 ca 01 	sts	0x01CA, r1
    2062:	10 92 cb 01 	sts	0x01CB, r1
    2066:	10 92 cc 01 	sts	0x01CC, r1
    206a:	10 92 cd 01 	sts	0x01CD, r1
    206e:	10 92 cf 01 	sts	0x01CF, r1
    2072:	10 92 ce 01 	sts	0x01CE, r1
    2076:	10 92 d1 01 	sts	0x01D1, r1
    207a:	10 92 d0 01 	sts	0x01D0, r1
    207e:	10 92 d2 01 	sts	0x01D2, r1
    2082:	10 92 d3 01 	sts	0x01D3, r1
    2086:	10 92 d4 01 	sts	0x01D4, r1
    208a:	10 92 d5 01 	sts	0x01D5, r1
    208e:	10 92 d6 01 	sts	0x01D6, r1
    2092:	10 92 d7 01 	sts	0x01D7, r1
    2096:	10 92 d8 01 	sts	0x01D8, r1
    209a:	10 92 d9 01 	sts	0x01D9, r1
    209e:	10 92 cb 02 	sts	0x02CB, r1
    20a2:	10 92 ca 02 	sts	0x02CA, r1
    20a6:	10 92 cf 02 	sts	0x02CF, r1
    20aa:	10 92 ce 02 	sts	0x02CE, r1
    20ae:	10 92 bc 02 	sts	0x02BC, r1
    20b2:	10 92 bb 02 	sts	0x02BB, r1
    20b6:	10 92 cd 02 	sts	0x02CD, r1
    20ba:	10 92 cc 02 	sts	0x02CC, r1
    20be:	10 92 a9 01 	sts	0x01A9, r1
    20c2:	0e 94 8a 04 	call	0x914	; 0x914 <CmpHMC5883Init>
    20c6:	0e 94 ba 00 	call	0x174	; 0x174 <CmpBMA180Init>
    20ca:	0e 94 10 05 	call	0xa20	; 0xa20 <CmpITG3205Init>
    20ce:	0e 94 08 02 	call	0x410	; 0x410 <CmpBMP085Init>
    20d2:	0e 94 7c 04 	call	0x8f8	; 0x8f8 <CmpBMP085StartCapture>
    20d6:	81 e0       	ldi	r24, 0x01	; 1
    20d8:	08 95       	ret

000020da <SrvImuDispatcher>:
    20da:	2f 92       	push	r2
    20dc:	3f 92       	push	r3
    20de:	4f 92       	push	r4
    20e0:	5f 92       	push	r5
    20e2:	6f 92       	push	r6
    20e4:	7f 92       	push	r7
    20e6:	8f 92       	push	r8
    20e8:	9f 92       	push	r9
    20ea:	af 92       	push	r10
    20ec:	bf 92       	push	r11
    20ee:	cf 92       	push	r12
    20f0:	df 92       	push	r13
    20f2:	ef 92       	push	r14
    20f4:	ff 92       	push	r15
    20f6:	0f 93       	push	r16
    20f8:	1f 93       	push	r17
    20fa:	cf 93       	push	r28
    20fc:	df 93       	push	r29
    20fe:	cd b7       	in	r28, 0x3d	; 61
    2100:	de b7       	in	r29, 0x3e	; 62
    2102:	a6 97       	sbiw	r28, 0x26	; 38
    2104:	0f b6       	in	r0, 0x3f	; 63
    2106:	f8 94       	cli
    2108:	de bf       	out	0x3e, r29	; 62
    210a:	0f be       	out	0x3f, r0	; 63
    210c:	cd bf       	out	0x3d, r28	; 61
    210e:	6c 01       	movw	r12, r24
    2110:	61 e0       	ldi	r22, 0x01	; 1
    2112:	0e 94 5c 08 	call	0x10b8	; 0x10b8 <DrvEventTestEvent>
    2116:	81 30       	cpi	r24, 0x01	; 1
    2118:	09 f4       	brne	.+2      	; 0x211c <SrvImuDispatcher+0x42>
    211a:	3f c0       	rjmp	.+126    	; 0x219a <SrvImuDispatcher+0xc0>
    211c:	c6 01       	movw	r24, r12
    211e:	62 e0       	ldi	r22, 0x02	; 2
    2120:	0e 94 5c 08 	call	0x10b8	; 0x10b8 <DrvEventTestEvent>
    2124:	81 30       	cpi	r24, 0x01	; 1
    2126:	b1 f1       	breq	.+108    	; 0x2194 <SrvImuDispatcher+0xba>
    2128:	0e 94 2b 02 	call	0x456	; 0x456 <CmpBMP085GetAltitude>
    212c:	dc 01       	movw	r26, r24
    212e:	cb 01       	movw	r24, r22
    2130:	90 93 c4 02 	sts	0x02C4, r25
    2134:	80 93 c3 02 	sts	0x02C3, r24
    2138:	c6 01       	movw	r24, r12
    213a:	60 e1       	ldi	r22, 0x10	; 16
    213c:	0e 94 5c 08 	call	0x10b8	; 0x10b8 <DrvEventTestEvent>
    2140:	81 30       	cpi	r24, 0x01	; 1
    2142:	c9 f0       	breq	.+50     	; 0x2176 <SrvImuDispatcher+0x9c>
    2144:	a6 96       	adiw	r28, 0x26	; 38
    2146:	0f b6       	in	r0, 0x3f	; 63
    2148:	f8 94       	cli
    214a:	de bf       	out	0x3e, r29	; 62
    214c:	0f be       	out	0x3f, r0	; 63
    214e:	cd bf       	out	0x3d, r28	; 61
    2150:	df 91       	pop	r29
    2152:	cf 91       	pop	r28
    2154:	1f 91       	pop	r17
    2156:	0f 91       	pop	r16
    2158:	ff 90       	pop	r15
    215a:	ef 90       	pop	r14
    215c:	df 90       	pop	r13
    215e:	cf 90       	pop	r12
    2160:	bf 90       	pop	r11
    2162:	af 90       	pop	r10
    2164:	9f 90       	pop	r9
    2166:	8f 90       	pop	r8
    2168:	7f 90       	pop	r7
    216a:	6f 90       	pop	r6
    216c:	5f 90       	pop	r5
    216e:	4f 90       	pop	r4
    2170:	3f 90       	pop	r3
    2172:	2f 90       	pop	r2
    2174:	08 95       	ret
    2176:	80 91 d0 01 	lds	r24, 0x01D0
    217a:	90 91 d1 01 	lds	r25, 0x01D1
    217e:	00 97       	sbiw	r24, 0x00	; 0
    2180:	09 f7       	brne	.-62     	; 0x2144 <SrvImuDispatcher+0x6a>
    2182:	80 91 c3 02 	lds	r24, 0x02C3
    2186:	90 91 c4 02 	lds	r25, 0x02C4
    218a:	90 93 d1 01 	sts	0x01D1, r25
    218e:	80 93 d0 01 	sts	0x01D0, r24
    2192:	d8 cf       	rjmp	.-80     	; 0x2144 <SrvImuDispatcher+0x6a>
    2194:	0e 94 7c 04 	call	0x8f8	; 0x8f8 <CmpBMP085StartCapture>
    2198:	c7 cf       	rjmp	.-114    	; 0x2128 <SrvImuDispatcher+0x4e>
    219a:	0e 94 7b 09 	call	0x12f6	; 0x12f6 <DrvTimerGetTime>
    219e:	dc 01       	movw	r26, r24
    21a0:	cb 01       	movw	r24, r22
    21a2:	40 91 c2 01 	lds	r20, 0x01C2
    21a6:	50 91 c3 01 	lds	r21, 0x01C3
    21aa:	60 91 c4 01 	lds	r22, 0x01C4
    21ae:	70 91 c5 01 	lds	r23, 0x01C5
    21b2:	84 1b       	sub	r24, r20
    21b4:	95 0b       	sbc	r25, r21
    21b6:	a6 0b       	sbc	r26, r22
    21b8:	b7 0b       	sbc	r27, r23
    21ba:	80 93 c6 01 	sts	0x01C6, r24
    21be:	90 93 c7 01 	sts	0x01C7, r25
    21c2:	a0 93 c8 01 	sts	0x01C8, r26
    21c6:	b0 93 c9 01 	sts	0x01C9, r27
    21ca:	0e 94 7b 09 	call	0x12f6	; 0x12f6 <DrvTimerGetTime>
    21ce:	dc 01       	movw	r26, r24
    21d0:	cb 01       	movw	r24, r22
    21d2:	80 93 c2 01 	sts	0x01C2, r24
    21d6:	90 93 c3 01 	sts	0x01C3, r25
    21da:	a0 93 c4 01 	sts	0x01C4, r26
    21de:	b0 93 c5 01 	sts	0x01C5, r27
    21e2:	20 91 c6 01 	lds	r18, 0x01C6
    21e6:	30 91 c7 01 	lds	r19, 0x01C7
    21ea:	40 91 c8 01 	lds	r20, 0x01C8
    21ee:	50 91 c9 01 	lds	r21, 0x01C9
    21f2:	2b 8b       	std	Y+19, r18	; 0x13
    21f4:	3c 8b       	std	Y+20, r19	; 0x14
    21f6:	4d 8b       	std	Y+21, r20	; 0x15
    21f8:	5e 8b       	std	Y+22, r21	; 0x16
    21fa:	80 91 ca 01 	lds	r24, 0x01CA
    21fe:	90 91 cb 01 	lds	r25, 0x01CB
    2202:	a0 91 cc 01 	lds	r26, 0x01CC
    2206:	b0 91 cd 01 	lds	r27, 0x01CD
    220a:	82 17       	cp	r24, r18
    220c:	93 07       	cpc	r25, r19
    220e:	a4 07       	cpc	r26, r20
    2210:	b5 07       	cpc	r27, r21
    2212:	40 f4       	brcc	.+16     	; 0x2224 <SrvImuDispatcher+0x14a>
    2214:	20 93 ca 01 	sts	0x01CA, r18
    2218:	30 93 cb 01 	sts	0x01CB, r19
    221c:	40 93 cc 01 	sts	0x01CC, r20
    2220:	50 93 cd 01 	sts	0x01CD, r21
    2224:	1e 86       	std	Y+14, r1	; 0x0e
    2226:	1d 86       	std	Y+13, r1	; 0x0d
    2228:	18 8a       	std	Y+16, r1	; 0x10
    222a:	1f 86       	std	Y+15, r1	; 0x0f
    222c:	1a 8a       	std	Y+18, r1	; 0x12
    222e:	19 8a       	std	Y+17, r1	; 0x11
    2230:	18 86       	std	Y+8, r1	; 0x08
    2232:	1f 82       	std	Y+7, r1	; 0x07
    2234:	1a 86       	std	Y+10, r1	; 0x0a
    2236:	19 86       	std	Y+9, r1	; 0x09
    2238:	1c 86       	std	Y+12, r1	; 0x0c
    223a:	1b 86       	std	Y+11, r1	; 0x0b
    223c:	1a 82       	std	Y+2, r1	; 0x02
    223e:	19 82       	std	Y+1, r1	; 0x01
    2240:	1c 82       	std	Y+4, r1	; 0x04
    2242:	1b 82       	std	Y+3, r1	; 0x03
    2244:	1e 82       	std	Y+6, r1	; 0x06
    2246:	1d 82       	std	Y+5, r1	; 0x05
    2248:	ce 01       	movw	r24, r28
    224a:	07 96       	adiw	r24, 0x07	; 7
    224c:	0e 94 24 01 	call	0x248	; 0x248 <CmpBMA180GetAcceleration>
    2250:	88 23       	and	r24, r24
    2252:	09 f4       	brne	.+2      	; 0x2256 <SrvImuDispatcher+0x17c>
    2254:	b0 c0       	rjmp	.+352    	; 0x23b6 <SrvImuDispatcher+0x2dc>
    2256:	6f 81       	ldd	r22, Y+7	; 0x07
    2258:	78 85       	ldd	r23, Y+8	; 0x08
    225a:	70 95       	com	r23
    225c:	61 95       	neg	r22
    225e:	7f 4f       	sbci	r23, 0xFF	; 255
    2260:	78 87       	std	Y+8, r23	; 0x08
    2262:	6f 83       	std	Y+7, r22	; 0x07
    2264:	09 85       	ldd	r16, Y+9	; 0x09
    2266:	1a 85       	ldd	r17, Y+10	; 0x0a
    2268:	10 95       	com	r17
    226a:	01 95       	neg	r16
    226c:	1f 4f       	sbci	r17, 0xFF	; 255
    226e:	1a 87       	std	Y+10, r17	; 0x0a
    2270:	09 87       	std	Y+9, r16	; 0x09
    2272:	88 27       	eor	r24, r24
    2274:	77 fd       	sbrc	r23, 7
    2276:	80 95       	com	r24
    2278:	98 2f       	mov	r25, r24
    227a:	0e 94 88 28 	call	0x5110	; 0x5110 <__floatsisf>
    227e:	4b 01       	movw	r8, r22
    2280:	5c 01       	movw	r10, r24
    2282:	b8 01       	movw	r22, r16
    2284:	88 27       	eor	r24, r24
    2286:	77 fd       	sbrc	r23, 7
    2288:	80 95       	com	r24
    228a:	98 2f       	mov	r25, r24
    228c:	0e 94 88 28 	call	0x5110	; 0x5110 <__floatsisf>
    2290:	6f 8b       	std	Y+23, r22	; 0x17
    2292:	78 8f       	std	Y+24, r23	; 0x18
    2294:	89 8f       	std	Y+25, r24	; 0x19
    2296:	9a 8f       	std	Y+26, r25	; 0x1a
    2298:	9b 01       	movw	r18, r22
    229a:	ac 01       	movw	r20, r24
    229c:	0e 94 a1 29 	call	0x5342	; 0x5342 <__mulsf3>
    22a0:	16 2f       	mov	r17, r22
    22a2:	07 2f       	mov	r16, r23
    22a4:	68 2e       	mov	r6, r24
    22a6:	59 2e       	mov	r5, r25
    22a8:	6b 85       	ldd	r22, Y+11	; 0x0b
    22aa:	7c 85       	ldd	r23, Y+12	; 0x0c
    22ac:	88 27       	eor	r24, r24
    22ae:	77 fd       	sbrc	r23, 7
    22b0:	80 95       	com	r24
    22b2:	98 2f       	mov	r25, r24
    22b4:	0e 94 88 28 	call	0x5110	; 0x5110 <__floatsisf>
    22b8:	6b 8f       	std	Y+27, r22	; 0x1b
    22ba:	7c 8f       	std	Y+28, r23	; 0x1c
    22bc:	8d 8f       	std	Y+29, r24	; 0x1d
    22be:	9e 8f       	std	Y+30, r25	; 0x1e
    22c0:	9b 01       	movw	r18, r22
    22c2:	ac 01       	movw	r20, r24
    22c4:	0e 94 a1 29 	call	0x5342	; 0x5342 <__mulsf3>
    22c8:	e6 2e       	mov	r14, r22
    22ca:	47 2e       	mov	r4, r23
    22cc:	f8 2e       	mov	r15, r24
    22ce:	79 2e       	mov	r7, r25
    22d0:	a8 01       	movw	r20, r16
    22d2:	85 2f       	mov	r24, r21
    22d4:	94 2f       	mov	r25, r20
    22d6:	a6 2d       	mov	r26, r6
    22d8:	b5 2d       	mov	r27, r5
    22da:	bc 01       	movw	r22, r24
    22dc:	cd 01       	movw	r24, r26
    22de:	0e 2d       	mov	r16, r14
    22e0:	14 2d       	mov	r17, r4
    22e2:	2f 2d       	mov	r18, r15
    22e4:	37 2d       	mov	r19, r7
    22e6:	a9 01       	movw	r20, r18
    22e8:	98 01       	movw	r18, r16
    22ea:	0e 94 20 27 	call	0x4e40	; 0x4e40 <__addsf3>
    22ee:	0e 94 5a 2a 	call	0x54b4	; 0x54b4 <sqrt>
    22f2:	9b 01       	movw	r18, r22
    22f4:	ac 01       	movw	r20, r24
    22f6:	c5 01       	movw	r24, r10
    22f8:	b4 01       	movw	r22, r8
    22fa:	0e 94 93 27 	call	0x4f26	; 0x4f26 <atan2>
    22fe:	6f 8f       	std	Y+31, r22	; 0x1f
    2300:	78 a3       	lds	r23, 0x58
    2302:	89 a3       	lds	r24, 0x59
    2304:	9a a3       	lds	r25, 0x5a
    2306:	c5 01       	movw	r24, r10
    2308:	b4 01       	movw	r22, r8
    230a:	a5 01       	movw	r20, r10
    230c:	94 01       	movw	r18, r8
    230e:	0e 94 a1 29 	call	0x5342	; 0x5342 <__mulsf3>
    2312:	f6 2f       	mov	r31, r22
    2314:	e7 2f       	mov	r30, r23
    2316:	38 2f       	mov	r19, r24
    2318:	29 2f       	mov	r18, r25
    231a:	4e 2d       	mov	r20, r14
    231c:	54 2d       	mov	r21, r4
    231e:	6f 2d       	mov	r22, r15
    2320:	77 2d       	mov	r23, r7
    2322:	cb 01       	movw	r24, r22
    2324:	ba 01       	movw	r22, r20
    2326:	df 01       	movw	r26, r30
    2328:	a9 01       	movw	r20, r18
    232a:	0b 2f       	mov	r16, r27
    232c:	1a 2f       	mov	r17, r26
    232e:	25 2f       	mov	r18, r21
    2330:	34 2f       	mov	r19, r20
    2332:	a9 01       	movw	r20, r18
    2334:	98 01       	movw	r18, r16
    2336:	0e 94 20 27 	call	0x4e40	; 0x4e40 <__addsf3>
    233a:	0e 94 5a 2a 	call	0x54b4	; 0x54b4 <sqrt>
    233e:	9b 01       	movw	r18, r22
    2340:	ac 01       	movw	r20, r24
    2342:	6f 89       	ldd	r22, Y+23	; 0x17
    2344:	78 8d       	ldd	r23, Y+24	; 0x18
    2346:	89 8d       	ldd	r24, Y+25	; 0x19
    2348:	9a 8d       	ldd	r25, Y+26	; 0x1a
    234a:	0e 94 93 27 	call	0x4f26	; 0x4f26 <atan2>
    234e:	4b 01       	movw	r8, r22
    2350:	5c 01       	movw	r10, r24
    2352:	6f 8d       	ldd	r22, Y+31	; 0x1f
    2354:	78 a1       	lds	r23, 0x48
    2356:	89 a1       	lds	r24, 0x49
    2358:	9a a1       	lds	r25, 0x4a
    235a:	20 ee       	ldi	r18, 0xE0	; 224
    235c:	3e e2       	ldi	r19, 0x2E	; 46
    235e:	45 e6       	ldi	r20, 0x65	; 101
    2360:	52 e4       	ldi	r21, 0x42	; 66
    2362:	0e 94 a1 29 	call	0x5342	; 0x5342 <__mulsf3>
    2366:	dc 01       	movw	r26, r24
    2368:	cb 01       	movw	r24, r22
    236a:	80 93 aa 01 	sts	0x01AA, r24
    236e:	90 93 ab 01 	sts	0x01AB, r25
    2372:	a0 93 ac 01 	sts	0x01AC, r26
    2376:	b0 93 ad 01 	sts	0x01AD, r27
    237a:	c5 01       	movw	r24, r10
    237c:	b4 01       	movw	r22, r8
    237e:	20 ee       	ldi	r18, 0xE0	; 224
    2380:	3e e2       	ldi	r19, 0x2E	; 46
    2382:	45 e6       	ldi	r20, 0x65	; 101
    2384:	52 e4       	ldi	r21, 0x42	; 66
    2386:	0e 94 a1 29 	call	0x5342	; 0x5342 <__mulsf3>
    238a:	dc 01       	movw	r26, r24
    238c:	cb 01       	movw	r24, r22
    238e:	80 93 ae 01 	sts	0x01AE, r24
    2392:	90 93 af 01 	sts	0x01AF, r25
    2396:	a0 93 b0 01 	sts	0x01B0, r26
    239a:	b0 93 b1 01 	sts	0x01B1, r27
    239e:	8b 8d       	ldd	r24, Y+27	; 0x1b
    23a0:	9c 8d       	ldd	r25, Y+28	; 0x1c
    23a2:	ad 8d       	ldd	r26, Y+29	; 0x1d
    23a4:	be 8d       	ldd	r27, Y+30	; 0x1e
    23a6:	80 93 b2 01 	sts	0x01B2, r24
    23aa:	90 93 b3 01 	sts	0x01B3, r25
    23ae:	a0 93 b4 01 	sts	0x01B4, r26
    23b2:	b0 93 b5 01 	sts	0x01B5, r27
    23b6:	ce 01       	movw	r24, r28
    23b8:	0d 96       	adiw	r24, 0x0d	; 13
    23ba:	0e 94 5b 05 	call	0xab6	; 0xab6 <CmpITG3205GetRotation>
    23be:	88 23       	and	r24, r24
    23c0:	09 f4       	brne	.+2      	; 0x23c4 <SrvImuDispatcher+0x2ea>
    23c2:	d5 c0       	rjmp	.+426    	; 0x256e <SrvImuDispatcher+0x494>
    23c4:	0d 85       	ldd	r16, Y+13	; 0x0d
    23c6:	1e 85       	ldd	r17, Y+14	; 0x0e
    23c8:	10 95       	com	r17
    23ca:	01 95       	neg	r16
    23cc:	1f 4f       	sbci	r17, 0xFF	; 255
    23ce:	1e 87       	std	Y+14, r17	; 0x0e
    23d0:	0d 87       	std	Y+13, r16	; 0x0d
    23d2:	6f 84       	ldd	r6, Y+15	; 0x0f
    23d4:	78 88       	ldd	r7, Y+16	; 0x10
    23d6:	89 89       	ldd	r24, Y+17	; 0x11
    23d8:	9a 89       	ldd	r25, Y+18	; 0x12
    23da:	ee 24       	eor	r14, r14
    23dc:	ff 24       	eor	r15, r15
    23de:	e8 1a       	sub	r14, r24
    23e0:	f9 0a       	sbc	r15, r25
    23e2:	fa 8a       	std	Y+18, r15	; 0x12
    23e4:	e9 8a       	std	Y+17, r14	; 0x11
    23e6:	6b 89       	ldd	r22, Y+19	; 0x13
    23e8:	7c 89       	ldd	r23, Y+20	; 0x14
    23ea:	8d 89       	ldd	r24, Y+21	; 0x15
    23ec:	9e 89       	ldd	r25, Y+22	; 0x16
    23ee:	0e 94 86 28 	call	0x510c	; 0x510c <__floatunsisf>
    23f2:	4b 01       	movw	r8, r22
    23f4:	5c 01       	movw	r10, r24
    23f6:	b8 01       	movw	r22, r16
    23f8:	88 27       	eor	r24, r24
    23fa:	77 fd       	sbrc	r23, 7
    23fc:	80 95       	com	r24
    23fe:	98 2f       	mov	r25, r24
    2400:	0e 94 88 28 	call	0x5110	; 0x5110 <__floatsisf>
    2404:	20 e0       	ldi	r18, 0x00	; 0
    2406:	30 e0       	ldi	r19, 0x00	; 0
    2408:	46 e6       	ldi	r20, 0x66	; 102
    240a:	51 e4       	ldi	r21, 0x41	; 65
    240c:	0e 94 ed 27 	call	0x4fda	; 0x4fda <__divsf3>
    2410:	a5 01       	movw	r20, r10
    2412:	94 01       	movw	r18, r8
    2414:	0e 94 a1 29 	call	0x5342	; 0x5342 <__mulsf3>
    2418:	20 e0       	ldi	r18, 0x00	; 0
    241a:	34 e2       	ldi	r19, 0x24	; 36
    241c:	44 e7       	ldi	r20, 0x74	; 116
    241e:	59 e4       	ldi	r21, 0x49	; 73
    2420:	0e 94 ed 27 	call	0x4fda	; 0x4fda <__divsf3>
    2424:	9b 01       	movw	r18, r22
    2426:	ac 01       	movw	r20, r24
    2428:	60 91 ba 01 	lds	r22, 0x01BA
    242c:	70 91 bb 01 	lds	r23, 0x01BB
    2430:	80 91 bc 01 	lds	r24, 0x01BC
    2434:	90 91 bd 01 	lds	r25, 0x01BD
    2438:	0e 94 20 27 	call	0x4e40	; 0x4e40 <__addsf3>
    243c:	dc 01       	movw	r26, r24
    243e:	cb 01       	movw	r24, r22
    2440:	80 93 ba 01 	sts	0x01BA, r24
    2444:	90 93 bb 01 	sts	0x01BB, r25
    2448:	a0 93 bc 01 	sts	0x01BC, r26
    244c:	b0 93 bd 01 	sts	0x01BD, r27
    2450:	b3 01       	movw	r22, r6
    2452:	88 27       	eor	r24, r24
    2454:	77 fd       	sbrc	r23, 7
    2456:	80 95       	com	r24
    2458:	98 2f       	mov	r25, r24
    245a:	0e 94 88 28 	call	0x5110	; 0x5110 <__floatsisf>
    245e:	20 e0       	ldi	r18, 0x00	; 0
    2460:	30 e0       	ldi	r19, 0x00	; 0
    2462:	46 e6       	ldi	r20, 0x66	; 102
    2464:	51 e4       	ldi	r21, 0x41	; 65
    2466:	0e 94 ed 27 	call	0x4fda	; 0x4fda <__divsf3>
    246a:	9b 01       	movw	r18, r22
    246c:	ac 01       	movw	r20, r24
    246e:	c5 01       	movw	r24, r10
    2470:	b4 01       	movw	r22, r8
    2472:	0e 94 a1 29 	call	0x5342	; 0x5342 <__mulsf3>
    2476:	20 e0       	ldi	r18, 0x00	; 0
    2478:	34 e2       	ldi	r19, 0x24	; 36
    247a:	44 e7       	ldi	r20, 0x74	; 116
    247c:	59 e4       	ldi	r21, 0x49	; 73
    247e:	0e 94 ed 27 	call	0x4fda	; 0x4fda <__divsf3>
    2482:	9b 01       	movw	r18, r22
    2484:	ac 01       	movw	r20, r24
    2486:	60 91 b6 01 	lds	r22, 0x01B6
    248a:	70 91 b7 01 	lds	r23, 0x01B7
    248e:	80 91 b8 01 	lds	r24, 0x01B8
    2492:	90 91 b9 01 	lds	r25, 0x01B9
    2496:	0e 94 20 27 	call	0x4e40	; 0x4e40 <__addsf3>
    249a:	dc 01       	movw	r26, r24
    249c:	cb 01       	movw	r24, r22
    249e:	80 93 b6 01 	sts	0x01B6, r24
    24a2:	90 93 b7 01 	sts	0x01B7, r25
    24a6:	a0 93 b8 01 	sts	0x01B8, r26
    24aa:	b0 93 b9 01 	sts	0x01B9, r27
    24ae:	b7 01       	movw	r22, r14
    24b0:	88 27       	eor	r24, r24
    24b2:	77 fd       	sbrc	r23, 7
    24b4:	80 95       	com	r24
    24b6:	98 2f       	mov	r25, r24
    24b8:	0e 94 88 28 	call	0x5110	; 0x5110 <__floatsisf>
    24bc:	20 e0       	ldi	r18, 0x00	; 0
    24be:	30 e0       	ldi	r19, 0x00	; 0
    24c0:	46 e6       	ldi	r20, 0x66	; 102
    24c2:	51 e4       	ldi	r21, 0x41	; 65
    24c4:	0e 94 ed 27 	call	0x4fda	; 0x4fda <__divsf3>
    24c8:	9b 01       	movw	r18, r22
    24ca:	ac 01       	movw	r20, r24
    24cc:	c5 01       	movw	r24, r10
    24ce:	b4 01       	movw	r22, r8
    24d0:	0e 94 a1 29 	call	0x5342	; 0x5342 <__mulsf3>
    24d4:	20 e0       	ldi	r18, 0x00	; 0
    24d6:	34 e2       	ldi	r19, 0x24	; 36
    24d8:	44 e7       	ldi	r20, 0x74	; 116
    24da:	59 e4       	ldi	r21, 0x49	; 73
    24dc:	0e 94 ed 27 	call	0x4fda	; 0x4fda <__divsf3>
    24e0:	20 91 be 01 	lds	r18, 0x01BE
    24e4:	30 91 bf 01 	lds	r19, 0x01BF
    24e8:	40 91 c0 01 	lds	r20, 0x01C0
    24ec:	50 91 c1 01 	lds	r21, 0x01C1
    24f0:	0e 94 20 27 	call	0x4e40	; 0x4e40 <__addsf3>
    24f4:	06 2f       	mov	r16, r22
    24f6:	e7 2e       	mov	r14, r23
    24f8:	88 2e       	mov	r8, r24
    24fa:	19 2f       	mov	r17, r25
    24fc:	86 2f       	mov	r24, r22
    24fe:	9e 2d       	mov	r25, r14
    2500:	a8 2d       	mov	r26, r8
    2502:	b1 2f       	mov	r27, r17
    2504:	80 93 be 01 	sts	0x01BE, r24
    2508:	90 93 bf 01 	sts	0x01BF, r25
    250c:	a0 93 c0 01 	sts	0x01C0, r26
    2510:	b0 93 c1 01 	sts	0x01C1, r27
    2514:	bc 01       	movw	r22, r24
    2516:	cd 01       	movw	r24, r26
    2518:	20 e0       	ldi	r18, 0x00	; 0
    251a:	30 e0       	ldi	r19, 0x00	; 0
    251c:	a9 01       	movw	r20, r18
    251e:	0e 94 e6 27 	call	0x4fcc	; 0x4fcc <__cmpsf2>
    2522:	87 fd       	sbrc	r24, 7
    2524:	bf c2       	rjmp	.+1406   	; 0x2aa4 <SrvImuDispatcher+0x9ca>
    2526:	80 2f       	mov	r24, r16
    2528:	9e 2d       	mov	r25, r14
    252a:	a8 2d       	mov	r26, r8
    252c:	b1 2f       	mov	r27, r17
    252e:	bc 01       	movw	r22, r24
    2530:	cd 01       	movw	r24, r26
    2532:	20 e0       	ldi	r18, 0x00	; 0
    2534:	30 e0       	ldi	r19, 0x00	; 0
    2536:	44 eb       	ldi	r20, 0xB4	; 180
    2538:	53 e4       	ldi	r21, 0x43	; 67
    253a:	0e 94 96 29 	call	0x532c	; 0x532c <__gesf2>
    253e:	18 16       	cp	r1, r24
    2540:	b4 f4       	brge	.+44     	; 0x256e <SrvImuDispatcher+0x494>
    2542:	80 2f       	mov	r24, r16
    2544:	9e 2d       	mov	r25, r14
    2546:	a8 2d       	mov	r26, r8
    2548:	b1 2f       	mov	r27, r17
    254a:	bc 01       	movw	r22, r24
    254c:	cd 01       	movw	r24, r26
    254e:	20 e0       	ldi	r18, 0x00	; 0
    2550:	30 e0       	ldi	r19, 0x00	; 0
    2552:	44 eb       	ldi	r20, 0xB4	; 180
    2554:	53 e4       	ldi	r21, 0x43	; 67
    2556:	0e 94 1f 27 	call	0x4e3e	; 0x4e3e <__subsf3>
    255a:	dc 01       	movw	r26, r24
    255c:	cb 01       	movw	r24, r22
    255e:	80 93 be 01 	sts	0x01BE, r24
    2562:	90 93 bf 01 	sts	0x01BF, r25
    2566:	a0 93 c0 01 	sts	0x01C0, r26
    256a:	b0 93 c1 01 	sts	0x01C1, r27
    256e:	ce 01       	movw	r24, r28
    2570:	01 96       	adiw	r24, 0x01	; 1
    2572:	0e 94 b4 04 	call	0x968	; 0x968 <CmpHMC5883GetHeading>
    2576:	88 23       	and	r24, r24
    2578:	09 f4       	brne	.+2      	; 0x257c <SrvImuDispatcher+0x4a2>
    257a:	33 c1       	rjmp	.+614    	; 0x27e2 <SrvImuDispatcher+0x708>
    257c:	09 81       	ldd	r16, Y+1	; 0x01
    257e:	1a 81       	ldd	r17, Y+2	; 0x02
    2580:	10 95       	com	r17
    2582:	01 95       	neg	r16
    2584:	1f 4f       	sbci	r17, 0xFF	; 255
    2586:	1a 83       	std	Y+2, r17	; 0x02
    2588:	09 83       	std	Y+1, r16	; 0x01
    258a:	2b 80       	ldd	r2, Y+3	; 0x03
    258c:	3c 80       	ldd	r3, Y+4	; 0x04
    258e:	6d 81       	ldd	r22, Y+5	; 0x05
    2590:	7e 81       	ldd	r23, Y+6	; 0x06
    2592:	ee 24       	eor	r14, r14
    2594:	ff 24       	eor	r15, r15
    2596:	e6 1a       	sub	r14, r22
    2598:	f7 0a       	sbc	r15, r23
    259a:	fe 82       	std	Y+6, r15	; 0x06
    259c:	ed 82       	std	Y+5, r14	; 0x05
    259e:	40 90 aa 01 	lds	r4, 0x01AA
    25a2:	50 90 ab 01 	lds	r5, 0x01AB
    25a6:	60 90 ac 01 	lds	r6, 0x01AC
    25aa:	70 90 ad 01 	lds	r7, 0x01AD
    25ae:	c3 01       	movw	r24, r6
    25b0:	b2 01       	movw	r22, r4
    25b2:	20 e0       	ldi	r18, 0x00	; 0
    25b4:	30 e0       	ldi	r19, 0x00	; 0
    25b6:	40 e2       	ldi	r20, 0x20	; 32
    25b8:	52 e4       	ldi	r21, 0x42	; 66
    25ba:	0e 94 96 29 	call	0x532c	; 0x532c <__gesf2>
    25be:	18 16       	cp	r1, r24
    25c0:	0c f0       	brlt	.+2      	; 0x25c4 <SrvImuDispatcher+0x4ea>
    25c2:	18 c1       	rjmp	.+560    	; 0x27f4 <SrvImuDispatcher+0x71a>
    25c4:	80 90 b6 01 	lds	r8, 0x01B6
    25c8:	90 90 b7 01 	lds	r9, 0x01B7
    25cc:	a0 90 b8 01 	lds	r10, 0x01B8
    25d0:	b0 90 b9 01 	lds	r11, 0x01B9
    25d4:	60 91 c6 01 	lds	r22, 0x01C6
    25d8:	70 91 c7 01 	lds	r23, 0x01C7
    25dc:	80 91 c8 01 	lds	r24, 0x01C8
    25e0:	90 91 c9 01 	lds	r25, 0x01C9
    25e4:	0e 94 86 28 	call	0x510c	; 0x510c <__floatunsisf>
    25e8:	7b 01       	movw	r14, r22
    25ea:	8c 01       	movw	r16, r24
    25ec:	c3 01       	movw	r24, r6
    25ee:	b2 01       	movw	r22, r4
    25f0:	a5 01       	movw	r20, r10
    25f2:	94 01       	movw	r18, r8
    25f4:	0e 94 e4 15 	call	0x2bc8	; 0x2bc8 <SrvKalmanFilterX>
    25f8:	20 e0       	ldi	r18, 0x00	; 0
    25fa:	30 e0       	ldi	r19, 0x00	; 0
    25fc:	40 e2       	ldi	r20, 0x20	; 32
    25fe:	51 e4       	ldi	r21, 0x41	; 65
    2600:	0e 94 a1 29 	call	0x5342	; 0x5342 <__mulsf3>
    2604:	0e 94 55 28 	call	0x50aa	; 0x50aa <__fixsfsi>
    2608:	dc 01       	movw	r26, r24
    260a:	cb 01       	movw	r24, r22
    260c:	90 93 be 02 	sts	0x02BE, r25
    2610:	80 93 bd 02 	sts	0x02BD, r24
    2614:	80 90 ae 01 	lds	r8, 0x01AE
    2618:	90 90 af 01 	lds	r9, 0x01AF
    261c:	a0 90 b0 01 	lds	r10, 0x01B0
    2620:	b0 90 b1 01 	lds	r11, 0x01B1
    2624:	40 90 ba 01 	lds	r4, 0x01BA
    2628:	50 90 bb 01 	lds	r5, 0x01BB
    262c:	60 90 bc 01 	lds	r6, 0x01BC
    2630:	70 90 bd 01 	lds	r7, 0x01BD
    2634:	60 91 c6 01 	lds	r22, 0x01C6
    2638:	70 91 c7 01 	lds	r23, 0x01C7
    263c:	80 91 c8 01 	lds	r24, 0x01C8
    2640:	90 91 c9 01 	lds	r25, 0x01C9
    2644:	0e 94 86 28 	call	0x510c	; 0x510c <__floatunsisf>
    2648:	7b 01       	movw	r14, r22
    264a:	8c 01       	movw	r16, r24
    264c:	c5 01       	movw	r24, r10
    264e:	b4 01       	movw	r22, r8
    2650:	a3 01       	movw	r20, r6
    2652:	92 01       	movw	r18, r4
    2654:	0e 94 7b 18 	call	0x30f6	; 0x30f6 <SrvKalmanFilterY>
    2658:	20 e0       	ldi	r18, 0x00	; 0
    265a:	30 e0       	ldi	r19, 0x00	; 0
    265c:	40 e2       	ldi	r20, 0x20	; 32
    265e:	51 e4       	ldi	r21, 0x41	; 65
    2660:	0e 94 a1 29 	call	0x5342	; 0x5342 <__mulsf3>
    2664:	0e 94 55 28 	call	0x50aa	; 0x50aa <__fixsfsi>
    2668:	dc 01       	movw	r26, r24
    266a:	cb 01       	movw	r24, r22
    266c:	90 93 c0 02 	sts	0x02C0, r25
    2670:	80 93 bf 02 	sts	0x02BF, r24
    2674:	60 91 ce 01 	lds	r22, 0x01CE
    2678:	70 91 cf 01 	lds	r23, 0x01CF
    267c:	80 e0       	ldi	r24, 0x00	; 0
    267e:	90 e0       	ldi	r25, 0x00	; 0
    2680:	0e 94 86 28 	call	0x510c	; 0x510c <__floatunsisf>
    2684:	4b 01       	movw	r8, r22
    2686:	5c 01       	movw	r10, r24
    2688:	40 90 be 01 	lds	r4, 0x01BE
    268c:	50 90 bf 01 	lds	r5, 0x01BF
    2690:	60 90 c0 01 	lds	r6, 0x01C0
    2694:	70 90 c1 01 	lds	r7, 0x01C1
    2698:	60 91 c6 01 	lds	r22, 0x01C6
    269c:	70 91 c7 01 	lds	r23, 0x01C7
    26a0:	80 91 c8 01 	lds	r24, 0x01C8
    26a4:	90 91 c9 01 	lds	r25, 0x01C9
    26a8:	0e 94 86 28 	call	0x510c	; 0x510c <__floatunsisf>
    26ac:	7b 01       	movw	r14, r22
    26ae:	8c 01       	movw	r16, r24
    26b0:	c5 01       	movw	r24, r10
    26b2:	b4 01       	movw	r22, r8
    26b4:	a3 01       	movw	r20, r6
    26b6:	92 01       	movw	r18, r4
    26b8:	0e 94 12 1b 	call	0x3624	; 0x3624 <SrvKalmanFilterZ>
    26bc:	0e 94 55 28 	call	0x50aa	; 0x50aa <__fixsfsi>
    26c0:	dc 01       	movw	r26, r24
    26c2:	cb 01       	movw	r24, r22
    26c4:	90 93 c2 02 	sts	0x02C2, r25
    26c8:	80 93 c1 02 	sts	0x02C1, r24
    26cc:	80 91 c3 02 	lds	r24, 0x02C3
    26d0:	90 91 c4 02 	lds	r25, 0x02C4
    26d4:	20 91 d0 01 	lds	r18, 0x01D0
    26d8:	30 91 d1 01 	lds	r19, 0x01D1
    26dc:	82 1b       	sub	r24, r18
    26de:	93 0b       	sbc	r25, r19
    26e0:	90 93 c4 02 	sts	0x02C4, r25
    26e4:	80 93 c3 02 	sts	0x02C3, r24
    26e8:	60 91 d6 02 	lds	r22, 0x02D6
    26ec:	70 91 d7 02 	lds	r23, 0x02D7
    26f0:	88 27       	eor	r24, r24
    26f2:	77 fd       	sbrc	r23, 7
    26f4:	80 95       	com	r24
    26f6:	98 2f       	mov	r25, r24
    26f8:	0e 94 88 28 	call	0x5110	; 0x5110 <__floatsisf>
    26fc:	4b 01       	movw	r8, r22
    26fe:	5c 01       	movw	r10, r24
    2700:	60 91 bd 02 	lds	r22, 0x02BD
    2704:	70 91 be 02 	lds	r23, 0x02BE
    2708:	88 27       	eor	r24, r24
    270a:	77 fd       	sbrc	r23, 7
    270c:	80 95       	com	r24
    270e:	98 2f       	mov	r25, r24
    2710:	0e 94 88 28 	call	0x5110	; 0x5110 <__floatsisf>
    2714:	8b 01       	movw	r16, r22
    2716:	9c 01       	movw	r18, r24
    2718:	80 e0       	ldi	r24, 0x00	; 0
    271a:	b5 01       	movw	r22, r10
    271c:	a4 01       	movw	r20, r8
    271e:	0e 94 66 22 	call	0x44cc	; 0x44cc <SrvPIDCompute>
    2722:	90 93 cb 02 	sts	0x02CB, r25
    2726:	80 93 ca 02 	sts	0x02CA, r24
    272a:	60 91 d8 02 	lds	r22, 0x02D8
    272e:	70 91 d9 02 	lds	r23, 0x02D9
    2732:	88 27       	eor	r24, r24
    2734:	77 fd       	sbrc	r23, 7
    2736:	80 95       	com	r24
    2738:	98 2f       	mov	r25, r24
    273a:	0e 94 88 28 	call	0x5110	; 0x5110 <__floatsisf>
    273e:	4b 01       	movw	r8, r22
    2740:	5c 01       	movw	r10, r24
    2742:	60 91 bf 02 	lds	r22, 0x02BF
    2746:	70 91 c0 02 	lds	r23, 0x02C0
    274a:	88 27       	eor	r24, r24
    274c:	77 fd       	sbrc	r23, 7
    274e:	80 95       	com	r24
    2750:	98 2f       	mov	r25, r24
    2752:	0e 94 88 28 	call	0x5110	; 0x5110 <__floatsisf>
    2756:	8b 01       	movw	r16, r22
    2758:	9c 01       	movw	r18, r24
    275a:	81 e0       	ldi	r24, 0x01	; 1
    275c:	b5 01       	movw	r22, r10
    275e:	a4 01       	movw	r20, r8
    2760:	0e 94 66 22 	call	0x44cc	; 0x44cc <SrvPIDCompute>
    2764:	90 93 cf 02 	sts	0x02CF, r25
    2768:	80 93 ce 02 	sts	0x02CE, r24
    276c:	00 91 c1 02 	lds	r16, 0x02C1
    2770:	10 91 c2 02 	lds	r17, 0x02C2
    2774:	60 91 da 02 	lds	r22, 0x02DA
    2778:	70 91 db 02 	lds	r23, 0x02DB
    277c:	60 0f       	add	r22, r16
    277e:	71 1f       	adc	r23, r17
    2780:	88 27       	eor	r24, r24
    2782:	77 fd       	sbrc	r23, 7
    2784:	80 95       	com	r24
    2786:	98 2f       	mov	r25, r24
    2788:	0e 94 88 28 	call	0x5110	; 0x5110 <__floatsisf>
    278c:	4b 01       	movw	r8, r22
    278e:	5c 01       	movw	r10, r24
    2790:	b8 01       	movw	r22, r16
    2792:	88 27       	eor	r24, r24
    2794:	77 fd       	sbrc	r23, 7
    2796:	80 95       	com	r24
    2798:	98 2f       	mov	r25, r24
    279a:	0e 94 88 28 	call	0x5110	; 0x5110 <__floatsisf>
    279e:	8b 01       	movw	r16, r22
    27a0:	9c 01       	movw	r18, r24
    27a2:	82 e0       	ldi	r24, 0x02	; 2
    27a4:	b5 01       	movw	r22, r10
    27a6:	a4 01       	movw	r20, r8
    27a8:	0e 94 66 22 	call	0x44cc	; 0x44cc <SrvPIDCompute>
    27ac:	ac 01       	movw	r20, r24
    27ae:	90 93 bc 02 	sts	0x02BC, r25
    27b2:	80 93 bb 02 	sts	0x02BB, r24
    27b6:	80 91 c7 02 	lds	r24, 0x02C7
    27ba:	81 30       	cpi	r24, 0x01	; 1
    27bc:	09 f4       	brne	.+2      	; 0x27c0 <SrvImuDispatcher+0x6e6>
    27be:	89 c1       	rjmp	.+786    	; 0x2ad2 <SrvImuDispatcher+0x9f8>
    27c0:	60 91 ce 02 	lds	r22, 0x02CE
    27c4:	70 91 cf 02 	lds	r23, 0x02CF
    27c8:	80 91 ca 02 	lds	r24, 0x02CA
    27cc:	90 91 cb 02 	lds	r25, 0x02CB
    27d0:	0e 94 5a 20 	call	0x40b4	; 0x40b4 <SrvMotorUpdate>
    27d4:	0e 94 c9 21 	call	0x4392	; 0x4392 <SrvMotorGetSpeed>
    27d8:	90 93 d1 02 	sts	0x02D1, r25
    27dc:	80 93 d0 02 	sts	0x02D0, r24
    27e0:	9d cc       	rjmp	.-1734   	; 0x211c <SrvImuDispatcher+0x42>
    27e2:	40 90 aa 01 	lds	r4, 0x01AA
    27e6:	50 90 ab 01 	lds	r5, 0x01AB
    27ea:	60 90 ac 01 	lds	r6, 0x01AC
    27ee:	70 90 ad 01 	lds	r7, 0x01AD
    27f2:	e8 ce       	rjmp	.-560    	; 0x25c4 <SrvImuDispatcher+0x4ea>
    27f4:	c3 01       	movw	r24, r6
    27f6:	b2 01       	movw	r22, r4
    27f8:	20 e0       	ldi	r18, 0x00	; 0
    27fa:	30 e0       	ldi	r19, 0x00	; 0
    27fc:	40 e2       	ldi	r20, 0x20	; 32
    27fe:	52 ec       	ldi	r21, 0xC2	; 194
    2800:	0e 94 e6 27 	call	0x4fcc	; 0x4fcc <__cmpsf2>
    2804:	87 fd       	sbrc	r24, 7
    2806:	de ce       	rjmp	.-580    	; 0x25c4 <SrvImuDispatcher+0x4ea>
    2808:	80 90 ae 01 	lds	r8, 0x01AE
    280c:	90 90 af 01 	lds	r9, 0x01AF
    2810:	a0 90 b0 01 	lds	r10, 0x01B0
    2814:	b0 90 b1 01 	lds	r11, 0x01B1
    2818:	c5 01       	movw	r24, r10
    281a:	b4 01       	movw	r22, r8
    281c:	20 e0       	ldi	r18, 0x00	; 0
    281e:	30 e0       	ldi	r19, 0x00	; 0
    2820:	40 e2       	ldi	r20, 0x20	; 32
    2822:	52 e4       	ldi	r21, 0x42	; 66
    2824:	0e 94 96 29 	call	0x532c	; 0x532c <__gesf2>
    2828:	18 16       	cp	r1, r24
    282a:	0c f4       	brge	.+2      	; 0x282e <SrvImuDispatcher+0x754>
    282c:	cb ce       	rjmp	.-618    	; 0x25c4 <SrvImuDispatcher+0x4ea>
    282e:	c5 01       	movw	r24, r10
    2830:	b4 01       	movw	r22, r8
    2832:	20 e0       	ldi	r18, 0x00	; 0
    2834:	30 e0       	ldi	r19, 0x00	; 0
    2836:	40 e2       	ldi	r20, 0x20	; 32
    2838:	52 ec       	ldi	r21, 0xC2	; 194
    283a:	0e 94 e6 27 	call	0x4fcc	; 0x4fcc <__cmpsf2>
    283e:	87 fd       	sbrc	r24, 7
    2840:	c1 ce       	rjmp	.-638    	; 0x25c4 <SrvImuDispatcher+0x4ea>
    2842:	c5 01       	movw	r24, r10
    2844:	b4 01       	movw	r22, r8
    2846:	25 e3       	ldi	r18, 0x35	; 53
    2848:	3a ef       	ldi	r19, 0xFA	; 250
    284a:	4e e8       	ldi	r20, 0x8E	; 142
    284c:	5c e3       	ldi	r21, 0x3C	; 60
    284e:	0e 94 a1 29 	call	0x5342	; 0x5342 <__mulsf3>
    2852:	86 2e       	mov	r8, r22
    2854:	b7 2e       	mov	r11, r23
    2856:	a8 2e       	mov	r10, r24
    2858:	99 2e       	mov	r9, r25
    285a:	26 2f       	mov	r18, r22
    285c:	37 2f       	mov	r19, r23
    285e:	48 2f       	mov	r20, r24
    2860:	59 2f       	mov	r21, r25
    2862:	c9 01       	movw	r24, r18
    2864:	da 01       	movw	r26, r20
    2866:	bc 01       	movw	r22, r24
    2868:	cd 01       	movw	r24, r26
    286a:	0e 94 ea 27 	call	0x4fd4	; 0x4fd4 <cos>
    286e:	6f 8f       	std	Y+31, r22	; 0x1f
    2870:	78 a3       	lds	r23, 0x58
    2872:	89 a3       	lds	r24, 0x59
    2874:	9a a3       	lds	r25, 0x5a
    2876:	28 2d       	mov	r18, r8
    2878:	3b 2d       	mov	r19, r11
    287a:	4a 2d       	mov	r20, r10
    287c:	59 2d       	mov	r21, r9
    287e:	c9 01       	movw	r24, r18
    2880:	da 01       	movw	r26, r20
    2882:	bc 01       	movw	r22, r24
    2884:	cd 01       	movw	r24, r26
    2886:	0e 94 50 2a 	call	0x54a0	; 0x54a0 <sin>
    288a:	6b 8b       	std	Y+19, r22	; 0x13
    288c:	7c 8b       	std	Y+20, r23	; 0x14
    288e:	8d 8b       	std	Y+21, r24	; 0x15
    2890:	9e 8b       	std	Y+22, r25	; 0x16
    2892:	c3 01       	movw	r24, r6
    2894:	b2 01       	movw	r22, r4
    2896:	25 e3       	ldi	r18, 0x35	; 53
    2898:	3a ef       	ldi	r19, 0xFA	; 250
    289a:	4e e8       	ldi	r20, 0x8E	; 142
    289c:	5c e3       	ldi	r21, 0x3C	; 60
    289e:	0e 94 a1 29 	call	0x5342	; 0x5342 <__mulsf3>
    28a2:	86 2e       	mov	r8, r22
    28a4:	b7 2e       	mov	r11, r23
    28a6:	a8 2e       	mov	r10, r24
    28a8:	99 2e       	mov	r9, r25
    28aa:	26 2f       	mov	r18, r22
    28ac:	37 2f       	mov	r19, r23
    28ae:	48 2f       	mov	r20, r24
    28b0:	59 2f       	mov	r21, r25
    28b2:	c9 01       	movw	r24, r18
    28b4:	da 01       	movw	r26, r20
    28b6:	bc 01       	movw	r22, r24
    28b8:	cd 01       	movw	r24, r26
    28ba:	0e 94 ea 27 	call	0x4fd4	; 0x4fd4 <cos>
    28be:	6f 8b       	std	Y+23, r22	; 0x17
    28c0:	78 8f       	std	Y+24, r23	; 0x18
    28c2:	89 8f       	std	Y+25, r24	; 0x19
    28c4:	9a 8f       	std	Y+26, r25	; 0x1a
    28c6:	28 2d       	mov	r18, r8
    28c8:	3b 2d       	mov	r19, r11
    28ca:	4a 2d       	mov	r20, r10
    28cc:	59 2d       	mov	r21, r9
    28ce:	c9 01       	movw	r24, r18
    28d0:	da 01       	movw	r26, r20
    28d2:	bc 01       	movw	r22, r24
    28d4:	cd 01       	movw	r24, r26
    28d6:	0e 94 50 2a 	call	0x54a0	; 0x54a0 <sin>
    28da:	6b 8f       	std	Y+27, r22	; 0x1b
    28dc:	7c 8f       	std	Y+28, r23	; 0x1c
    28de:	8d 8f       	std	Y+29, r24	; 0x1d
    28e0:	9e 8f       	std	Y+30, r25	; 0x1e
    28e2:	b8 01       	movw	r22, r16
    28e4:	88 27       	eor	r24, r24
    28e6:	77 fd       	sbrc	r23, 7
    28e8:	80 95       	com	r24
    28ea:	98 2f       	mov	r25, r24
    28ec:	0e 94 88 28 	call	0x5110	; 0x5110 <__floatsisf>
    28f0:	4b 01       	movw	r8, r22
    28f2:	5c 01       	movw	r10, r24
    28f4:	b7 01       	movw	r22, r14
    28f6:	88 27       	eor	r24, r24
    28f8:	77 fd       	sbrc	r23, 7
    28fa:	80 95       	com	r24
    28fc:	98 2f       	mov	r25, r24
    28fe:	0e 94 88 28 	call	0x5110	; 0x5110 <__floatsisf>
    2902:	7b 01       	movw	r14, r22
    2904:	8c 01       	movw	r16, r24
    2906:	6b 89       	ldd	r22, Y+19	; 0x13
    2908:	7c 89       	ldd	r23, Y+20	; 0x14
    290a:	8d 89       	ldd	r24, Y+21	; 0x15
    290c:	9e 89       	ldd	r25, Y+22	; 0x16
    290e:	a5 01       	movw	r20, r10
    2910:	94 01       	movw	r18, r8
    2912:	0e 94 a1 29 	call	0x5342	; 0x5342 <__mulsf3>
    2916:	9b 01       	movw	r18, r22
    2918:	ac 01       	movw	r20, r24
    291a:	6b 8d       	ldd	r22, Y+27	; 0x1b
    291c:	7c 8d       	ldd	r23, Y+28	; 0x1c
    291e:	8d 8d       	ldd	r24, Y+29	; 0x1d
    2920:	9e 8d       	ldd	r25, Y+30	; 0x1e
    2922:	0e 94 a1 29 	call	0x5342	; 0x5342 <__mulsf3>
    2926:	6b a3       	lds	r22, 0x5b
    2928:	7c a3       	lds	r23, 0x5c
    292a:	8d a3       	lds	r24, 0x5d
    292c:	9e a3       	lds	r25, 0x5e
    292e:	b1 01       	movw	r22, r2
    2930:	88 27       	eor	r24, r24
    2932:	77 fd       	sbrc	r23, 7
    2934:	80 95       	com	r24
    2936:	98 2f       	mov	r25, r24
    2938:	0e 94 88 28 	call	0x5110	; 0x5110 <__floatsisf>
    293c:	9b 01       	movw	r18, r22
    293e:	ac 01       	movw	r20, r24
    2940:	6f 8d       	ldd	r22, Y+31	; 0x1f
    2942:	78 a1       	lds	r23, 0x48
    2944:	89 a1       	lds	r24, 0x49
    2946:	9a a1       	lds	r25, 0x4a
    2948:	0e 94 a1 29 	call	0x5342	; 0x5342 <__mulsf3>
    294c:	9b 01       	movw	r18, r22
    294e:	ac 01       	movw	r20, r24
    2950:	6b a1       	lds	r22, 0x4b
    2952:	7c a1       	lds	r23, 0x4c
    2954:	8d a1       	lds	r24, 0x4d
    2956:	9e a1       	lds	r25, 0x4e
    2958:	0e 94 20 27 	call	0x4e40	; 0x4e40 <__addsf3>
    295c:	6f 8f       	std	Y+31, r22	; 0x1f
    295e:	78 a3       	lds	r23, 0x58
    2960:	89 a3       	lds	r24, 0x59
    2962:	9a a3       	lds	r25, 0x5a
    2964:	6b 89       	ldd	r22, Y+19	; 0x13
    2966:	7c 89       	ldd	r23, Y+20	; 0x14
    2968:	8d 89       	ldd	r24, Y+21	; 0x15
    296a:	9e 89       	ldd	r25, Y+22	; 0x16
    296c:	a8 01       	movw	r20, r16
    296e:	97 01       	movw	r18, r14
    2970:	0e 94 a1 29 	call	0x5342	; 0x5342 <__mulsf3>
    2974:	9b 01       	movw	r18, r22
    2976:	ac 01       	movw	r20, r24
    2978:	6f 89       	ldd	r22, Y+23	; 0x17
    297a:	78 8d       	ldd	r23, Y+24	; 0x18
    297c:	89 8d       	ldd	r24, Y+25	; 0x19
    297e:	9a 8d       	ldd	r25, Y+26	; 0x1a
    2980:	0e 94 a1 29 	call	0x5342	; 0x5342 <__mulsf3>
    2984:	9b 01       	movw	r18, r22
    2986:	ac 01       	movw	r20, r24
    2988:	6f 8d       	ldd	r22, Y+31	; 0x1f
    298a:	78 a1       	lds	r23, 0x48
    298c:	89 a1       	lds	r24, 0x49
    298e:	9a a1       	lds	r25, 0x4a
    2990:	0e 94 1f 27 	call	0x4e3e	; 0x4e3e <__subsf3>
    2994:	6b 8b       	std	Y+19, r22	; 0x13
    2996:	7c 8b       	std	Y+20, r23	; 0x14
    2998:	8d 8b       	std	Y+21, r24	; 0x15
    299a:	9e 8b       	std	Y+22, r25	; 0x16
    299c:	6f 89       	ldd	r22, Y+23	; 0x17
    299e:	78 8d       	ldd	r23, Y+24	; 0x18
    29a0:	89 8d       	ldd	r24, Y+25	; 0x19
    29a2:	9a 8d       	ldd	r25, Y+26	; 0x1a
    29a4:	a5 01       	movw	r20, r10
    29a6:	94 01       	movw	r18, r8
    29a8:	0e 94 a1 29 	call	0x5342	; 0x5342 <__mulsf3>
    29ac:	4b 01       	movw	r8, r22
    29ae:	5c 01       	movw	r10, r24
    29b0:	6b 8d       	ldd	r22, Y+27	; 0x1b
    29b2:	7c 8d       	ldd	r23, Y+28	; 0x1c
    29b4:	8d 8d       	ldd	r24, Y+29	; 0x1d
    29b6:	9e 8d       	ldd	r25, Y+30	; 0x1e
    29b8:	a8 01       	movw	r20, r16
    29ba:	97 01       	movw	r18, r14
    29bc:	0e 94 a1 29 	call	0x5342	; 0x5342 <__mulsf3>
    29c0:	9b 01       	movw	r18, r22
    29c2:	ac 01       	movw	r20, r24
    29c4:	c5 01       	movw	r24, r10
    29c6:	b4 01       	movw	r22, r8
    29c8:	0e 94 20 27 	call	0x4e40	; 0x4e40 <__addsf3>
    29cc:	9b 01       	movw	r18, r22
    29ce:	ac 01       	movw	r20, r24
    29d0:	6b 89       	ldd	r22, Y+19	; 0x13
    29d2:	7c 89       	ldd	r23, Y+20	; 0x14
    29d4:	8d 89       	ldd	r24, Y+21	; 0x15
    29d6:	9e 89       	ldd	r25, Y+22	; 0x16
    29d8:	0e 94 93 27 	call	0x4f26	; 0x4f26 <atan2>
    29dc:	2a ec       	ldi	r18, 0xCA	; 202
    29de:	37 e3       	ldi	r19, 0x37	; 55
    29e0:	4b e5       	ldi	r20, 0x5B	; 91
    29e2:	5c e3       	ldi	r21, 0x3C	; 60
    29e4:	0e 94 1f 27 	call	0x4e3e	; 0x4e3e <__subsf3>
    29e8:	16 2f       	mov	r17, r22
    29ea:	07 2f       	mov	r16, r23
    29ec:	f8 2e       	mov	r15, r24
    29ee:	e9 2e       	mov	r14, r25
    29f0:	a8 01       	movw	r20, r16
    29f2:	97 01       	movw	r18, r14
    29f4:	85 2f       	mov	r24, r21
    29f6:	94 2f       	mov	r25, r20
    29f8:	a3 2f       	mov	r26, r19
    29fa:	b2 2f       	mov	r27, r18
    29fc:	bc 01       	movw	r22, r24
    29fe:	cd 01       	movw	r24, r26
    2a00:	20 e0       	ldi	r18, 0x00	; 0
    2a02:	30 e0       	ldi	r19, 0x00	; 0
    2a04:	a9 01       	movw	r20, r18
    2a06:	0e 94 e6 27 	call	0x4fcc	; 0x4fcc <__cmpsf2>
    2a0a:	87 ff       	sbrs	r24, 7
    2a0c:	12 c0       	rjmp	.+36     	; 0x2a32 <SrvImuDispatcher+0x958>
    2a0e:	a8 01       	movw	r20, r16
    2a10:	97 01       	movw	r18, r14
    2a12:	85 2f       	mov	r24, r21
    2a14:	94 2f       	mov	r25, r20
    2a16:	a3 2f       	mov	r26, r19
    2a18:	b2 2f       	mov	r27, r18
    2a1a:	bc 01       	movw	r22, r24
    2a1c:	cd 01       	movw	r24, r26
    2a1e:	2b ed       	ldi	r18, 0xDB	; 219
    2a20:	3f e0       	ldi	r19, 0x0F	; 15
    2a22:	49 ec       	ldi	r20, 0xC9	; 201
    2a24:	50 e4       	ldi	r21, 0x40	; 64
    2a26:	0e 94 20 27 	call	0x4e40	; 0x4e40 <__addsf3>
    2a2a:	16 2f       	mov	r17, r22
    2a2c:	07 2f       	mov	r16, r23
    2a2e:	f8 2e       	mov	r15, r24
    2a30:	e9 2e       	mov	r14, r25
    2a32:	a8 01       	movw	r20, r16
    2a34:	97 01       	movw	r18, r14
    2a36:	85 2f       	mov	r24, r21
    2a38:	90 2f       	mov	r25, r16
    2a3a:	a3 2f       	mov	r26, r19
    2a3c:	be 2d       	mov	r27, r14
    2a3e:	bc 01       	movw	r22, r24
    2a40:	cd 01       	movw	r24, r26
    2a42:	2b ed       	ldi	r18, 0xDB	; 219
    2a44:	3f e0       	ldi	r19, 0x0F	; 15
    2a46:	49 ec       	ldi	r20, 0xC9	; 201
    2a48:	50 e4       	ldi	r21, 0x40	; 64
    2a4a:	0e 94 96 29 	call	0x532c	; 0x532c <__gesf2>
    2a4e:	18 16       	cp	r1, r24
    2a50:	94 f4       	brge	.+36     	; 0x2a76 <SrvImuDispatcher+0x99c>
    2a52:	a8 01       	movw	r20, r16
    2a54:	97 01       	movw	r18, r14
    2a56:	85 2f       	mov	r24, r21
    2a58:	90 2f       	mov	r25, r16
    2a5a:	a3 2f       	mov	r26, r19
    2a5c:	be 2d       	mov	r27, r14
    2a5e:	bc 01       	movw	r22, r24
    2a60:	cd 01       	movw	r24, r26
    2a62:	2b ed       	ldi	r18, 0xDB	; 219
    2a64:	3f e0       	ldi	r19, 0x0F	; 15
    2a66:	49 ec       	ldi	r20, 0xC9	; 201
    2a68:	50 e4       	ldi	r21, 0x40	; 64
    2a6a:	0e 94 1f 27 	call	0x4e3e	; 0x4e3e <__subsf3>
    2a6e:	16 2f       	mov	r17, r22
    2a70:	07 2f       	mov	r16, r23
    2a72:	f8 2e       	mov	r15, r24
    2a74:	e9 2e       	mov	r14, r25
    2a76:	a8 01       	movw	r20, r16
    2a78:	97 01       	movw	r18, r14
    2a7a:	85 2f       	mov	r24, r21
    2a7c:	90 2f       	mov	r25, r16
    2a7e:	a3 2f       	mov	r26, r19
    2a80:	be 2d       	mov	r27, r14
    2a82:	bc 01       	movw	r22, r24
    2a84:	cd 01       	movw	r24, r26
    2a86:	20 ee       	ldi	r18, 0xE0	; 224
    2a88:	3e e2       	ldi	r19, 0x2E	; 46
    2a8a:	45 e6       	ldi	r20, 0x65	; 101
    2a8c:	52 e4       	ldi	r21, 0x42	; 66
    2a8e:	0e 94 a1 29 	call	0x5342	; 0x5342 <__mulsf3>
    2a92:	0e 94 5a 28 	call	0x50b4	; 0x50b4 <__fixunssfsi>
    2a96:	dc 01       	movw	r26, r24
    2a98:	cb 01       	movw	r24, r22
    2a9a:	90 93 cf 01 	sts	0x01CF, r25
    2a9e:	80 93 ce 01 	sts	0x01CE, r24
    2aa2:	90 cd       	rjmp	.-1248   	; 0x25c4 <SrvImuDispatcher+0x4ea>
    2aa4:	80 2f       	mov	r24, r16
    2aa6:	9e 2d       	mov	r25, r14
    2aa8:	a8 2d       	mov	r26, r8
    2aaa:	b1 2f       	mov	r27, r17
    2aac:	bc 01       	movw	r22, r24
    2aae:	cd 01       	movw	r24, r26
    2ab0:	20 e0       	ldi	r18, 0x00	; 0
    2ab2:	30 e0       	ldi	r19, 0x00	; 0
    2ab4:	44 eb       	ldi	r20, 0xB4	; 180
    2ab6:	53 e4       	ldi	r21, 0x43	; 67
    2ab8:	0e 94 20 27 	call	0x4e40	; 0x4e40 <__addsf3>
    2abc:	dc 01       	movw	r26, r24
    2abe:	cb 01       	movw	r24, r22
    2ac0:	80 93 be 01 	sts	0x01BE, r24
    2ac4:	90 93 bf 01 	sts	0x01BF, r25
    2ac8:	a0 93 c0 01 	sts	0x01C0, r26
    2acc:	b0 93 c1 01 	sts	0x01C1, r27
    2ad0:	4e cd       	rjmp	.-1380   	; 0x256e <SrvImuDispatcher+0x494>
    2ad2:	60 91 dc 02 	lds	r22, 0x02DC
    2ad6:	70 91 dd 02 	lds	r23, 0x02DD
    2ada:	80 e0       	ldi	r24, 0x00	; 0
    2adc:	90 e0       	ldi	r25, 0x00	; 0
    2ade:	0e 94 86 28 	call	0x510c	; 0x510c <__floatunsisf>
    2ae2:	4b 01       	movw	r8, r22
    2ae4:	5c 01       	movw	r10, r24
    2ae6:	60 91 c3 02 	lds	r22, 0x02C3
    2aea:	70 91 c4 02 	lds	r23, 0x02C4
    2aee:	80 e0       	ldi	r24, 0x00	; 0
    2af0:	90 e0       	ldi	r25, 0x00	; 0
    2af2:	0e 94 86 28 	call	0x510c	; 0x510c <__floatunsisf>
    2af6:	8b 01       	movw	r16, r22
    2af8:	9c 01       	movw	r18, r24
    2afa:	83 e0       	ldi	r24, 0x03	; 3
    2afc:	b5 01       	movw	r22, r10
    2afe:	a4 01       	movw	r20, r8
    2b00:	0e 94 66 22 	call	0x44cc	; 0x44cc <SrvPIDCompute>
    2b04:	90 93 cd 02 	sts	0x02CD, r25
    2b08:	80 93 cc 02 	sts	0x02CC, r24
    2b0c:	40 91 bb 02 	lds	r20, 0x02BB
    2b10:	50 91 bc 02 	lds	r21, 0x02BC
    2b14:	55 ce       	rjmp	.-854    	; 0x27c0 <SrvImuDispatcher+0x6e6>

00002b16 <SrvImuSensorsSetAltitudeDepart>:
    2b16:	80 91 c3 02 	lds	r24, 0x02C3
    2b1a:	90 91 c4 02 	lds	r25, 0x02C4
    2b1e:	90 93 d1 01 	sts	0x01D1, r25
    2b22:	80 93 d0 01 	sts	0x01D0, r24
    2b26:	08 95       	ret

00002b28 <SrvImuSensorsSetAltitudeMaintient>:
    2b28:	88 23       	and	r24, r24
    2b2a:	19 f4       	brne	.+6      	; 0x2b32 <SrvImuSensorsSetAltitudeMaintient+0xa>
    2b2c:	10 92 c7 02 	sts	0x02C7, r1
    2b30:	08 95       	ret
    2b32:	91 e0       	ldi	r25, 0x01	; 1
    2b34:	90 93 c7 02 	sts	0x02C7, r25
    2b38:	20 91 d0 01 	lds	r18, 0x01D0
    2b3c:	30 91 d1 01 	lds	r19, 0x01D1
    2b40:	28 0f       	add	r18, r24
    2b42:	31 1d       	adc	r19, r1
    2b44:	30 93 dd 02 	sts	0x02DD, r19
    2b48:	20 93 dc 02 	sts	0x02DC, r18
    2b4c:	08 95       	ret

00002b4e <SrvImuSensorsCalibration>:
    2b4e:	0f 93       	push	r16
    2b50:	1f 93       	push	r17
    2b52:	cf 93       	push	r28
    2b54:	df 93       	push	r29
    2b56:	cd b7       	in	r28, 0x3d	; 61
    2b58:	de b7       	in	r29, 0x3e	; 62
    2b5a:	62 97       	sbiw	r28, 0x12	; 18
    2b5c:	0f b6       	in	r0, 0x3f	; 63
    2b5e:	f8 94       	cli
    2b60:	de bf       	out	0x3e, r29	; 62
    2b62:	0f be       	out	0x3f, r0	; 63
    2b64:	cd bf       	out	0x3d, r28	; 61
    2b66:	10 e0       	ldi	r17, 0x00	; 0
    2b68:	ce 01       	movw	r24, r28
    2b6a:	07 96       	adiw	r24, 0x07	; 7
    2b6c:	0e 94 24 01 	call	0x248	; 0x248 <CmpBMA180GetAcceleration>
    2b70:	ce 01       	movw	r24, r28
    2b72:	0d 96       	adiw	r24, 0x0d	; 13
    2b74:	0e 94 5b 05 	call	0xab6	; 0xab6 <CmpITG3205GetRotation>
    2b78:	ce 01       	movw	r24, r28
    2b7a:	01 96       	adiw	r24, 0x01	; 1
    2b7c:	0e 94 b4 04 	call	0x968	; 0x968 <CmpHMC5883GetHeading>
    2b80:	0e 94 4f 05 	call	0xa9e	; 0xa9e <CmpITG3205IsCalibrate>
    2b84:	08 2f       	mov	r16, r24
    2b86:	01 2b       	or	r16, r17
    2b88:	0e 94 18 01 	call	0x230	; 0x230 <CmpBMA180IsCalibrate>
    2b8c:	18 2f       	mov	r17, r24
    2b8e:	0e 94 ae 04 	call	0x95c	; 0x95c <CmpHMC5883IsCalibrate>
    2b92:	91 2f       	mov	r25, r17
    2b94:	99 0f       	add	r25, r25
    2b96:	18 2f       	mov	r17, r24
    2b98:	11 0f       	add	r17, r17
    2b9a:	11 0f       	add	r17, r17
    2b9c:	19 2b       	or	r17, r25
    2b9e:	10 2b       	or	r17, r16
    2ba0:	17 30       	cpi	r17, 0x07	; 7
    2ba2:	29 f0       	breq	.+10     	; 0x2bae <SrvImuSensorsCalibration+0x60>
    2ba4:	84 e1       	ldi	r24, 0x14	; 20
    2ba6:	90 e0       	ldi	r25, 0x00	; 0
    2ba8:	0e 94 c7 09 	call	0x138e	; 0x138e <DrvTimerDelayMs>
    2bac:	dd cf       	rjmp	.-70     	; 0x2b68 <SrvImuSensorsCalibration+0x1a>
    2bae:	0e 94 61 06 	call	0xcc2	; 0xcc2 <DrvEepromConfigure>
    2bb2:	62 96       	adiw	r28, 0x12	; 18
    2bb4:	0f b6       	in	r0, 0x3f	; 63
    2bb6:	f8 94       	cli
    2bb8:	de bf       	out	0x3e, r29	; 62
    2bba:	0f be       	out	0x3f, r0	; 63
    2bbc:	cd bf       	out	0x3d, r28	; 61
    2bbe:	df 91       	pop	r29
    2bc0:	cf 91       	pop	r28
    2bc2:	1f 91       	pop	r17
    2bc4:	0f 91       	pop	r16
    2bc6:	08 95       	ret

00002bc8 <SrvKalmanFilterX>:
    2bc8:	2f 92       	push	r2
    2bca:	3f 92       	push	r3
    2bcc:	4f 92       	push	r4
    2bce:	5f 92       	push	r5
    2bd0:	6f 92       	push	r6
    2bd2:	7f 92       	push	r7
    2bd4:	8f 92       	push	r8
    2bd6:	9f 92       	push	r9
    2bd8:	af 92       	push	r10
    2bda:	bf 92       	push	r11
    2bdc:	cf 92       	push	r12
    2bde:	df 92       	push	r13
    2be0:	ef 92       	push	r14
    2be2:	ff 92       	push	r15
    2be4:	0f 93       	push	r16
    2be6:	1f 93       	push	r17
    2be8:	cf 93       	push	r28
    2bea:	df 93       	push	r29
    2bec:	cd b7       	in	r28, 0x3d	; 61
    2bee:	de b7       	in	r29, 0x3e	; 62
    2bf0:	a2 97       	sbiw	r28, 0x22	; 34
    2bf2:	0f b6       	in	r0, 0x3f	; 63
    2bf4:	f8 94       	cli
    2bf6:	de bf       	out	0x3e, r29	; 62
    2bf8:	0f be       	out	0x3f, r0	; 63
    2bfa:	cd bf       	out	0x3d, r28	; 61
    2bfc:	6e 8f       	std	Y+30, r22	; 0x1e
    2bfe:	7f 8f       	std	Y+31, r23	; 0x1f
    2c00:	88 a3       	lds	r24, 0x58
    2c02:	99 a3       	lds	r25, 0x59
    2c04:	49 01       	movw	r8, r18
    2c06:	5a 01       	movw	r10, r20
    2c08:	c8 01       	movw	r24, r16
    2c0a:	b7 01       	movw	r22, r14
    2c0c:	20 e0       	ldi	r18, 0x00	; 0
    2c0e:	30 e4       	ldi	r19, 0x40	; 64
    2c10:	4c e1       	ldi	r20, 0x1C	; 28
    2c12:	56 e4       	ldi	r21, 0x46	; 70
    2c14:	0e 94 ed 27 	call	0x4fda	; 0x4fda <__divsf3>
    2c18:	69 83       	std	Y+1, r22	; 0x01
    2c1a:	7a 83       	std	Y+2, r23	; 0x02
    2c1c:	8b 83       	std	Y+3, r24	; 0x03
    2c1e:	9c 83       	std	Y+4, r25	; 0x04
    2c20:	6b 01       	movw	r12, r22
    2c22:	7c 01       	movw	r14, r24
    2c24:	cb 01       	movw	r24, r22
    2c26:	ab 81       	ldd	r26, Y+3	; 0x03
    2c28:	bc 81       	ldd	r27, Y+4	; 0x04
    2c2a:	80 93 71 03 	sts	0x0371, r24
    2c2e:	90 93 72 03 	sts	0x0372, r25
    2c32:	a0 93 73 03 	sts	0x0373, r26
    2c36:	b0 93 74 03 	sts	0x0374, r27
    2c3a:	80 91 32 02 	lds	r24, 0x0232
    2c3e:	90 91 33 02 	lds	r25, 0x0233
    2c42:	a0 91 34 02 	lds	r26, 0x0234
    2c46:	b0 91 35 02 	lds	r27, 0x0235
    2c4a:	8e 87       	std	Y+14, r24	; 0x0e
    2c4c:	9f 87       	std	Y+15, r25	; 0x0f
    2c4e:	a8 8b       	std	Y+16, r26	; 0x10
    2c50:	b9 8b       	std	Y+17, r27	; 0x11
    2c52:	c5 01       	movw	r24, r10
    2c54:	b4 01       	movw	r22, r8
    2c56:	2e 85       	ldd	r18, Y+14	; 0x0e
    2c58:	3f 85       	ldd	r19, Y+15	; 0x0f
    2c5a:	48 89       	ldd	r20, Y+16	; 0x10
    2c5c:	59 89       	ldd	r21, Y+17	; 0x11
    2c5e:	0e 94 1f 27 	call	0x4e3e	; 0x4e3e <__subsf3>
    2c62:	9b 01       	movw	r18, r22
    2c64:	ac 01       	movw	r20, r24
    2c66:	89 81       	ldd	r24, Y+1	; 0x01
    2c68:	9a 81       	ldd	r25, Y+2	; 0x02
    2c6a:	ab 81       	ldd	r26, Y+3	; 0x03
    2c6c:	bc 81       	ldd	r27, Y+4	; 0x04
    2c6e:	bc 01       	movw	r22, r24
    2c70:	cd 01       	movw	r24, r26
    2c72:	0e 94 a1 29 	call	0x5342	; 0x5342 <__mulsf3>
    2c76:	20 91 36 02 	lds	r18, 0x0236
    2c7a:	30 91 37 02 	lds	r19, 0x0237
    2c7e:	40 91 38 02 	lds	r20, 0x0238
    2c82:	50 91 39 02 	lds	r21, 0x0239
    2c86:	0e 94 20 27 	call	0x4e40	; 0x4e40 <__addsf3>
    2c8a:	69 87       	std	Y+9, r22	; 0x09
    2c8c:	7a 87       	std	Y+10, r23	; 0x0a
    2c8e:	8b 87       	std	Y+11, r24	; 0x0b
    2c90:	9c 87       	std	Y+12, r25	; 0x0c
    2c92:	f7 fa       	bst	r15, 7
    2c94:	f0 94       	com	r15
    2c96:	f7 f8       	bld	r15, 7
    2c98:	f0 94       	com	r15
    2c9a:	40 90 26 02 	lds	r4, 0x0226
    2c9e:	50 90 27 02 	lds	r5, 0x0227
    2ca2:	60 90 28 02 	lds	r6, 0x0228
    2ca6:	70 90 29 02 	lds	r7, 0x0229
    2caa:	80 90 2a 02 	lds	r8, 0x022A
    2cae:	90 90 2b 02 	lds	r9, 0x022B
    2cb2:	a0 90 2c 02 	lds	r10, 0x022C
    2cb6:	b0 90 2d 02 	lds	r11, 0x022D
    2cba:	c3 01       	movw	r24, r6
    2cbc:	b2 01       	movw	r22, r4
    2cbe:	a5 01       	movw	r20, r10
    2cc0:	94 01       	movw	r18, r8
    2cc2:	0e 94 20 27 	call	0x4e40	; 0x4e40 <__addsf3>
    2cc6:	9b 01       	movw	r18, r22
    2cc8:	ac 01       	movw	r20, r24
    2cca:	c7 01       	movw	r24, r14
    2ccc:	b6 01       	movw	r22, r12
    2cce:	0e 94 a1 29 	call	0x5342	; 0x5342 <__mulsf3>
    2cd2:	6d 83       	std	Y+5, r22	; 0x05
    2cd4:	7e 83       	std	Y+6, r23	; 0x06
    2cd6:	8f 83       	std	Y+7, r24	; 0x07
    2cd8:	98 87       	std	Y+8, r25	; 0x08
    2cda:	89 81       	ldd	r24, Y+1	; 0x01
    2cdc:	9a 81       	ldd	r25, Y+2	; 0x02
    2cde:	ab 81       	ldd	r26, Y+3	; 0x03
    2ce0:	bc 81       	ldd	r27, Y+4	; 0x04
    2ce2:	bc 01       	movw	r22, r24
    2ce4:	cd 01       	movw	r24, r26
    2ce6:	2f e6       	ldi	r18, 0x6F	; 111
    2ce8:	32 e1       	ldi	r19, 0x12	; 18
    2cea:	43 e8       	ldi	r20, 0x83	; 131
    2cec:	5a e3       	ldi	r21, 0x3A	; 58
    2cee:	0e 94 a1 29 	call	0x5342	; 0x5342 <__mulsf3>
    2cf2:	9b 01       	movw	r18, r22
    2cf4:	ac 01       	movw	r20, r24
    2cf6:	6d 81       	ldd	r22, Y+5	; 0x05
    2cf8:	7e 81       	ldd	r23, Y+6	; 0x06
    2cfa:	8f 81       	ldd	r24, Y+7	; 0x07
    2cfc:	98 85       	ldd	r25, Y+8	; 0x08
    2cfe:	0e 94 20 27 	call	0x4e40	; 0x4e40 <__addsf3>
    2d02:	20 91 2e 02 	lds	r18, 0x022E
    2d06:	30 91 2f 02 	lds	r19, 0x022F
    2d0a:	40 91 30 02 	lds	r20, 0x0230
    2d0e:	50 91 31 02 	lds	r21, 0x0231
    2d12:	0e 94 20 27 	call	0x4e40	; 0x4e40 <__addsf3>
    2d16:	36 2e       	mov	r3, r22
    2d18:	27 2e       	mov	r2, r23
    2d1a:	8d 83       	std	Y+5, r24	; 0x05
    2d1c:	9d 87       	std	Y+13, r25	; 0x0d
    2d1e:	80 91 22 02 	lds	r24, 0x0222
    2d22:	90 91 23 02 	lds	r25, 0x0223
    2d26:	a0 91 24 02 	lds	r26, 0x0224
    2d2a:	b0 91 25 02 	lds	r27, 0x0225
    2d2e:	8a 8b       	std	Y+18, r24	; 0x12
    2d30:	9b 8b       	std	Y+19, r25	; 0x13
    2d32:	ac 8b       	std	Y+20, r26	; 0x14
    2d34:	bd 8b       	std	Y+21, r27	; 0x15
    2d36:	c7 01       	movw	r24, r14
    2d38:	b6 01       	movw	r22, r12
    2d3a:	2a 89       	ldd	r18, Y+18	; 0x12
    2d3c:	3b 89       	ldd	r19, Y+19	; 0x13
    2d3e:	4c 89       	ldd	r20, Y+20	; 0x14
    2d40:	5d 89       	ldd	r21, Y+21	; 0x15
    2d42:	0e 94 a1 29 	call	0x5342	; 0x5342 <__mulsf3>
    2d46:	d6 2e       	mov	r13, r22
    2d48:	c7 2e       	mov	r12, r23
    2d4a:	f8 2e       	mov	r15, r24
    2d4c:	e9 2e       	mov	r14, r25
    2d4e:	c5 01       	movw	r24, r10
    2d50:	b4 01       	movw	r22, r8
    2d52:	f6 01       	movw	r30, r12
    2d54:	a7 01       	movw	r20, r14
    2d56:	0f 2f       	mov	r16, r31
    2d58:	1e 2f       	mov	r17, r30
    2d5a:	25 2f       	mov	r18, r21
    2d5c:	34 2f       	mov	r19, r20
    2d5e:	a9 01       	movw	r20, r18
    2d60:	98 01       	movw	r18, r16
    2d62:	0e 94 20 27 	call	0x4e40	; 0x4e40 <__addsf3>
    2d66:	6e 8b       	std	Y+22, r22	; 0x16
    2d68:	7f 8b       	std	Y+23, r23	; 0x17
    2d6a:	88 8f       	std	Y+24, r24	; 0x18
    2d6c:	99 8f       	std	Y+25, r25	; 0x19
    2d6e:	c3 01       	movw	r24, r6
    2d70:	b2 01       	movw	r22, r4
    2d72:	a7 01       	movw	r20, r14
    2d74:	25 2f       	mov	r18, r21
    2d76:	34 2f       	mov	r19, r20
    2d78:	a9 01       	movw	r20, r18
    2d7a:	98 01       	movw	r18, r16
    2d7c:	0e 94 20 27 	call	0x4e40	; 0x4e40 <__addsf3>
    2d80:	6a 8f       	std	Y+26, r22	; 0x1a
    2d82:	7b 8f       	std	Y+27, r23	; 0x1b
    2d84:	8c 8f       	std	Y+28, r24	; 0x1c
    2d86:	9d 8f       	std	Y+29, r25	; 0x1d
    2d88:	a1 01       	movw	r20, r2
    2d8a:	3d 81       	ldd	r19, Y+5	; 0x05
    2d8c:	2d 85       	ldd	r18, Y+13	; 0x0d
    2d8e:	85 2f       	mov	r24, r21
    2d90:	94 2f       	mov	r25, r20
    2d92:	a3 2f       	mov	r26, r19
    2d94:	b2 2f       	mov	r27, r18
    2d96:	bc 01       	movw	r22, r24
    2d98:	cd 01       	movw	r24, r26
    2d9a:	2f e8       	ldi	r18, 0x8F	; 143
    2d9c:	32 ec       	ldi	r19, 0xC2	; 194
    2d9e:	45 ef       	ldi	r20, 0xF5	; 245
    2da0:	5c e3       	ldi	r21, 0x3C	; 60
    2da2:	0e 94 20 27 	call	0x4e40	; 0x4e40 <__addsf3>
    2da6:	b6 2e       	mov	r11, r22
    2da8:	c7 2e       	mov	r12, r23
    2daa:	f8 2e       	mov	r15, r24
    2dac:	e9 2e       	mov	r14, r25
    2dae:	97 01       	movw	r18, r14
    2db0:	86 2f       	mov	r24, r22
    2db2:	9c 2d       	mov	r25, r12
    2db4:	a3 2f       	mov	r26, r19
    2db6:	b2 2f       	mov	r27, r18
    2db8:	80 93 79 03 	sts	0x0379, r24
    2dbc:	90 93 7a 03 	sts	0x037A, r25
    2dc0:	a0 93 7b 03 	sts	0x037B, r26
    2dc4:	b0 93 7c 03 	sts	0x037C, r27
    2dc8:	a1 01       	movw	r20, r2
    2dca:	3d 81       	ldd	r19, Y+5	; 0x05
    2dcc:	2d 85       	ldd	r18, Y+13	; 0x0d
    2dce:	85 2f       	mov	r24, r21
    2dd0:	94 2f       	mov	r25, r20
    2dd2:	a3 2f       	mov	r26, r19
    2dd4:	b2 2f       	mov	r27, r18
    2dd6:	bc 01       	movw	r22, r24
    2dd8:	cd 01       	movw	r24, r26
    2dda:	a7 01       	movw	r20, r14
    2ddc:	0b 2d       	mov	r16, r11
    2dde:	1c 2d       	mov	r17, r12
    2de0:	25 2f       	mov	r18, r21
    2de2:	34 2f       	mov	r19, r20
    2de4:	a9 01       	movw	r20, r18
    2de6:	98 01       	movw	r18, r16
    2de8:	0e 94 ed 27 	call	0x4fda	; 0x4fda <__divsf3>
    2dec:	16 2f       	mov	r17, r22
    2dee:	07 2f       	mov	r16, r23
    2df0:	4c 01       	movw	r8, r24
    2df2:	a8 01       	movw	r20, r16
    2df4:	85 2f       	mov	r24, r21
    2df6:	94 2f       	mov	r25, r20
    2df8:	a8 2d       	mov	r26, r8
    2dfa:	b9 2d       	mov	r27, r9
    2dfc:	80 93 59 03 	sts	0x0359, r24
    2e00:	90 93 5a 03 	sts	0x035A, r25
    2e04:	a0 93 5b 03 	sts	0x035B, r26
    2e08:	b0 93 5c 03 	sts	0x035C, r27
    2e0c:	5a 8d       	ldd	r21, Y+26	; 0x1a
    2e0e:	4b 8d       	ldd	r20, Y+27	; 0x1b
    2e10:	3c 8d       	ldd	r19, Y+28	; 0x1c
    2e12:	2d 8d       	ldd	r18, Y+29	; 0x1d
    2e14:	85 2f       	mov	r24, r21
    2e16:	94 2f       	mov	r25, r20
    2e18:	a3 2f       	mov	r26, r19
    2e1a:	b2 2f       	mov	r27, r18
    2e1c:	bc 01       	movw	r22, r24
    2e1e:	cd 01       	movw	r24, r26
    2e20:	4c 2d       	mov	r20, r12
    2e22:	97 01       	movw	r18, r14
    2e24:	cb 2c       	mov	r12, r11
    2e26:	d4 2e       	mov	r13, r20
    2e28:	e3 2e       	mov	r14, r19
    2e2a:	f2 2e       	mov	r15, r18
    2e2c:	a7 01       	movw	r20, r14
    2e2e:	96 01       	movw	r18, r12
    2e30:	0e 94 ed 27 	call	0x4fda	; 0x4fda <__divsf3>
    2e34:	46 2e       	mov	r4, r22
    2e36:	77 2e       	mov	r7, r23
    2e38:	68 2e       	mov	r6, r24
    2e3a:	59 2e       	mov	r5, r25
    2e3c:	86 2f       	mov	r24, r22
    2e3e:	97 2d       	mov	r25, r7
    2e40:	a6 2d       	mov	r26, r6
    2e42:	b5 2d       	mov	r27, r5
    2e44:	80 93 69 03 	sts	0x0369, r24
    2e48:	90 93 6a 03 	sts	0x036A, r25
    2e4c:	a0 93 6b 03 	sts	0x036B, r26
    2e50:	b0 93 6c 03 	sts	0x036C, r27
    2e54:	6e 8d       	ldd	r22, Y+30	; 0x1e
    2e56:	7f 8d       	ldd	r23, Y+31	; 0x1f
    2e58:	88 a1       	lds	r24, 0x48
    2e5a:	99 a1       	lds	r25, 0x49
    2e5c:	59 85       	ldd	r21, Y+9	; 0x09
    2e5e:	4a 85       	ldd	r20, Y+10	; 0x0a
    2e60:	3b 85       	ldd	r19, Y+11	; 0x0b
    2e62:	2c 85       	ldd	r18, Y+12	; 0x0c
    2e64:	c5 2e       	mov	r12, r21
    2e66:	d4 2e       	mov	r13, r20
    2e68:	e3 2e       	mov	r14, r19
    2e6a:	f2 2e       	mov	r15, r18
    2e6c:	a7 01       	movw	r20, r14
    2e6e:	96 01       	movw	r18, r12
    2e70:	0e 94 1f 27 	call	0x4e3e	; 0x4e3e <__subsf3>
    2e74:	6e 8f       	std	Y+30, r22	; 0x1e
    2e76:	7a a3       	lds	r23, 0x5a
    2e78:	b8 2e       	mov	r11, r24
    2e7a:	a9 2e       	mov	r10, r25
    2e7c:	47 2f       	mov	r20, r23
    2e7e:	95 01       	movw	r18, r10
    2e80:	86 2f       	mov	r24, r22
    2e82:	94 2f       	mov	r25, r20
    2e84:	a3 2f       	mov	r26, r19
    2e86:	b2 2f       	mov	r27, r18
    2e88:	80 93 6d 03 	sts	0x036D, r24
    2e8c:	90 93 6e 03 	sts	0x036E, r25
    2e90:	a0 93 6f 03 	sts	0x036F, r26
    2e94:	b0 93 70 03 	sts	0x0370, r27
    2e98:	a8 01       	movw	r20, r16
    2e9a:	85 2f       	mov	r24, r21
    2e9c:	94 2f       	mov	r25, r20
    2e9e:	a8 2d       	mov	r26, r8
    2ea0:	b9 2d       	mov	r27, r9
    2ea2:	bc 01       	movw	r22, r24
    2ea4:	cd 01       	movw	r24, r26
    2ea6:	5e 8d       	ldd	r21, Y+30	; 0x1e
    2ea8:	4a a1       	lds	r20, 0x4a
    2eaa:	95 01       	movw	r18, r10
    2eac:	c5 2e       	mov	r12, r21
    2eae:	d4 2e       	mov	r13, r20
    2eb0:	e3 2e       	mov	r14, r19
    2eb2:	f2 2e       	mov	r15, r18
    2eb4:	a7 01       	movw	r20, r14
    2eb6:	96 01       	movw	r18, r12
    2eb8:	0e 94 a1 29 	call	0x5342	; 0x5342 <__mulsf3>
    2ebc:	9b 01       	movw	r18, r22
    2ebe:	ac 01       	movw	r20, r24
    2ec0:	f9 85       	ldd	r31, Y+9	; 0x09
    2ec2:	ea 85       	ldd	r30, Y+10	; 0x0a
    2ec4:	7b 85       	ldd	r23, Y+11	; 0x0b
    2ec6:	6c 85       	ldd	r22, Y+12	; 0x0c
    2ec8:	8f 2f       	mov	r24, r31
    2eca:	9e 2f       	mov	r25, r30
    2ecc:	a7 2f       	mov	r26, r23
    2ece:	b6 2f       	mov	r27, r22
    2ed0:	bc 01       	movw	r22, r24
    2ed2:	cd 01       	movw	r24, r26
    2ed4:	0e 94 20 27 	call	0x4e40	; 0x4e40 <__addsf3>
    2ed8:	69 87       	std	Y+9, r22	; 0x09
    2eda:	7a 87       	std	Y+10, r23	; 0x0a
    2edc:	8b 87       	std	Y+11, r24	; 0x0b
    2ede:	9c 87       	std	Y+12, r25	; 0x0c
    2ee0:	47 2f       	mov	r20, r23
    2ee2:	38 2f       	mov	r19, r24
    2ee4:	29 2f       	mov	r18, r25
    2ee6:	86 2f       	mov	r24, r22
    2ee8:	94 2f       	mov	r25, r20
    2eea:	a3 2f       	mov	r26, r19
    2eec:	b2 2f       	mov	r27, r18
    2eee:	80 93 36 02 	sts	0x0236, r24
    2ef2:	90 93 37 02 	sts	0x0237, r25
    2ef6:	a0 93 38 02 	sts	0x0238, r26
    2efa:	b0 93 39 02 	sts	0x0239, r27
    2efe:	84 2d       	mov	r24, r4
    2f00:	97 2d       	mov	r25, r7
    2f02:	a6 2d       	mov	r26, r6
    2f04:	b5 2d       	mov	r27, r5
    2f06:	bc 01       	movw	r22, r24
    2f08:	cd 01       	movw	r24, r26
    2f0a:	a7 01       	movw	r20, r14
    2f0c:	96 01       	movw	r18, r12
    2f0e:	0e 94 a1 29 	call	0x5342	; 0x5342 <__mulsf3>
    2f12:	9b 01       	movw	r18, r22
    2f14:	ac 01       	movw	r20, r24
    2f16:	6e 85       	ldd	r22, Y+14	; 0x0e
    2f18:	7f 85       	ldd	r23, Y+15	; 0x0f
    2f1a:	88 89       	ldd	r24, Y+16	; 0x10
    2f1c:	99 89       	ldd	r25, Y+17	; 0x11
    2f1e:	0e 94 20 27 	call	0x4e40	; 0x4e40 <__addsf3>
    2f22:	dc 01       	movw	r26, r24
    2f24:	cb 01       	movw	r24, r22
    2f26:	80 93 32 02 	sts	0x0232, r24
    2f2a:	90 93 33 02 	sts	0x0233, r25
    2f2e:	a0 93 34 02 	sts	0x0234, r26
    2f32:	b0 93 35 02 	sts	0x0235, r27
    2f36:	a1 01       	movw	r20, r2
    2f38:	3d 81       	ldd	r19, Y+5	; 0x05
    2f3a:	2d 85       	ldd	r18, Y+13	; 0x0d
    2f3c:	85 2f       	mov	r24, r21
    2f3e:	94 2f       	mov	r25, r20
    2f40:	a3 2f       	mov	r26, r19
    2f42:	b2 2f       	mov	r27, r18
    2f44:	bc 01       	movw	r22, r24
    2f46:	cd 01       	movw	r24, r26
    2f48:	a8 01       	movw	r20, r16
    2f4a:	c5 2e       	mov	r12, r21
    2f4c:	d4 2e       	mov	r13, r20
    2f4e:	e8 2c       	mov	r14, r8
    2f50:	f9 2c       	mov	r15, r9
    2f52:	a7 01       	movw	r20, r14
    2f54:	96 01       	movw	r18, r12
    2f56:	0e 94 a1 29 	call	0x5342	; 0x5342 <__mulsf3>
    2f5a:	9b 01       	movw	r18, r22
    2f5c:	ac 01       	movw	r20, r24
    2f5e:	f1 01       	movw	r30, r2
    2f60:	7d 81       	ldd	r23, Y+5	; 0x05
    2f62:	6d 85       	ldd	r22, Y+13	; 0x0d
    2f64:	8f 2f       	mov	r24, r31
    2f66:	9e 2f       	mov	r25, r30
    2f68:	a7 2f       	mov	r26, r23
    2f6a:	b6 2f       	mov	r27, r22
    2f6c:	bc 01       	movw	r22, r24
    2f6e:	cd 01       	movw	r24, r26
    2f70:	0e 94 1f 27 	call	0x4e3e	; 0x4e3e <__subsf3>
    2f74:	d6 2e       	mov	r13, r22
    2f76:	c7 2e       	mov	r12, r23
    2f78:	f8 2e       	mov	r15, r24
    2f7a:	e9 2e       	mov	r14, r25
    2f7c:	a6 01       	movw	r20, r12
    2f7e:	97 01       	movw	r18, r14
    2f80:	85 2f       	mov	r24, r21
    2f82:	94 2f       	mov	r25, r20
    2f84:	a3 2f       	mov	r26, r19
    2f86:	b2 2f       	mov	r27, r18
    2f88:	80 93 2e 02 	sts	0x022E, r24
    2f8c:	90 93 2f 02 	sts	0x022F, r25
    2f90:	a0 93 30 02 	sts	0x0230, r26
    2f94:	b0 93 31 02 	sts	0x0231, r27
    2f98:	5e 89       	ldd	r21, Y+22	; 0x16
    2f9a:	4f 89       	ldd	r20, Y+23	; 0x17
    2f9c:	38 8d       	ldd	r19, Y+24	; 0x18
    2f9e:	29 8d       	ldd	r18, Y+25	; 0x19
    2fa0:	85 2f       	mov	r24, r21
    2fa2:	94 2f       	mov	r25, r20
    2fa4:	a3 2f       	mov	r26, r19
    2fa6:	b2 2f       	mov	r27, r18
    2fa8:	bc 01       	movw	r22, r24
    2faa:	cd 01       	movw	r24, r26
    2fac:	f8 01       	movw	r30, r16
    2fae:	0f 2f       	mov	r16, r31
    2fb0:	1e 2f       	mov	r17, r30
    2fb2:	28 2d       	mov	r18, r8
    2fb4:	39 2d       	mov	r19, r9
    2fb6:	a9 01       	movw	r20, r18
    2fb8:	98 01       	movw	r18, r16
    2fba:	0e 94 a1 29 	call	0x5342	; 0x5342 <__mulsf3>
    2fbe:	9b 01       	movw	r18, r22
    2fc0:	ac 01       	movw	r20, r24
    2fc2:	fe 89       	ldd	r31, Y+22	; 0x16
    2fc4:	ef 89       	ldd	r30, Y+23	; 0x17
    2fc6:	78 8d       	ldd	r23, Y+24	; 0x18
    2fc8:	69 8d       	ldd	r22, Y+25	; 0x19
    2fca:	8f 2f       	mov	r24, r31
    2fcc:	9e 2f       	mov	r25, r30
    2fce:	a7 2f       	mov	r26, r23
    2fd0:	b6 2f       	mov	r27, r22
    2fd2:	bc 01       	movw	r22, r24
    2fd4:	cd 01       	movw	r24, r26
    2fd6:	0e 94 1f 27 	call	0x4e3e	; 0x4e3e <__subsf3>
    2fda:	8b 01       	movw	r16, r22
    2fdc:	b8 2e       	mov	r11, r24
    2fde:	a9 2e       	mov	r10, r25
    2fe0:	95 01       	movw	r18, r10
    2fe2:	86 2f       	mov	r24, r22
    2fe4:	91 2f       	mov	r25, r17
    2fe6:	a3 2f       	mov	r26, r19
    2fe8:	b2 2f       	mov	r27, r18
    2fea:	80 93 2a 02 	sts	0x022A, r24
    2fee:	90 93 2b 02 	sts	0x022B, r25
    2ff2:	a0 93 2c 02 	sts	0x022C, r26
    2ff6:	b0 93 2d 02 	sts	0x022D, r27
    2ffa:	84 2d       	mov	r24, r4
    2ffc:	97 2d       	mov	r25, r7
    2ffe:	a6 2d       	mov	r26, r6
    3000:	b5 2d       	mov	r27, r5
    3002:	bc 01       	movw	r22, r24
    3004:	cd 01       	movw	r24, r26
    3006:	a6 01       	movw	r20, r12
    3008:	97 01       	movw	r18, r14
    300a:	c5 2e       	mov	r12, r21
    300c:	d4 2e       	mov	r13, r20
    300e:	e3 2e       	mov	r14, r19
    3010:	f2 2e       	mov	r15, r18
    3012:	a7 01       	movw	r20, r14
    3014:	96 01       	movw	r18, r12
    3016:	0e 94 a1 29 	call	0x5342	; 0x5342 <__mulsf3>
    301a:	9b 01       	movw	r18, r22
    301c:	ac 01       	movw	r20, r24
    301e:	fa 8d       	ldd	r31, Y+26	; 0x1a
    3020:	eb 8d       	ldd	r30, Y+27	; 0x1b
    3022:	7c 8d       	ldd	r23, Y+28	; 0x1c
    3024:	6d 8d       	ldd	r22, Y+29	; 0x1d
    3026:	8f 2f       	mov	r24, r31
    3028:	9e 2f       	mov	r25, r30
    302a:	a7 2f       	mov	r26, r23
    302c:	b6 2f       	mov	r27, r22
    302e:	bc 01       	movw	r22, r24
    3030:	cd 01       	movw	r24, r26
    3032:	0e 94 1f 27 	call	0x4e3e	; 0x4e3e <__subsf3>
    3036:	dc 01       	movw	r26, r24
    3038:	cb 01       	movw	r24, r22
    303a:	80 93 26 02 	sts	0x0226, r24
    303e:	90 93 27 02 	sts	0x0227, r25
    3042:	a0 93 28 02 	sts	0x0228, r26
    3046:	b0 93 29 02 	sts	0x0229, r27
    304a:	89 81       	ldd	r24, Y+1	; 0x01
    304c:	9a 81       	ldd	r25, Y+2	; 0x02
    304e:	ab 81       	ldd	r26, Y+3	; 0x03
    3050:	bc 81       	ldd	r27, Y+4	; 0x04
    3052:	bc 01       	movw	r22, r24
    3054:	cd 01       	movw	r24, r26
    3056:	26 ea       	ldi	r18, 0xA6	; 166
    3058:	3b e9       	ldi	r19, 0x9B	; 155
    305a:	44 e4       	ldi	r20, 0x44	; 68
    305c:	5b e3       	ldi	r21, 0x3B	; 59
    305e:	0e 94 a1 29 	call	0x5342	; 0x5342 <__mulsf3>
    3062:	9b 01       	movw	r18, r22
    3064:	ac 01       	movw	r20, r24
    3066:	6a 89       	ldd	r22, Y+18	; 0x12
    3068:	7b 89       	ldd	r23, Y+19	; 0x13
    306a:	8c 89       	ldd	r24, Y+20	; 0x14
    306c:	9d 89       	ldd	r25, Y+21	; 0x15
    306e:	0e 94 20 27 	call	0x4e40	; 0x4e40 <__addsf3>
    3072:	6b 01       	movw	r12, r22
    3074:	7c 01       	movw	r14, r24
    3076:	84 2d       	mov	r24, r4
    3078:	97 2d       	mov	r25, r7
    307a:	a6 2d       	mov	r26, r6
    307c:	b5 2d       	mov	r27, r5
    307e:	bc 01       	movw	r22, r24
    3080:	cd 01       	movw	r24, r26
    3082:	a5 01       	movw	r20, r10
    3084:	25 2f       	mov	r18, r21
    3086:	34 2f       	mov	r19, r20
    3088:	a9 01       	movw	r20, r18
    308a:	98 01       	movw	r18, r16
    308c:	0e 94 a1 29 	call	0x5342	; 0x5342 <__mulsf3>
    3090:	9b 01       	movw	r18, r22
    3092:	ac 01       	movw	r20, r24
    3094:	c7 01       	movw	r24, r14
    3096:	b6 01       	movw	r22, r12
    3098:	0e 94 1f 27 	call	0x4e3e	; 0x4e3e <__subsf3>
    309c:	dc 01       	movw	r26, r24
    309e:	cb 01       	movw	r24, r22
    30a0:	80 93 22 02 	sts	0x0222, r24
    30a4:	90 93 23 02 	sts	0x0223, r25
    30a8:	a0 93 24 02 	sts	0x0224, r26
    30ac:	b0 93 25 02 	sts	0x0225, r27
    30b0:	59 85       	ldd	r21, Y+9	; 0x09
    30b2:	4a 85       	ldd	r20, Y+10	; 0x0a
    30b4:	3b 85       	ldd	r19, Y+11	; 0x0b
    30b6:	2c 85       	ldd	r18, Y+12	; 0x0c
    30b8:	85 2f       	mov	r24, r21
    30ba:	94 2f       	mov	r25, r20
    30bc:	a3 2f       	mov	r26, r19
    30be:	b2 2f       	mov	r27, r18
    30c0:	bc 01       	movw	r22, r24
    30c2:	cd 01       	movw	r24, r26
    30c4:	a2 96       	adiw	r28, 0x22	; 34
    30c6:	0f b6       	in	r0, 0x3f	; 63
    30c8:	f8 94       	cli
    30ca:	de bf       	out	0x3e, r29	; 62
    30cc:	0f be       	out	0x3f, r0	; 63
    30ce:	cd bf       	out	0x3d, r28	; 61
    30d0:	df 91       	pop	r29
    30d2:	cf 91       	pop	r28
    30d4:	1f 91       	pop	r17
    30d6:	0f 91       	pop	r16
    30d8:	ff 90       	pop	r15
    30da:	ef 90       	pop	r14
    30dc:	df 90       	pop	r13
    30de:	cf 90       	pop	r12
    30e0:	bf 90       	pop	r11
    30e2:	af 90       	pop	r10
    30e4:	9f 90       	pop	r9
    30e6:	8f 90       	pop	r8
    30e8:	7f 90       	pop	r7
    30ea:	6f 90       	pop	r6
    30ec:	5f 90       	pop	r5
    30ee:	4f 90       	pop	r4
    30f0:	3f 90       	pop	r3
    30f2:	2f 90       	pop	r2
    30f4:	08 95       	ret

000030f6 <SrvKalmanFilterY>:
    30f6:	2f 92       	push	r2
    30f8:	3f 92       	push	r3
    30fa:	4f 92       	push	r4
    30fc:	5f 92       	push	r5
    30fe:	6f 92       	push	r6
    3100:	7f 92       	push	r7
    3102:	8f 92       	push	r8
    3104:	9f 92       	push	r9
    3106:	af 92       	push	r10
    3108:	bf 92       	push	r11
    310a:	cf 92       	push	r12
    310c:	df 92       	push	r13
    310e:	ef 92       	push	r14
    3110:	ff 92       	push	r15
    3112:	0f 93       	push	r16
    3114:	1f 93       	push	r17
    3116:	cf 93       	push	r28
    3118:	df 93       	push	r29
    311a:	cd b7       	in	r28, 0x3d	; 61
    311c:	de b7       	in	r29, 0x3e	; 62
    311e:	a2 97       	sbiw	r28, 0x22	; 34
    3120:	0f b6       	in	r0, 0x3f	; 63
    3122:	f8 94       	cli
    3124:	de bf       	out	0x3e, r29	; 62
    3126:	0f be       	out	0x3f, r0	; 63
    3128:	cd bf       	out	0x3d, r28	; 61
    312a:	6e 8f       	std	Y+30, r22	; 0x1e
    312c:	7f 8f       	std	Y+31, r23	; 0x1f
    312e:	88 a3       	lds	r24, 0x58
    3130:	99 a3       	lds	r25, 0x59
    3132:	49 01       	movw	r8, r18
    3134:	5a 01       	movw	r10, r20
    3136:	c8 01       	movw	r24, r16
    3138:	b7 01       	movw	r22, r14
    313a:	20 e0       	ldi	r18, 0x00	; 0
    313c:	30 e4       	ldi	r19, 0x40	; 64
    313e:	4c e1       	ldi	r20, 0x1C	; 28
    3140:	56 e4       	ldi	r21, 0x46	; 70
    3142:	0e 94 ed 27 	call	0x4fda	; 0x4fda <__divsf3>
    3146:	69 83       	std	Y+1, r22	; 0x01
    3148:	7a 83       	std	Y+2, r23	; 0x02
    314a:	8b 83       	std	Y+3, r24	; 0x03
    314c:	9c 83       	std	Y+4, r25	; 0x04
    314e:	6b 01       	movw	r12, r22
    3150:	7c 01       	movw	r14, r24
    3152:	cb 01       	movw	r24, r22
    3154:	ab 81       	ldd	r26, Y+3	; 0x03
    3156:	bc 81       	ldd	r27, Y+4	; 0x04
    3158:	80 93 5d 03 	sts	0x035D, r24
    315c:	90 93 5e 03 	sts	0x035E, r25
    3160:	a0 93 5f 03 	sts	0x035F, r26
    3164:	b0 93 60 03 	sts	0x0360, r27
    3168:	80 91 1a 02 	lds	r24, 0x021A
    316c:	90 91 1b 02 	lds	r25, 0x021B
    3170:	a0 91 1c 02 	lds	r26, 0x021C
    3174:	b0 91 1d 02 	lds	r27, 0x021D
    3178:	8e 87       	std	Y+14, r24	; 0x0e
    317a:	9f 87       	std	Y+15, r25	; 0x0f
    317c:	a8 8b       	std	Y+16, r26	; 0x10
    317e:	b9 8b       	std	Y+17, r27	; 0x11
    3180:	c5 01       	movw	r24, r10
    3182:	b4 01       	movw	r22, r8
    3184:	2e 85       	ldd	r18, Y+14	; 0x0e
    3186:	3f 85       	ldd	r19, Y+15	; 0x0f
    3188:	48 89       	ldd	r20, Y+16	; 0x10
    318a:	59 89       	ldd	r21, Y+17	; 0x11
    318c:	0e 94 1f 27 	call	0x4e3e	; 0x4e3e <__subsf3>
    3190:	9b 01       	movw	r18, r22
    3192:	ac 01       	movw	r20, r24
    3194:	89 81       	ldd	r24, Y+1	; 0x01
    3196:	9a 81       	ldd	r25, Y+2	; 0x02
    3198:	ab 81       	ldd	r26, Y+3	; 0x03
    319a:	bc 81       	ldd	r27, Y+4	; 0x04
    319c:	bc 01       	movw	r22, r24
    319e:	cd 01       	movw	r24, r26
    31a0:	0e 94 a1 29 	call	0x5342	; 0x5342 <__mulsf3>
    31a4:	20 91 1e 02 	lds	r18, 0x021E
    31a8:	30 91 1f 02 	lds	r19, 0x021F
    31ac:	40 91 20 02 	lds	r20, 0x0220
    31b0:	50 91 21 02 	lds	r21, 0x0221
    31b4:	0e 94 20 27 	call	0x4e40	; 0x4e40 <__addsf3>
    31b8:	69 87       	std	Y+9, r22	; 0x09
    31ba:	7a 87       	std	Y+10, r23	; 0x0a
    31bc:	8b 87       	std	Y+11, r24	; 0x0b
    31be:	9c 87       	std	Y+12, r25	; 0x0c
    31c0:	f7 fa       	bst	r15, 7
    31c2:	f0 94       	com	r15
    31c4:	f7 f8       	bld	r15, 7
    31c6:	f0 94       	com	r15
    31c8:	40 90 0e 02 	lds	r4, 0x020E
    31cc:	50 90 0f 02 	lds	r5, 0x020F
    31d0:	60 90 10 02 	lds	r6, 0x0210
    31d4:	70 90 11 02 	lds	r7, 0x0211
    31d8:	80 90 12 02 	lds	r8, 0x0212
    31dc:	90 90 13 02 	lds	r9, 0x0213
    31e0:	a0 90 14 02 	lds	r10, 0x0214
    31e4:	b0 90 15 02 	lds	r11, 0x0215
    31e8:	c3 01       	movw	r24, r6
    31ea:	b2 01       	movw	r22, r4
    31ec:	a5 01       	movw	r20, r10
    31ee:	94 01       	movw	r18, r8
    31f0:	0e 94 20 27 	call	0x4e40	; 0x4e40 <__addsf3>
    31f4:	9b 01       	movw	r18, r22
    31f6:	ac 01       	movw	r20, r24
    31f8:	c7 01       	movw	r24, r14
    31fa:	b6 01       	movw	r22, r12
    31fc:	0e 94 a1 29 	call	0x5342	; 0x5342 <__mulsf3>
    3200:	6d 83       	std	Y+5, r22	; 0x05
    3202:	7e 83       	std	Y+6, r23	; 0x06
    3204:	8f 83       	std	Y+7, r24	; 0x07
    3206:	98 87       	std	Y+8, r25	; 0x08
    3208:	89 81       	ldd	r24, Y+1	; 0x01
    320a:	9a 81       	ldd	r25, Y+2	; 0x02
    320c:	ab 81       	ldd	r26, Y+3	; 0x03
    320e:	bc 81       	ldd	r27, Y+4	; 0x04
    3210:	bc 01       	movw	r22, r24
    3212:	cd 01       	movw	r24, r26
    3214:	2f e6       	ldi	r18, 0x6F	; 111
    3216:	32 e1       	ldi	r19, 0x12	; 18
    3218:	43 e8       	ldi	r20, 0x83	; 131
    321a:	5a e3       	ldi	r21, 0x3A	; 58
    321c:	0e 94 a1 29 	call	0x5342	; 0x5342 <__mulsf3>
    3220:	9b 01       	movw	r18, r22
    3222:	ac 01       	movw	r20, r24
    3224:	6d 81       	ldd	r22, Y+5	; 0x05
    3226:	7e 81       	ldd	r23, Y+6	; 0x06
    3228:	8f 81       	ldd	r24, Y+7	; 0x07
    322a:	98 85       	ldd	r25, Y+8	; 0x08
    322c:	0e 94 20 27 	call	0x4e40	; 0x4e40 <__addsf3>
    3230:	20 91 16 02 	lds	r18, 0x0216
    3234:	30 91 17 02 	lds	r19, 0x0217
    3238:	40 91 18 02 	lds	r20, 0x0218
    323c:	50 91 19 02 	lds	r21, 0x0219
    3240:	0e 94 20 27 	call	0x4e40	; 0x4e40 <__addsf3>
    3244:	36 2e       	mov	r3, r22
    3246:	27 2e       	mov	r2, r23
    3248:	8d 83       	std	Y+5, r24	; 0x05
    324a:	9d 87       	std	Y+13, r25	; 0x0d
    324c:	80 91 0a 02 	lds	r24, 0x020A
    3250:	90 91 0b 02 	lds	r25, 0x020B
    3254:	a0 91 0c 02 	lds	r26, 0x020C
    3258:	b0 91 0d 02 	lds	r27, 0x020D
    325c:	8a 8b       	std	Y+18, r24	; 0x12
    325e:	9b 8b       	std	Y+19, r25	; 0x13
    3260:	ac 8b       	std	Y+20, r26	; 0x14
    3262:	bd 8b       	std	Y+21, r27	; 0x15
    3264:	c7 01       	movw	r24, r14
    3266:	b6 01       	movw	r22, r12
    3268:	2a 89       	ldd	r18, Y+18	; 0x12
    326a:	3b 89       	ldd	r19, Y+19	; 0x13
    326c:	4c 89       	ldd	r20, Y+20	; 0x14
    326e:	5d 89       	ldd	r21, Y+21	; 0x15
    3270:	0e 94 a1 29 	call	0x5342	; 0x5342 <__mulsf3>
    3274:	d6 2e       	mov	r13, r22
    3276:	c7 2e       	mov	r12, r23
    3278:	f8 2e       	mov	r15, r24
    327a:	e9 2e       	mov	r14, r25
    327c:	c5 01       	movw	r24, r10
    327e:	b4 01       	movw	r22, r8
    3280:	f6 01       	movw	r30, r12
    3282:	a7 01       	movw	r20, r14
    3284:	0f 2f       	mov	r16, r31
    3286:	1e 2f       	mov	r17, r30
    3288:	25 2f       	mov	r18, r21
    328a:	34 2f       	mov	r19, r20
    328c:	a9 01       	movw	r20, r18
    328e:	98 01       	movw	r18, r16
    3290:	0e 94 20 27 	call	0x4e40	; 0x4e40 <__addsf3>
    3294:	6e 8b       	std	Y+22, r22	; 0x16
    3296:	7f 8b       	std	Y+23, r23	; 0x17
    3298:	88 8f       	std	Y+24, r24	; 0x18
    329a:	99 8f       	std	Y+25, r25	; 0x19
    329c:	c3 01       	movw	r24, r6
    329e:	b2 01       	movw	r22, r4
    32a0:	a7 01       	movw	r20, r14
    32a2:	25 2f       	mov	r18, r21
    32a4:	34 2f       	mov	r19, r20
    32a6:	a9 01       	movw	r20, r18
    32a8:	98 01       	movw	r18, r16
    32aa:	0e 94 20 27 	call	0x4e40	; 0x4e40 <__addsf3>
    32ae:	6a 8f       	std	Y+26, r22	; 0x1a
    32b0:	7b 8f       	std	Y+27, r23	; 0x1b
    32b2:	8c 8f       	std	Y+28, r24	; 0x1c
    32b4:	9d 8f       	std	Y+29, r25	; 0x1d
    32b6:	a1 01       	movw	r20, r2
    32b8:	3d 81       	ldd	r19, Y+5	; 0x05
    32ba:	2d 85       	ldd	r18, Y+13	; 0x0d
    32bc:	85 2f       	mov	r24, r21
    32be:	94 2f       	mov	r25, r20
    32c0:	a3 2f       	mov	r26, r19
    32c2:	b2 2f       	mov	r27, r18
    32c4:	bc 01       	movw	r22, r24
    32c6:	cd 01       	movw	r24, r26
    32c8:	2f e8       	ldi	r18, 0x8F	; 143
    32ca:	32 ec       	ldi	r19, 0xC2	; 194
    32cc:	45 ef       	ldi	r20, 0xF5	; 245
    32ce:	5c e3       	ldi	r21, 0x3C	; 60
    32d0:	0e 94 20 27 	call	0x4e40	; 0x4e40 <__addsf3>
    32d4:	b6 2e       	mov	r11, r22
    32d6:	c7 2e       	mov	r12, r23
    32d8:	f8 2e       	mov	r15, r24
    32da:	e9 2e       	mov	r14, r25
    32dc:	97 01       	movw	r18, r14
    32de:	86 2f       	mov	r24, r22
    32e0:	9c 2d       	mov	r25, r12
    32e2:	a3 2f       	mov	r26, r19
    32e4:	b2 2f       	mov	r27, r18
    32e6:	80 93 75 03 	sts	0x0375, r24
    32ea:	90 93 76 03 	sts	0x0376, r25
    32ee:	a0 93 77 03 	sts	0x0377, r26
    32f2:	b0 93 78 03 	sts	0x0378, r27
    32f6:	a1 01       	movw	r20, r2
    32f8:	3d 81       	ldd	r19, Y+5	; 0x05
    32fa:	2d 85       	ldd	r18, Y+13	; 0x0d
    32fc:	85 2f       	mov	r24, r21
    32fe:	94 2f       	mov	r25, r20
    3300:	a3 2f       	mov	r26, r19
    3302:	b2 2f       	mov	r27, r18
    3304:	bc 01       	movw	r22, r24
    3306:	cd 01       	movw	r24, r26
    3308:	a7 01       	movw	r20, r14
    330a:	0b 2d       	mov	r16, r11
    330c:	1c 2d       	mov	r17, r12
    330e:	25 2f       	mov	r18, r21
    3310:	34 2f       	mov	r19, r20
    3312:	a9 01       	movw	r20, r18
    3314:	98 01       	movw	r18, r16
    3316:	0e 94 ed 27 	call	0x4fda	; 0x4fda <__divsf3>
    331a:	16 2f       	mov	r17, r22
    331c:	07 2f       	mov	r16, r23
    331e:	4c 01       	movw	r8, r24
    3320:	a8 01       	movw	r20, r16
    3322:	85 2f       	mov	r24, r21
    3324:	94 2f       	mov	r25, r20
    3326:	a8 2d       	mov	r26, r8
    3328:	b9 2d       	mov	r27, r9
    332a:	80 93 8d 03 	sts	0x038D, r24
    332e:	90 93 8e 03 	sts	0x038E, r25
    3332:	a0 93 8f 03 	sts	0x038F, r26
    3336:	b0 93 90 03 	sts	0x0390, r27
    333a:	5a 8d       	ldd	r21, Y+26	; 0x1a
    333c:	4b 8d       	ldd	r20, Y+27	; 0x1b
    333e:	3c 8d       	ldd	r19, Y+28	; 0x1c
    3340:	2d 8d       	ldd	r18, Y+29	; 0x1d
    3342:	85 2f       	mov	r24, r21
    3344:	94 2f       	mov	r25, r20
    3346:	a3 2f       	mov	r26, r19
    3348:	b2 2f       	mov	r27, r18
    334a:	bc 01       	movw	r22, r24
    334c:	cd 01       	movw	r24, r26
    334e:	4c 2d       	mov	r20, r12
    3350:	97 01       	movw	r18, r14
    3352:	cb 2c       	mov	r12, r11
    3354:	d4 2e       	mov	r13, r20
    3356:	e3 2e       	mov	r14, r19
    3358:	f2 2e       	mov	r15, r18
    335a:	a7 01       	movw	r20, r14
    335c:	96 01       	movw	r18, r12
    335e:	0e 94 ed 27 	call	0x4fda	; 0x4fda <__divsf3>
    3362:	46 2e       	mov	r4, r22
    3364:	77 2e       	mov	r7, r23
    3366:	68 2e       	mov	r6, r24
    3368:	59 2e       	mov	r5, r25
    336a:	86 2f       	mov	r24, r22
    336c:	97 2d       	mov	r25, r7
    336e:	a6 2d       	mov	r26, r6
    3370:	b5 2d       	mov	r27, r5
    3372:	80 93 a1 03 	sts	0x03A1, r24
    3376:	90 93 a2 03 	sts	0x03A2, r25
    337a:	a0 93 a3 03 	sts	0x03A3, r26
    337e:	b0 93 a4 03 	sts	0x03A4, r27
    3382:	6e 8d       	ldd	r22, Y+30	; 0x1e
    3384:	7f 8d       	ldd	r23, Y+31	; 0x1f
    3386:	88 a1       	lds	r24, 0x48
    3388:	99 a1       	lds	r25, 0x49
    338a:	59 85       	ldd	r21, Y+9	; 0x09
    338c:	4a 85       	ldd	r20, Y+10	; 0x0a
    338e:	3b 85       	ldd	r19, Y+11	; 0x0b
    3390:	2c 85       	ldd	r18, Y+12	; 0x0c
    3392:	c5 2e       	mov	r12, r21
    3394:	d4 2e       	mov	r13, r20
    3396:	e3 2e       	mov	r14, r19
    3398:	f2 2e       	mov	r15, r18
    339a:	a7 01       	movw	r20, r14
    339c:	96 01       	movw	r18, r12
    339e:	0e 94 1f 27 	call	0x4e3e	; 0x4e3e <__subsf3>
    33a2:	6e 8f       	std	Y+30, r22	; 0x1e
    33a4:	7a a3       	lds	r23, 0x5a
    33a6:	b8 2e       	mov	r11, r24
    33a8:	a9 2e       	mov	r10, r25
    33aa:	47 2f       	mov	r20, r23
    33ac:	95 01       	movw	r18, r10
    33ae:	86 2f       	mov	r24, r22
    33b0:	94 2f       	mov	r25, r20
    33b2:	a3 2f       	mov	r26, r19
    33b4:	b2 2f       	mov	r27, r18
    33b6:	80 93 55 03 	sts	0x0355, r24
    33ba:	90 93 56 03 	sts	0x0356, r25
    33be:	a0 93 57 03 	sts	0x0357, r26
    33c2:	b0 93 58 03 	sts	0x0358, r27
    33c6:	a8 01       	movw	r20, r16
    33c8:	85 2f       	mov	r24, r21
    33ca:	94 2f       	mov	r25, r20
    33cc:	a8 2d       	mov	r26, r8
    33ce:	b9 2d       	mov	r27, r9
    33d0:	bc 01       	movw	r22, r24
    33d2:	cd 01       	movw	r24, r26
    33d4:	5e 8d       	ldd	r21, Y+30	; 0x1e
    33d6:	4a a1       	lds	r20, 0x4a
    33d8:	95 01       	movw	r18, r10
    33da:	c5 2e       	mov	r12, r21
    33dc:	d4 2e       	mov	r13, r20
    33de:	e3 2e       	mov	r14, r19
    33e0:	f2 2e       	mov	r15, r18
    33e2:	a7 01       	movw	r20, r14
    33e4:	96 01       	movw	r18, r12
    33e6:	0e 94 a1 29 	call	0x5342	; 0x5342 <__mulsf3>
    33ea:	9b 01       	movw	r18, r22
    33ec:	ac 01       	movw	r20, r24
    33ee:	f9 85       	ldd	r31, Y+9	; 0x09
    33f0:	ea 85       	ldd	r30, Y+10	; 0x0a
    33f2:	7b 85       	ldd	r23, Y+11	; 0x0b
    33f4:	6c 85       	ldd	r22, Y+12	; 0x0c
    33f6:	8f 2f       	mov	r24, r31
    33f8:	9e 2f       	mov	r25, r30
    33fa:	a7 2f       	mov	r26, r23
    33fc:	b6 2f       	mov	r27, r22
    33fe:	bc 01       	movw	r22, r24
    3400:	cd 01       	movw	r24, r26
    3402:	0e 94 20 27 	call	0x4e40	; 0x4e40 <__addsf3>
    3406:	69 87       	std	Y+9, r22	; 0x09
    3408:	7a 87       	std	Y+10, r23	; 0x0a
    340a:	8b 87       	std	Y+11, r24	; 0x0b
    340c:	9c 87       	std	Y+12, r25	; 0x0c
    340e:	47 2f       	mov	r20, r23
    3410:	38 2f       	mov	r19, r24
    3412:	29 2f       	mov	r18, r25
    3414:	86 2f       	mov	r24, r22
    3416:	94 2f       	mov	r25, r20
    3418:	a3 2f       	mov	r26, r19
    341a:	b2 2f       	mov	r27, r18
    341c:	80 93 1e 02 	sts	0x021E, r24
    3420:	90 93 1f 02 	sts	0x021F, r25
    3424:	a0 93 20 02 	sts	0x0220, r26
    3428:	b0 93 21 02 	sts	0x0221, r27
    342c:	84 2d       	mov	r24, r4
    342e:	97 2d       	mov	r25, r7
    3430:	a6 2d       	mov	r26, r6
    3432:	b5 2d       	mov	r27, r5
    3434:	bc 01       	movw	r22, r24
    3436:	cd 01       	movw	r24, r26
    3438:	a7 01       	movw	r20, r14
    343a:	96 01       	movw	r18, r12
    343c:	0e 94 a1 29 	call	0x5342	; 0x5342 <__mulsf3>
    3440:	9b 01       	movw	r18, r22
    3442:	ac 01       	movw	r20, r24
    3444:	6e 85       	ldd	r22, Y+14	; 0x0e
    3446:	7f 85       	ldd	r23, Y+15	; 0x0f
    3448:	88 89       	ldd	r24, Y+16	; 0x10
    344a:	99 89       	ldd	r25, Y+17	; 0x11
    344c:	0e 94 20 27 	call	0x4e40	; 0x4e40 <__addsf3>
    3450:	dc 01       	movw	r26, r24
    3452:	cb 01       	movw	r24, r22
    3454:	80 93 1a 02 	sts	0x021A, r24
    3458:	90 93 1b 02 	sts	0x021B, r25
    345c:	a0 93 1c 02 	sts	0x021C, r26
    3460:	b0 93 1d 02 	sts	0x021D, r27
    3464:	a1 01       	movw	r20, r2
    3466:	3d 81       	ldd	r19, Y+5	; 0x05
    3468:	2d 85       	ldd	r18, Y+13	; 0x0d
    346a:	85 2f       	mov	r24, r21
    346c:	94 2f       	mov	r25, r20
    346e:	a3 2f       	mov	r26, r19
    3470:	b2 2f       	mov	r27, r18
    3472:	bc 01       	movw	r22, r24
    3474:	cd 01       	movw	r24, r26
    3476:	a8 01       	movw	r20, r16
    3478:	c5 2e       	mov	r12, r21
    347a:	d4 2e       	mov	r13, r20
    347c:	e8 2c       	mov	r14, r8
    347e:	f9 2c       	mov	r15, r9
    3480:	a7 01       	movw	r20, r14
    3482:	96 01       	movw	r18, r12
    3484:	0e 94 a1 29 	call	0x5342	; 0x5342 <__mulsf3>
    3488:	9b 01       	movw	r18, r22
    348a:	ac 01       	movw	r20, r24
    348c:	f1 01       	movw	r30, r2
    348e:	7d 81       	ldd	r23, Y+5	; 0x05
    3490:	6d 85       	ldd	r22, Y+13	; 0x0d
    3492:	8f 2f       	mov	r24, r31
    3494:	9e 2f       	mov	r25, r30
    3496:	a7 2f       	mov	r26, r23
    3498:	b6 2f       	mov	r27, r22
    349a:	bc 01       	movw	r22, r24
    349c:	cd 01       	movw	r24, r26
    349e:	0e 94 1f 27 	call	0x4e3e	; 0x4e3e <__subsf3>
    34a2:	d6 2e       	mov	r13, r22
    34a4:	c7 2e       	mov	r12, r23
    34a6:	f8 2e       	mov	r15, r24
    34a8:	e9 2e       	mov	r14, r25
    34aa:	a6 01       	movw	r20, r12
    34ac:	97 01       	movw	r18, r14
    34ae:	85 2f       	mov	r24, r21
    34b0:	94 2f       	mov	r25, r20
    34b2:	a3 2f       	mov	r26, r19
    34b4:	b2 2f       	mov	r27, r18
    34b6:	80 93 16 02 	sts	0x0216, r24
    34ba:	90 93 17 02 	sts	0x0217, r25
    34be:	a0 93 18 02 	sts	0x0218, r26
    34c2:	b0 93 19 02 	sts	0x0219, r27
    34c6:	5e 89       	ldd	r21, Y+22	; 0x16
    34c8:	4f 89       	ldd	r20, Y+23	; 0x17
    34ca:	38 8d       	ldd	r19, Y+24	; 0x18
    34cc:	29 8d       	ldd	r18, Y+25	; 0x19
    34ce:	85 2f       	mov	r24, r21
    34d0:	94 2f       	mov	r25, r20
    34d2:	a3 2f       	mov	r26, r19
    34d4:	b2 2f       	mov	r27, r18
    34d6:	bc 01       	movw	r22, r24
    34d8:	cd 01       	movw	r24, r26
    34da:	f8 01       	movw	r30, r16
    34dc:	0f 2f       	mov	r16, r31
    34de:	1e 2f       	mov	r17, r30
    34e0:	28 2d       	mov	r18, r8
    34e2:	39 2d       	mov	r19, r9
    34e4:	a9 01       	movw	r20, r18
    34e6:	98 01       	movw	r18, r16
    34e8:	0e 94 a1 29 	call	0x5342	; 0x5342 <__mulsf3>
    34ec:	9b 01       	movw	r18, r22
    34ee:	ac 01       	movw	r20, r24
    34f0:	fe 89       	ldd	r31, Y+22	; 0x16
    34f2:	ef 89       	ldd	r30, Y+23	; 0x17
    34f4:	78 8d       	ldd	r23, Y+24	; 0x18
    34f6:	69 8d       	ldd	r22, Y+25	; 0x19
    34f8:	8f 2f       	mov	r24, r31
    34fa:	9e 2f       	mov	r25, r30
    34fc:	a7 2f       	mov	r26, r23
    34fe:	b6 2f       	mov	r27, r22
    3500:	bc 01       	movw	r22, r24
    3502:	cd 01       	movw	r24, r26
    3504:	0e 94 1f 27 	call	0x4e3e	; 0x4e3e <__subsf3>
    3508:	8b 01       	movw	r16, r22
    350a:	b8 2e       	mov	r11, r24
    350c:	a9 2e       	mov	r10, r25
    350e:	95 01       	movw	r18, r10
    3510:	86 2f       	mov	r24, r22
    3512:	91 2f       	mov	r25, r17
    3514:	a3 2f       	mov	r26, r19
    3516:	b2 2f       	mov	r27, r18
    3518:	80 93 12 02 	sts	0x0212, r24
    351c:	90 93 13 02 	sts	0x0213, r25
    3520:	a0 93 14 02 	sts	0x0214, r26
    3524:	b0 93 15 02 	sts	0x0215, r27
    3528:	84 2d       	mov	r24, r4
    352a:	97 2d       	mov	r25, r7
    352c:	a6 2d       	mov	r26, r6
    352e:	b5 2d       	mov	r27, r5
    3530:	bc 01       	movw	r22, r24
    3532:	cd 01       	movw	r24, r26
    3534:	a6 01       	movw	r20, r12
    3536:	97 01       	movw	r18, r14
    3538:	c5 2e       	mov	r12, r21
    353a:	d4 2e       	mov	r13, r20
    353c:	e3 2e       	mov	r14, r19
    353e:	f2 2e       	mov	r15, r18
    3540:	a7 01       	movw	r20, r14
    3542:	96 01       	movw	r18, r12
    3544:	0e 94 a1 29 	call	0x5342	; 0x5342 <__mulsf3>
    3548:	9b 01       	movw	r18, r22
    354a:	ac 01       	movw	r20, r24
    354c:	fa 8d       	ldd	r31, Y+26	; 0x1a
    354e:	eb 8d       	ldd	r30, Y+27	; 0x1b
    3550:	7c 8d       	ldd	r23, Y+28	; 0x1c
    3552:	6d 8d       	ldd	r22, Y+29	; 0x1d
    3554:	8f 2f       	mov	r24, r31
    3556:	9e 2f       	mov	r25, r30
    3558:	a7 2f       	mov	r26, r23
    355a:	b6 2f       	mov	r27, r22
    355c:	bc 01       	movw	r22, r24
    355e:	cd 01       	movw	r24, r26
    3560:	0e 94 1f 27 	call	0x4e3e	; 0x4e3e <__subsf3>
    3564:	dc 01       	movw	r26, r24
    3566:	cb 01       	movw	r24, r22
    3568:	80 93 0e 02 	sts	0x020E, r24
    356c:	90 93 0f 02 	sts	0x020F, r25
    3570:	a0 93 10 02 	sts	0x0210, r26
    3574:	b0 93 11 02 	sts	0x0211, r27
    3578:	89 81       	ldd	r24, Y+1	; 0x01
    357a:	9a 81       	ldd	r25, Y+2	; 0x02
    357c:	ab 81       	ldd	r26, Y+3	; 0x03
    357e:	bc 81       	ldd	r27, Y+4	; 0x04
    3580:	bc 01       	movw	r22, r24
    3582:	cd 01       	movw	r24, r26
    3584:	26 ea       	ldi	r18, 0xA6	; 166
    3586:	3b e9       	ldi	r19, 0x9B	; 155
    3588:	44 e4       	ldi	r20, 0x44	; 68
    358a:	5b e3       	ldi	r21, 0x3B	; 59
    358c:	0e 94 a1 29 	call	0x5342	; 0x5342 <__mulsf3>
    3590:	9b 01       	movw	r18, r22
    3592:	ac 01       	movw	r20, r24
    3594:	6a 89       	ldd	r22, Y+18	; 0x12
    3596:	7b 89       	ldd	r23, Y+19	; 0x13
    3598:	8c 89       	ldd	r24, Y+20	; 0x14
    359a:	9d 89       	ldd	r25, Y+21	; 0x15
    359c:	0e 94 20 27 	call	0x4e40	; 0x4e40 <__addsf3>
    35a0:	6b 01       	movw	r12, r22
    35a2:	7c 01       	movw	r14, r24
    35a4:	84 2d       	mov	r24, r4
    35a6:	97 2d       	mov	r25, r7
    35a8:	a6 2d       	mov	r26, r6
    35aa:	b5 2d       	mov	r27, r5
    35ac:	bc 01       	movw	r22, r24
    35ae:	cd 01       	movw	r24, r26
    35b0:	a5 01       	movw	r20, r10
    35b2:	25 2f       	mov	r18, r21
    35b4:	34 2f       	mov	r19, r20
    35b6:	a9 01       	movw	r20, r18
    35b8:	98 01       	movw	r18, r16
    35ba:	0e 94 a1 29 	call	0x5342	; 0x5342 <__mulsf3>
    35be:	9b 01       	movw	r18, r22
    35c0:	ac 01       	movw	r20, r24
    35c2:	c7 01       	movw	r24, r14
    35c4:	b6 01       	movw	r22, r12
    35c6:	0e 94 1f 27 	call	0x4e3e	; 0x4e3e <__subsf3>
    35ca:	dc 01       	movw	r26, r24
    35cc:	cb 01       	movw	r24, r22
    35ce:	80 93 0a 02 	sts	0x020A, r24
    35d2:	90 93 0b 02 	sts	0x020B, r25
    35d6:	a0 93 0c 02 	sts	0x020C, r26
    35da:	b0 93 0d 02 	sts	0x020D, r27
    35de:	59 85       	ldd	r21, Y+9	; 0x09
    35e0:	4a 85       	ldd	r20, Y+10	; 0x0a
    35e2:	3b 85       	ldd	r19, Y+11	; 0x0b
    35e4:	2c 85       	ldd	r18, Y+12	; 0x0c
    35e6:	85 2f       	mov	r24, r21
    35e8:	94 2f       	mov	r25, r20
    35ea:	a3 2f       	mov	r26, r19
    35ec:	b2 2f       	mov	r27, r18
    35ee:	bc 01       	movw	r22, r24
    35f0:	cd 01       	movw	r24, r26
    35f2:	a2 96       	adiw	r28, 0x22	; 34
    35f4:	0f b6       	in	r0, 0x3f	; 63
    35f6:	f8 94       	cli
    35f8:	de bf       	out	0x3e, r29	; 62
    35fa:	0f be       	out	0x3f, r0	; 63
    35fc:	cd bf       	out	0x3d, r28	; 61
    35fe:	df 91       	pop	r29
    3600:	cf 91       	pop	r28
    3602:	1f 91       	pop	r17
    3604:	0f 91       	pop	r16
    3606:	ff 90       	pop	r15
    3608:	ef 90       	pop	r14
    360a:	df 90       	pop	r13
    360c:	cf 90       	pop	r12
    360e:	bf 90       	pop	r11
    3610:	af 90       	pop	r10
    3612:	9f 90       	pop	r9
    3614:	8f 90       	pop	r8
    3616:	7f 90       	pop	r7
    3618:	6f 90       	pop	r6
    361a:	5f 90       	pop	r5
    361c:	4f 90       	pop	r4
    361e:	3f 90       	pop	r3
    3620:	2f 90       	pop	r2
    3622:	08 95       	ret

00003624 <SrvKalmanFilterZ>:
    3624:	2f 92       	push	r2
    3626:	3f 92       	push	r3
    3628:	4f 92       	push	r4
    362a:	5f 92       	push	r5
    362c:	6f 92       	push	r6
    362e:	7f 92       	push	r7
    3630:	8f 92       	push	r8
    3632:	9f 92       	push	r9
    3634:	af 92       	push	r10
    3636:	bf 92       	push	r11
    3638:	cf 92       	push	r12
    363a:	df 92       	push	r13
    363c:	ef 92       	push	r14
    363e:	ff 92       	push	r15
    3640:	0f 93       	push	r16
    3642:	1f 93       	push	r17
    3644:	cf 93       	push	r28
    3646:	df 93       	push	r29
    3648:	cd b7       	in	r28, 0x3d	; 61
    364a:	de b7       	in	r29, 0x3e	; 62
    364c:	a2 97       	sbiw	r28, 0x22	; 34
    364e:	0f b6       	in	r0, 0x3f	; 63
    3650:	f8 94       	cli
    3652:	de bf       	out	0x3e, r29	; 62
    3654:	0f be       	out	0x3f, r0	; 63
    3656:	cd bf       	out	0x3d, r28	; 61
    3658:	6e 8f       	std	Y+30, r22	; 0x1e
    365a:	7f 8f       	std	Y+31, r23	; 0x1f
    365c:	88 a3       	lds	r24, 0x58
    365e:	99 a3       	lds	r25, 0x59
    3660:	49 01       	movw	r8, r18
    3662:	5a 01       	movw	r10, r20
    3664:	c8 01       	movw	r24, r16
    3666:	b7 01       	movw	r22, r14
    3668:	20 e0       	ldi	r18, 0x00	; 0
    366a:	30 e4       	ldi	r19, 0x40	; 64
    366c:	4c e1       	ldi	r20, 0x1C	; 28
    366e:	56 e4       	ldi	r21, 0x46	; 70
    3670:	0e 94 ed 27 	call	0x4fda	; 0x4fda <__divsf3>
    3674:	69 83       	std	Y+1, r22	; 0x01
    3676:	7a 83       	std	Y+2, r23	; 0x02
    3678:	8b 83       	std	Y+3, r24	; 0x03
    367a:	9c 83       	std	Y+4, r25	; 0x04
    367c:	6b 01       	movw	r12, r22
    367e:	7c 01       	movw	r14, r24
    3680:	cb 01       	movw	r24, r22
    3682:	ab 81       	ldd	r26, Y+3	; 0x03
    3684:	bc 81       	ldd	r27, Y+4	; 0x04
    3686:	80 93 95 03 	sts	0x0395, r24
    368a:	90 93 96 03 	sts	0x0396, r25
    368e:	a0 93 97 03 	sts	0x0397, r26
    3692:	b0 93 98 03 	sts	0x0398, r27
    3696:	80 91 02 02 	lds	r24, 0x0202
    369a:	90 91 03 02 	lds	r25, 0x0203
    369e:	a0 91 04 02 	lds	r26, 0x0204
    36a2:	b0 91 05 02 	lds	r27, 0x0205
    36a6:	8e 87       	std	Y+14, r24	; 0x0e
    36a8:	9f 87       	std	Y+15, r25	; 0x0f
    36aa:	a8 8b       	std	Y+16, r26	; 0x10
    36ac:	b9 8b       	std	Y+17, r27	; 0x11
    36ae:	c5 01       	movw	r24, r10
    36b0:	b4 01       	movw	r22, r8
    36b2:	2e 85       	ldd	r18, Y+14	; 0x0e
    36b4:	3f 85       	ldd	r19, Y+15	; 0x0f
    36b6:	48 89       	ldd	r20, Y+16	; 0x10
    36b8:	59 89       	ldd	r21, Y+17	; 0x11
    36ba:	0e 94 1f 27 	call	0x4e3e	; 0x4e3e <__subsf3>
    36be:	9b 01       	movw	r18, r22
    36c0:	ac 01       	movw	r20, r24
    36c2:	89 81       	ldd	r24, Y+1	; 0x01
    36c4:	9a 81       	ldd	r25, Y+2	; 0x02
    36c6:	ab 81       	ldd	r26, Y+3	; 0x03
    36c8:	bc 81       	ldd	r27, Y+4	; 0x04
    36ca:	bc 01       	movw	r22, r24
    36cc:	cd 01       	movw	r24, r26
    36ce:	0e 94 a1 29 	call	0x5342	; 0x5342 <__mulsf3>
    36d2:	20 91 06 02 	lds	r18, 0x0206
    36d6:	30 91 07 02 	lds	r19, 0x0207
    36da:	40 91 08 02 	lds	r20, 0x0208
    36de:	50 91 09 02 	lds	r21, 0x0209
    36e2:	0e 94 20 27 	call	0x4e40	; 0x4e40 <__addsf3>
    36e6:	69 87       	std	Y+9, r22	; 0x09
    36e8:	7a 87       	std	Y+10, r23	; 0x0a
    36ea:	8b 87       	std	Y+11, r24	; 0x0b
    36ec:	9c 87       	std	Y+12, r25	; 0x0c
    36ee:	f7 fa       	bst	r15, 7
    36f0:	f0 94       	com	r15
    36f2:	f7 f8       	bld	r15, 7
    36f4:	f0 94       	com	r15
    36f6:	40 90 f6 01 	lds	r4, 0x01F6
    36fa:	50 90 f7 01 	lds	r5, 0x01F7
    36fe:	60 90 f8 01 	lds	r6, 0x01F8
    3702:	70 90 f9 01 	lds	r7, 0x01F9
    3706:	80 90 fa 01 	lds	r8, 0x01FA
    370a:	90 90 fb 01 	lds	r9, 0x01FB
    370e:	a0 90 fc 01 	lds	r10, 0x01FC
    3712:	b0 90 fd 01 	lds	r11, 0x01FD
    3716:	c3 01       	movw	r24, r6
    3718:	b2 01       	movw	r22, r4
    371a:	a5 01       	movw	r20, r10
    371c:	94 01       	movw	r18, r8
    371e:	0e 94 20 27 	call	0x4e40	; 0x4e40 <__addsf3>
    3722:	9b 01       	movw	r18, r22
    3724:	ac 01       	movw	r20, r24
    3726:	c7 01       	movw	r24, r14
    3728:	b6 01       	movw	r22, r12
    372a:	0e 94 a1 29 	call	0x5342	; 0x5342 <__mulsf3>
    372e:	6d 83       	std	Y+5, r22	; 0x05
    3730:	7e 83       	std	Y+6, r23	; 0x06
    3732:	8f 83       	std	Y+7, r24	; 0x07
    3734:	98 87       	std	Y+8, r25	; 0x08
    3736:	89 81       	ldd	r24, Y+1	; 0x01
    3738:	9a 81       	ldd	r25, Y+2	; 0x02
    373a:	ab 81       	ldd	r26, Y+3	; 0x03
    373c:	bc 81       	ldd	r27, Y+4	; 0x04
    373e:	bc 01       	movw	r22, r24
    3740:	cd 01       	movw	r24, r26
    3742:	2f e6       	ldi	r18, 0x6F	; 111
    3744:	32 e1       	ldi	r19, 0x12	; 18
    3746:	43 e8       	ldi	r20, 0x83	; 131
    3748:	5a e3       	ldi	r21, 0x3A	; 58
    374a:	0e 94 a1 29 	call	0x5342	; 0x5342 <__mulsf3>
    374e:	9b 01       	movw	r18, r22
    3750:	ac 01       	movw	r20, r24
    3752:	6d 81       	ldd	r22, Y+5	; 0x05
    3754:	7e 81       	ldd	r23, Y+6	; 0x06
    3756:	8f 81       	ldd	r24, Y+7	; 0x07
    3758:	98 85       	ldd	r25, Y+8	; 0x08
    375a:	0e 94 20 27 	call	0x4e40	; 0x4e40 <__addsf3>
    375e:	20 91 fe 01 	lds	r18, 0x01FE
    3762:	30 91 ff 01 	lds	r19, 0x01FF
    3766:	40 91 00 02 	lds	r20, 0x0200
    376a:	50 91 01 02 	lds	r21, 0x0201
    376e:	0e 94 20 27 	call	0x4e40	; 0x4e40 <__addsf3>
    3772:	36 2e       	mov	r3, r22
    3774:	27 2e       	mov	r2, r23
    3776:	8d 83       	std	Y+5, r24	; 0x05
    3778:	9d 87       	std	Y+13, r25	; 0x0d
    377a:	80 91 f2 01 	lds	r24, 0x01F2
    377e:	90 91 f3 01 	lds	r25, 0x01F3
    3782:	a0 91 f4 01 	lds	r26, 0x01F4
    3786:	b0 91 f5 01 	lds	r27, 0x01F5
    378a:	8a 8b       	std	Y+18, r24	; 0x12
    378c:	9b 8b       	std	Y+19, r25	; 0x13
    378e:	ac 8b       	std	Y+20, r26	; 0x14
    3790:	bd 8b       	std	Y+21, r27	; 0x15
    3792:	c7 01       	movw	r24, r14
    3794:	b6 01       	movw	r22, r12
    3796:	2a 89       	ldd	r18, Y+18	; 0x12
    3798:	3b 89       	ldd	r19, Y+19	; 0x13
    379a:	4c 89       	ldd	r20, Y+20	; 0x14
    379c:	5d 89       	ldd	r21, Y+21	; 0x15
    379e:	0e 94 a1 29 	call	0x5342	; 0x5342 <__mulsf3>
    37a2:	d6 2e       	mov	r13, r22
    37a4:	c7 2e       	mov	r12, r23
    37a6:	f8 2e       	mov	r15, r24
    37a8:	e9 2e       	mov	r14, r25
    37aa:	c5 01       	movw	r24, r10
    37ac:	b4 01       	movw	r22, r8
    37ae:	f6 01       	movw	r30, r12
    37b0:	a7 01       	movw	r20, r14
    37b2:	0f 2f       	mov	r16, r31
    37b4:	1e 2f       	mov	r17, r30
    37b6:	25 2f       	mov	r18, r21
    37b8:	34 2f       	mov	r19, r20
    37ba:	a9 01       	movw	r20, r18
    37bc:	98 01       	movw	r18, r16
    37be:	0e 94 20 27 	call	0x4e40	; 0x4e40 <__addsf3>
    37c2:	6e 8b       	std	Y+22, r22	; 0x16
    37c4:	7f 8b       	std	Y+23, r23	; 0x17
    37c6:	88 8f       	std	Y+24, r24	; 0x18
    37c8:	99 8f       	std	Y+25, r25	; 0x19
    37ca:	c3 01       	movw	r24, r6
    37cc:	b2 01       	movw	r22, r4
    37ce:	a7 01       	movw	r20, r14
    37d0:	25 2f       	mov	r18, r21
    37d2:	34 2f       	mov	r19, r20
    37d4:	a9 01       	movw	r20, r18
    37d6:	98 01       	movw	r18, r16
    37d8:	0e 94 20 27 	call	0x4e40	; 0x4e40 <__addsf3>
    37dc:	6a 8f       	std	Y+26, r22	; 0x1a
    37de:	7b 8f       	std	Y+27, r23	; 0x1b
    37e0:	8c 8f       	std	Y+28, r24	; 0x1c
    37e2:	9d 8f       	std	Y+29, r25	; 0x1d
    37e4:	a1 01       	movw	r20, r2
    37e6:	3d 81       	ldd	r19, Y+5	; 0x05
    37e8:	2d 85       	ldd	r18, Y+13	; 0x0d
    37ea:	85 2f       	mov	r24, r21
    37ec:	94 2f       	mov	r25, r20
    37ee:	a3 2f       	mov	r26, r19
    37f0:	b2 2f       	mov	r27, r18
    37f2:	bc 01       	movw	r22, r24
    37f4:	cd 01       	movw	r24, r26
    37f6:	2f e8       	ldi	r18, 0x8F	; 143
    37f8:	32 ec       	ldi	r19, 0xC2	; 194
    37fa:	45 ef       	ldi	r20, 0xF5	; 245
    37fc:	5c e3       	ldi	r21, 0x3C	; 60
    37fe:	0e 94 20 27 	call	0x4e40	; 0x4e40 <__addsf3>
    3802:	b6 2e       	mov	r11, r22
    3804:	c7 2e       	mov	r12, r23
    3806:	f8 2e       	mov	r15, r24
    3808:	e9 2e       	mov	r14, r25
    380a:	97 01       	movw	r18, r14
    380c:	86 2f       	mov	r24, r22
    380e:	9c 2d       	mov	r25, r12
    3810:	a3 2f       	mov	r26, r19
    3812:	b2 2f       	mov	r27, r18
    3814:	80 93 91 03 	sts	0x0391, r24
    3818:	90 93 92 03 	sts	0x0392, r25
    381c:	a0 93 93 03 	sts	0x0393, r26
    3820:	b0 93 94 03 	sts	0x0394, r27
    3824:	a1 01       	movw	r20, r2
    3826:	3d 81       	ldd	r19, Y+5	; 0x05
    3828:	2d 85       	ldd	r18, Y+13	; 0x0d
    382a:	85 2f       	mov	r24, r21
    382c:	94 2f       	mov	r25, r20
    382e:	a3 2f       	mov	r26, r19
    3830:	b2 2f       	mov	r27, r18
    3832:	bc 01       	movw	r22, r24
    3834:	cd 01       	movw	r24, r26
    3836:	a7 01       	movw	r20, r14
    3838:	0b 2d       	mov	r16, r11
    383a:	1c 2d       	mov	r17, r12
    383c:	25 2f       	mov	r18, r21
    383e:	34 2f       	mov	r19, r20
    3840:	a9 01       	movw	r20, r18
    3842:	98 01       	movw	r18, r16
    3844:	0e 94 ed 27 	call	0x4fda	; 0x4fda <__divsf3>
    3848:	16 2f       	mov	r17, r22
    384a:	07 2f       	mov	r16, r23
    384c:	4c 01       	movw	r8, r24
    384e:	a8 01       	movw	r20, r16
    3850:	85 2f       	mov	r24, r21
    3852:	94 2f       	mov	r25, r20
    3854:	a8 2d       	mov	r26, r8
    3856:	b9 2d       	mov	r27, r9
    3858:	80 93 85 03 	sts	0x0385, r24
    385c:	90 93 86 03 	sts	0x0386, r25
    3860:	a0 93 87 03 	sts	0x0387, r26
    3864:	b0 93 88 03 	sts	0x0388, r27
    3868:	5a 8d       	ldd	r21, Y+26	; 0x1a
    386a:	4b 8d       	ldd	r20, Y+27	; 0x1b
    386c:	3c 8d       	ldd	r19, Y+28	; 0x1c
    386e:	2d 8d       	ldd	r18, Y+29	; 0x1d
    3870:	85 2f       	mov	r24, r21
    3872:	94 2f       	mov	r25, r20
    3874:	a3 2f       	mov	r26, r19
    3876:	b2 2f       	mov	r27, r18
    3878:	bc 01       	movw	r22, r24
    387a:	cd 01       	movw	r24, r26
    387c:	4c 2d       	mov	r20, r12
    387e:	97 01       	movw	r18, r14
    3880:	cb 2c       	mov	r12, r11
    3882:	d4 2e       	mov	r13, r20
    3884:	e3 2e       	mov	r14, r19
    3886:	f2 2e       	mov	r15, r18
    3888:	a7 01       	movw	r20, r14
    388a:	96 01       	movw	r18, r12
    388c:	0e 94 ed 27 	call	0x4fda	; 0x4fda <__divsf3>
    3890:	46 2e       	mov	r4, r22
    3892:	77 2e       	mov	r7, r23
    3894:	68 2e       	mov	r6, r24
    3896:	59 2e       	mov	r5, r25
    3898:	86 2f       	mov	r24, r22
    389a:	97 2d       	mov	r25, r7
    389c:	a6 2d       	mov	r26, r6
    389e:	b5 2d       	mov	r27, r5
    38a0:	80 93 99 03 	sts	0x0399, r24
    38a4:	90 93 9a 03 	sts	0x039A, r25
    38a8:	a0 93 9b 03 	sts	0x039B, r26
    38ac:	b0 93 9c 03 	sts	0x039C, r27
    38b0:	6e 8d       	ldd	r22, Y+30	; 0x1e
    38b2:	7f 8d       	ldd	r23, Y+31	; 0x1f
    38b4:	88 a1       	lds	r24, 0x48
    38b6:	99 a1       	lds	r25, 0x49
    38b8:	59 85       	ldd	r21, Y+9	; 0x09
    38ba:	4a 85       	ldd	r20, Y+10	; 0x0a
    38bc:	3b 85       	ldd	r19, Y+11	; 0x0b
    38be:	2c 85       	ldd	r18, Y+12	; 0x0c
    38c0:	c5 2e       	mov	r12, r21
    38c2:	d4 2e       	mov	r13, r20
    38c4:	e3 2e       	mov	r14, r19
    38c6:	f2 2e       	mov	r15, r18
    38c8:	a7 01       	movw	r20, r14
    38ca:	96 01       	movw	r18, r12
    38cc:	0e 94 1f 27 	call	0x4e3e	; 0x4e3e <__subsf3>
    38d0:	6e 8f       	std	Y+30, r22	; 0x1e
    38d2:	7a a3       	lds	r23, 0x5a
    38d4:	b8 2e       	mov	r11, r24
    38d6:	a9 2e       	mov	r10, r25
    38d8:	47 2f       	mov	r20, r23
    38da:	95 01       	movw	r18, r10
    38dc:	86 2f       	mov	r24, r22
    38de:	94 2f       	mov	r25, r20
    38e0:	a3 2f       	mov	r26, r19
    38e2:	b2 2f       	mov	r27, r18
    38e4:	80 93 7d 03 	sts	0x037D, r24
    38e8:	90 93 7e 03 	sts	0x037E, r25
    38ec:	a0 93 7f 03 	sts	0x037F, r26
    38f0:	b0 93 80 03 	sts	0x0380, r27
    38f4:	a8 01       	movw	r20, r16
    38f6:	85 2f       	mov	r24, r21
    38f8:	94 2f       	mov	r25, r20
    38fa:	a8 2d       	mov	r26, r8
    38fc:	b9 2d       	mov	r27, r9
    38fe:	bc 01       	movw	r22, r24
    3900:	cd 01       	movw	r24, r26
    3902:	5e 8d       	ldd	r21, Y+30	; 0x1e
    3904:	4a a1       	lds	r20, 0x4a
    3906:	95 01       	movw	r18, r10
    3908:	c5 2e       	mov	r12, r21
    390a:	d4 2e       	mov	r13, r20
    390c:	e3 2e       	mov	r14, r19
    390e:	f2 2e       	mov	r15, r18
    3910:	a7 01       	movw	r20, r14
    3912:	96 01       	movw	r18, r12
    3914:	0e 94 a1 29 	call	0x5342	; 0x5342 <__mulsf3>
    3918:	9b 01       	movw	r18, r22
    391a:	ac 01       	movw	r20, r24
    391c:	f9 85       	ldd	r31, Y+9	; 0x09
    391e:	ea 85       	ldd	r30, Y+10	; 0x0a
    3920:	7b 85       	ldd	r23, Y+11	; 0x0b
    3922:	6c 85       	ldd	r22, Y+12	; 0x0c
    3924:	8f 2f       	mov	r24, r31
    3926:	9e 2f       	mov	r25, r30
    3928:	a7 2f       	mov	r26, r23
    392a:	b6 2f       	mov	r27, r22
    392c:	bc 01       	movw	r22, r24
    392e:	cd 01       	movw	r24, r26
    3930:	0e 94 20 27 	call	0x4e40	; 0x4e40 <__addsf3>
    3934:	69 87       	std	Y+9, r22	; 0x09
    3936:	7a 87       	std	Y+10, r23	; 0x0a
    3938:	8b 87       	std	Y+11, r24	; 0x0b
    393a:	9c 87       	std	Y+12, r25	; 0x0c
    393c:	47 2f       	mov	r20, r23
    393e:	38 2f       	mov	r19, r24
    3940:	29 2f       	mov	r18, r25
    3942:	86 2f       	mov	r24, r22
    3944:	94 2f       	mov	r25, r20
    3946:	a3 2f       	mov	r26, r19
    3948:	b2 2f       	mov	r27, r18
    394a:	80 93 06 02 	sts	0x0206, r24
    394e:	90 93 07 02 	sts	0x0207, r25
    3952:	a0 93 08 02 	sts	0x0208, r26
    3956:	b0 93 09 02 	sts	0x0209, r27
    395a:	84 2d       	mov	r24, r4
    395c:	97 2d       	mov	r25, r7
    395e:	a6 2d       	mov	r26, r6
    3960:	b5 2d       	mov	r27, r5
    3962:	bc 01       	movw	r22, r24
    3964:	cd 01       	movw	r24, r26
    3966:	a7 01       	movw	r20, r14
    3968:	96 01       	movw	r18, r12
    396a:	0e 94 a1 29 	call	0x5342	; 0x5342 <__mulsf3>
    396e:	9b 01       	movw	r18, r22
    3970:	ac 01       	movw	r20, r24
    3972:	6e 85       	ldd	r22, Y+14	; 0x0e
    3974:	7f 85       	ldd	r23, Y+15	; 0x0f
    3976:	88 89       	ldd	r24, Y+16	; 0x10
    3978:	99 89       	ldd	r25, Y+17	; 0x11
    397a:	0e 94 20 27 	call	0x4e40	; 0x4e40 <__addsf3>
    397e:	dc 01       	movw	r26, r24
    3980:	cb 01       	movw	r24, r22
    3982:	80 93 02 02 	sts	0x0202, r24
    3986:	90 93 03 02 	sts	0x0203, r25
    398a:	a0 93 04 02 	sts	0x0204, r26
    398e:	b0 93 05 02 	sts	0x0205, r27
    3992:	a1 01       	movw	r20, r2
    3994:	3d 81       	ldd	r19, Y+5	; 0x05
    3996:	2d 85       	ldd	r18, Y+13	; 0x0d
    3998:	85 2f       	mov	r24, r21
    399a:	94 2f       	mov	r25, r20
    399c:	a3 2f       	mov	r26, r19
    399e:	b2 2f       	mov	r27, r18
    39a0:	bc 01       	movw	r22, r24
    39a2:	cd 01       	movw	r24, r26
    39a4:	a8 01       	movw	r20, r16
    39a6:	c5 2e       	mov	r12, r21
    39a8:	d4 2e       	mov	r13, r20
    39aa:	e8 2c       	mov	r14, r8
    39ac:	f9 2c       	mov	r15, r9
    39ae:	a7 01       	movw	r20, r14
    39b0:	96 01       	movw	r18, r12
    39b2:	0e 94 a1 29 	call	0x5342	; 0x5342 <__mulsf3>
    39b6:	9b 01       	movw	r18, r22
    39b8:	ac 01       	movw	r20, r24
    39ba:	f1 01       	movw	r30, r2
    39bc:	7d 81       	ldd	r23, Y+5	; 0x05
    39be:	6d 85       	ldd	r22, Y+13	; 0x0d
    39c0:	8f 2f       	mov	r24, r31
    39c2:	9e 2f       	mov	r25, r30
    39c4:	a7 2f       	mov	r26, r23
    39c6:	b6 2f       	mov	r27, r22
    39c8:	bc 01       	movw	r22, r24
    39ca:	cd 01       	movw	r24, r26
    39cc:	0e 94 1f 27 	call	0x4e3e	; 0x4e3e <__subsf3>
    39d0:	d6 2e       	mov	r13, r22
    39d2:	c7 2e       	mov	r12, r23
    39d4:	f8 2e       	mov	r15, r24
    39d6:	e9 2e       	mov	r14, r25
    39d8:	a6 01       	movw	r20, r12
    39da:	97 01       	movw	r18, r14
    39dc:	85 2f       	mov	r24, r21
    39de:	94 2f       	mov	r25, r20
    39e0:	a3 2f       	mov	r26, r19
    39e2:	b2 2f       	mov	r27, r18
    39e4:	80 93 fe 01 	sts	0x01FE, r24
    39e8:	90 93 ff 01 	sts	0x01FF, r25
    39ec:	a0 93 00 02 	sts	0x0200, r26
    39f0:	b0 93 01 02 	sts	0x0201, r27
    39f4:	5e 89       	ldd	r21, Y+22	; 0x16
    39f6:	4f 89       	ldd	r20, Y+23	; 0x17
    39f8:	38 8d       	ldd	r19, Y+24	; 0x18
    39fa:	29 8d       	ldd	r18, Y+25	; 0x19
    39fc:	85 2f       	mov	r24, r21
    39fe:	94 2f       	mov	r25, r20
    3a00:	a3 2f       	mov	r26, r19
    3a02:	b2 2f       	mov	r27, r18
    3a04:	bc 01       	movw	r22, r24
    3a06:	cd 01       	movw	r24, r26
    3a08:	f8 01       	movw	r30, r16
    3a0a:	0f 2f       	mov	r16, r31
    3a0c:	1e 2f       	mov	r17, r30
    3a0e:	28 2d       	mov	r18, r8
    3a10:	39 2d       	mov	r19, r9
    3a12:	a9 01       	movw	r20, r18
    3a14:	98 01       	movw	r18, r16
    3a16:	0e 94 a1 29 	call	0x5342	; 0x5342 <__mulsf3>
    3a1a:	9b 01       	movw	r18, r22
    3a1c:	ac 01       	movw	r20, r24
    3a1e:	fe 89       	ldd	r31, Y+22	; 0x16
    3a20:	ef 89       	ldd	r30, Y+23	; 0x17
    3a22:	78 8d       	ldd	r23, Y+24	; 0x18
    3a24:	69 8d       	ldd	r22, Y+25	; 0x19
    3a26:	8f 2f       	mov	r24, r31
    3a28:	9e 2f       	mov	r25, r30
    3a2a:	a7 2f       	mov	r26, r23
    3a2c:	b6 2f       	mov	r27, r22
    3a2e:	bc 01       	movw	r22, r24
    3a30:	cd 01       	movw	r24, r26
    3a32:	0e 94 1f 27 	call	0x4e3e	; 0x4e3e <__subsf3>
    3a36:	8b 01       	movw	r16, r22
    3a38:	b8 2e       	mov	r11, r24
    3a3a:	a9 2e       	mov	r10, r25
    3a3c:	95 01       	movw	r18, r10
    3a3e:	86 2f       	mov	r24, r22
    3a40:	91 2f       	mov	r25, r17
    3a42:	a3 2f       	mov	r26, r19
    3a44:	b2 2f       	mov	r27, r18
    3a46:	80 93 fa 01 	sts	0x01FA, r24
    3a4a:	90 93 fb 01 	sts	0x01FB, r25
    3a4e:	a0 93 fc 01 	sts	0x01FC, r26
    3a52:	b0 93 fd 01 	sts	0x01FD, r27
    3a56:	84 2d       	mov	r24, r4
    3a58:	97 2d       	mov	r25, r7
    3a5a:	a6 2d       	mov	r26, r6
    3a5c:	b5 2d       	mov	r27, r5
    3a5e:	bc 01       	movw	r22, r24
    3a60:	cd 01       	movw	r24, r26
    3a62:	a6 01       	movw	r20, r12
    3a64:	97 01       	movw	r18, r14
    3a66:	c5 2e       	mov	r12, r21
    3a68:	d4 2e       	mov	r13, r20
    3a6a:	e3 2e       	mov	r14, r19
    3a6c:	f2 2e       	mov	r15, r18
    3a6e:	a7 01       	movw	r20, r14
    3a70:	96 01       	movw	r18, r12
    3a72:	0e 94 a1 29 	call	0x5342	; 0x5342 <__mulsf3>
    3a76:	9b 01       	movw	r18, r22
    3a78:	ac 01       	movw	r20, r24
    3a7a:	fa 8d       	ldd	r31, Y+26	; 0x1a
    3a7c:	eb 8d       	ldd	r30, Y+27	; 0x1b
    3a7e:	7c 8d       	ldd	r23, Y+28	; 0x1c
    3a80:	6d 8d       	ldd	r22, Y+29	; 0x1d
    3a82:	8f 2f       	mov	r24, r31
    3a84:	9e 2f       	mov	r25, r30
    3a86:	a7 2f       	mov	r26, r23
    3a88:	b6 2f       	mov	r27, r22
    3a8a:	bc 01       	movw	r22, r24
    3a8c:	cd 01       	movw	r24, r26
    3a8e:	0e 94 1f 27 	call	0x4e3e	; 0x4e3e <__subsf3>
    3a92:	dc 01       	movw	r26, r24
    3a94:	cb 01       	movw	r24, r22
    3a96:	80 93 f6 01 	sts	0x01F6, r24
    3a9a:	90 93 f7 01 	sts	0x01F7, r25
    3a9e:	a0 93 f8 01 	sts	0x01F8, r26
    3aa2:	b0 93 f9 01 	sts	0x01F9, r27
    3aa6:	89 81       	ldd	r24, Y+1	; 0x01
    3aa8:	9a 81       	ldd	r25, Y+2	; 0x02
    3aaa:	ab 81       	ldd	r26, Y+3	; 0x03
    3aac:	bc 81       	ldd	r27, Y+4	; 0x04
    3aae:	bc 01       	movw	r22, r24
    3ab0:	cd 01       	movw	r24, r26
    3ab2:	26 ea       	ldi	r18, 0xA6	; 166
    3ab4:	3b e9       	ldi	r19, 0x9B	; 155
    3ab6:	44 e4       	ldi	r20, 0x44	; 68
    3ab8:	5b e3       	ldi	r21, 0x3B	; 59
    3aba:	0e 94 a1 29 	call	0x5342	; 0x5342 <__mulsf3>
    3abe:	9b 01       	movw	r18, r22
    3ac0:	ac 01       	movw	r20, r24
    3ac2:	6a 89       	ldd	r22, Y+18	; 0x12
    3ac4:	7b 89       	ldd	r23, Y+19	; 0x13
    3ac6:	8c 89       	ldd	r24, Y+20	; 0x14
    3ac8:	9d 89       	ldd	r25, Y+21	; 0x15
    3aca:	0e 94 20 27 	call	0x4e40	; 0x4e40 <__addsf3>
    3ace:	6b 01       	movw	r12, r22
    3ad0:	7c 01       	movw	r14, r24
    3ad2:	84 2d       	mov	r24, r4
    3ad4:	97 2d       	mov	r25, r7
    3ad6:	a6 2d       	mov	r26, r6
    3ad8:	b5 2d       	mov	r27, r5
    3ada:	bc 01       	movw	r22, r24
    3adc:	cd 01       	movw	r24, r26
    3ade:	a5 01       	movw	r20, r10
    3ae0:	25 2f       	mov	r18, r21
    3ae2:	34 2f       	mov	r19, r20
    3ae4:	a9 01       	movw	r20, r18
    3ae6:	98 01       	movw	r18, r16
    3ae8:	0e 94 a1 29 	call	0x5342	; 0x5342 <__mulsf3>
    3aec:	9b 01       	movw	r18, r22
    3aee:	ac 01       	movw	r20, r24
    3af0:	c7 01       	movw	r24, r14
    3af2:	b6 01       	movw	r22, r12
    3af4:	0e 94 1f 27 	call	0x4e3e	; 0x4e3e <__subsf3>
    3af8:	dc 01       	movw	r26, r24
    3afa:	cb 01       	movw	r24, r22
    3afc:	80 93 f2 01 	sts	0x01F2, r24
    3b00:	90 93 f3 01 	sts	0x01F3, r25
    3b04:	a0 93 f4 01 	sts	0x01F4, r26
    3b08:	b0 93 f5 01 	sts	0x01F5, r27
    3b0c:	59 85       	ldd	r21, Y+9	; 0x09
    3b0e:	4a 85       	ldd	r20, Y+10	; 0x0a
    3b10:	3b 85       	ldd	r19, Y+11	; 0x0b
    3b12:	2c 85       	ldd	r18, Y+12	; 0x0c
    3b14:	85 2f       	mov	r24, r21
    3b16:	94 2f       	mov	r25, r20
    3b18:	a3 2f       	mov	r26, r19
    3b1a:	b2 2f       	mov	r27, r18
    3b1c:	bc 01       	movw	r22, r24
    3b1e:	cd 01       	movw	r24, r26
    3b20:	a2 96       	adiw	r28, 0x22	; 34
    3b22:	0f b6       	in	r0, 0x3f	; 63
    3b24:	f8 94       	cli
    3b26:	de bf       	out	0x3e, r29	; 62
    3b28:	0f be       	out	0x3f, r0	; 63
    3b2a:	cd bf       	out	0x3d, r28	; 61
    3b2c:	df 91       	pop	r29
    3b2e:	cf 91       	pop	r28
    3b30:	1f 91       	pop	r17
    3b32:	0f 91       	pop	r16
    3b34:	ff 90       	pop	r15
    3b36:	ef 90       	pop	r14
    3b38:	df 90       	pop	r13
    3b3a:	cf 90       	pop	r12
    3b3c:	bf 90       	pop	r11
    3b3e:	af 90       	pop	r10
    3b40:	9f 90       	pop	r9
    3b42:	8f 90       	pop	r8
    3b44:	7f 90       	pop	r7
    3b46:	6f 90       	pop	r6
    3b48:	5f 90       	pop	r5
    3b4a:	4f 90       	pop	r4
    3b4c:	3f 90       	pop	r3
    3b4e:	2f 90       	pop	r2
    3b50:	08 95       	ret

00003b52 <SrvKalmanFilterAlt>:
    3b52:	2f 92       	push	r2
    3b54:	3f 92       	push	r3
    3b56:	4f 92       	push	r4
    3b58:	5f 92       	push	r5
    3b5a:	6f 92       	push	r6
    3b5c:	7f 92       	push	r7
    3b5e:	8f 92       	push	r8
    3b60:	9f 92       	push	r9
    3b62:	af 92       	push	r10
    3b64:	bf 92       	push	r11
    3b66:	cf 92       	push	r12
    3b68:	df 92       	push	r13
    3b6a:	ef 92       	push	r14
    3b6c:	ff 92       	push	r15
    3b6e:	0f 93       	push	r16
    3b70:	1f 93       	push	r17
    3b72:	cf 93       	push	r28
    3b74:	df 93       	push	r29
    3b76:	cd b7       	in	r28, 0x3d	; 61
    3b78:	de b7       	in	r29, 0x3e	; 62
    3b7a:	a2 97       	sbiw	r28, 0x22	; 34
    3b7c:	0f b6       	in	r0, 0x3f	; 63
    3b7e:	f8 94       	cli
    3b80:	de bf       	out	0x3e, r29	; 62
    3b82:	0f be       	out	0x3f, r0	; 63
    3b84:	cd bf       	out	0x3d, r28	; 61
    3b86:	6e 8f       	std	Y+30, r22	; 0x1e
    3b88:	7f 8f       	std	Y+31, r23	; 0x1f
    3b8a:	88 a3       	lds	r24, 0x58
    3b8c:	99 a3       	lds	r25, 0x59
    3b8e:	49 01       	movw	r8, r18
    3b90:	5a 01       	movw	r10, r20
    3b92:	c8 01       	movw	r24, r16
    3b94:	b7 01       	movw	r22, r14
    3b96:	20 e0       	ldi	r18, 0x00	; 0
    3b98:	30 e4       	ldi	r19, 0x40	; 64
    3b9a:	4c e1       	ldi	r20, 0x1C	; 28
    3b9c:	56 e4       	ldi	r21, 0x46	; 70
    3b9e:	0e 94 ed 27 	call	0x4fda	; 0x4fda <__divsf3>
    3ba2:	69 83       	std	Y+1, r22	; 0x01
    3ba4:	7a 83       	std	Y+2, r23	; 0x02
    3ba6:	8b 83       	std	Y+3, r24	; 0x03
    3ba8:	9c 83       	std	Y+4, r25	; 0x04
    3baa:	6b 01       	movw	r12, r22
    3bac:	7c 01       	movw	r14, r24
    3bae:	cb 01       	movw	r24, r22
    3bb0:	ab 81       	ldd	r26, Y+3	; 0x03
    3bb2:	bc 81       	ldd	r27, Y+4	; 0x04
    3bb4:	80 93 65 03 	sts	0x0365, r24
    3bb8:	90 93 66 03 	sts	0x0366, r25
    3bbc:	a0 93 67 03 	sts	0x0367, r26
    3bc0:	b0 93 68 03 	sts	0x0368, r27
    3bc4:	80 91 ea 01 	lds	r24, 0x01EA
    3bc8:	90 91 eb 01 	lds	r25, 0x01EB
    3bcc:	a0 91 ec 01 	lds	r26, 0x01EC
    3bd0:	b0 91 ed 01 	lds	r27, 0x01ED
    3bd4:	8e 87       	std	Y+14, r24	; 0x0e
    3bd6:	9f 87       	std	Y+15, r25	; 0x0f
    3bd8:	a8 8b       	std	Y+16, r26	; 0x10
    3bda:	b9 8b       	std	Y+17, r27	; 0x11
    3bdc:	c5 01       	movw	r24, r10
    3bde:	b4 01       	movw	r22, r8
    3be0:	2e 85       	ldd	r18, Y+14	; 0x0e
    3be2:	3f 85       	ldd	r19, Y+15	; 0x0f
    3be4:	48 89       	ldd	r20, Y+16	; 0x10
    3be6:	59 89       	ldd	r21, Y+17	; 0x11
    3be8:	0e 94 1f 27 	call	0x4e3e	; 0x4e3e <__subsf3>
    3bec:	9b 01       	movw	r18, r22
    3bee:	ac 01       	movw	r20, r24
    3bf0:	89 81       	ldd	r24, Y+1	; 0x01
    3bf2:	9a 81       	ldd	r25, Y+2	; 0x02
    3bf4:	ab 81       	ldd	r26, Y+3	; 0x03
    3bf6:	bc 81       	ldd	r27, Y+4	; 0x04
    3bf8:	bc 01       	movw	r22, r24
    3bfa:	cd 01       	movw	r24, r26
    3bfc:	0e 94 a1 29 	call	0x5342	; 0x5342 <__mulsf3>
    3c00:	20 91 ee 01 	lds	r18, 0x01EE
    3c04:	30 91 ef 01 	lds	r19, 0x01EF
    3c08:	40 91 f0 01 	lds	r20, 0x01F0
    3c0c:	50 91 f1 01 	lds	r21, 0x01F1
    3c10:	0e 94 20 27 	call	0x4e40	; 0x4e40 <__addsf3>
    3c14:	69 87       	std	Y+9, r22	; 0x09
    3c16:	7a 87       	std	Y+10, r23	; 0x0a
    3c18:	8b 87       	std	Y+11, r24	; 0x0b
    3c1a:	9c 87       	std	Y+12, r25	; 0x0c
    3c1c:	f7 fa       	bst	r15, 7
    3c1e:	f0 94       	com	r15
    3c20:	f7 f8       	bld	r15, 7
    3c22:	f0 94       	com	r15
    3c24:	40 90 de 01 	lds	r4, 0x01DE
    3c28:	50 90 df 01 	lds	r5, 0x01DF
    3c2c:	60 90 e0 01 	lds	r6, 0x01E0
    3c30:	70 90 e1 01 	lds	r7, 0x01E1
    3c34:	80 90 e2 01 	lds	r8, 0x01E2
    3c38:	90 90 e3 01 	lds	r9, 0x01E3
    3c3c:	a0 90 e4 01 	lds	r10, 0x01E4
    3c40:	b0 90 e5 01 	lds	r11, 0x01E5
    3c44:	c3 01       	movw	r24, r6
    3c46:	b2 01       	movw	r22, r4
    3c48:	a5 01       	movw	r20, r10
    3c4a:	94 01       	movw	r18, r8
    3c4c:	0e 94 20 27 	call	0x4e40	; 0x4e40 <__addsf3>
    3c50:	9b 01       	movw	r18, r22
    3c52:	ac 01       	movw	r20, r24
    3c54:	c7 01       	movw	r24, r14
    3c56:	b6 01       	movw	r22, r12
    3c58:	0e 94 a1 29 	call	0x5342	; 0x5342 <__mulsf3>
    3c5c:	6d 83       	std	Y+5, r22	; 0x05
    3c5e:	7e 83       	std	Y+6, r23	; 0x06
    3c60:	8f 83       	std	Y+7, r24	; 0x07
    3c62:	98 87       	std	Y+8, r25	; 0x08
    3c64:	89 81       	ldd	r24, Y+1	; 0x01
    3c66:	9a 81       	ldd	r25, Y+2	; 0x02
    3c68:	ab 81       	ldd	r26, Y+3	; 0x03
    3c6a:	bc 81       	ldd	r27, Y+4	; 0x04
    3c6c:	bc 01       	movw	r22, r24
    3c6e:	cd 01       	movw	r24, r26
    3c70:	2f e6       	ldi	r18, 0x6F	; 111
    3c72:	32 e1       	ldi	r19, 0x12	; 18
    3c74:	43 e8       	ldi	r20, 0x83	; 131
    3c76:	5a e3       	ldi	r21, 0x3A	; 58
    3c78:	0e 94 a1 29 	call	0x5342	; 0x5342 <__mulsf3>
    3c7c:	9b 01       	movw	r18, r22
    3c7e:	ac 01       	movw	r20, r24
    3c80:	6d 81       	ldd	r22, Y+5	; 0x05
    3c82:	7e 81       	ldd	r23, Y+6	; 0x06
    3c84:	8f 81       	ldd	r24, Y+7	; 0x07
    3c86:	98 85       	ldd	r25, Y+8	; 0x08
    3c88:	0e 94 20 27 	call	0x4e40	; 0x4e40 <__addsf3>
    3c8c:	20 91 e6 01 	lds	r18, 0x01E6
    3c90:	30 91 e7 01 	lds	r19, 0x01E7
    3c94:	40 91 e8 01 	lds	r20, 0x01E8
    3c98:	50 91 e9 01 	lds	r21, 0x01E9
    3c9c:	0e 94 20 27 	call	0x4e40	; 0x4e40 <__addsf3>
    3ca0:	36 2e       	mov	r3, r22
    3ca2:	27 2e       	mov	r2, r23
    3ca4:	8d 83       	std	Y+5, r24	; 0x05
    3ca6:	9d 87       	std	Y+13, r25	; 0x0d
    3ca8:	80 91 da 01 	lds	r24, 0x01DA
    3cac:	90 91 db 01 	lds	r25, 0x01DB
    3cb0:	a0 91 dc 01 	lds	r26, 0x01DC
    3cb4:	b0 91 dd 01 	lds	r27, 0x01DD
    3cb8:	8a 8b       	std	Y+18, r24	; 0x12
    3cba:	9b 8b       	std	Y+19, r25	; 0x13
    3cbc:	ac 8b       	std	Y+20, r26	; 0x14
    3cbe:	bd 8b       	std	Y+21, r27	; 0x15
    3cc0:	c7 01       	movw	r24, r14
    3cc2:	b6 01       	movw	r22, r12
    3cc4:	2a 89       	ldd	r18, Y+18	; 0x12
    3cc6:	3b 89       	ldd	r19, Y+19	; 0x13
    3cc8:	4c 89       	ldd	r20, Y+20	; 0x14
    3cca:	5d 89       	ldd	r21, Y+21	; 0x15
    3ccc:	0e 94 a1 29 	call	0x5342	; 0x5342 <__mulsf3>
    3cd0:	d6 2e       	mov	r13, r22
    3cd2:	c7 2e       	mov	r12, r23
    3cd4:	f8 2e       	mov	r15, r24
    3cd6:	e9 2e       	mov	r14, r25
    3cd8:	c5 01       	movw	r24, r10
    3cda:	b4 01       	movw	r22, r8
    3cdc:	f6 01       	movw	r30, r12
    3cde:	a7 01       	movw	r20, r14
    3ce0:	0f 2f       	mov	r16, r31
    3ce2:	1e 2f       	mov	r17, r30
    3ce4:	25 2f       	mov	r18, r21
    3ce6:	34 2f       	mov	r19, r20
    3ce8:	a9 01       	movw	r20, r18
    3cea:	98 01       	movw	r18, r16
    3cec:	0e 94 20 27 	call	0x4e40	; 0x4e40 <__addsf3>
    3cf0:	6e 8b       	std	Y+22, r22	; 0x16
    3cf2:	7f 8b       	std	Y+23, r23	; 0x17
    3cf4:	88 8f       	std	Y+24, r24	; 0x18
    3cf6:	99 8f       	std	Y+25, r25	; 0x19
    3cf8:	c3 01       	movw	r24, r6
    3cfa:	b2 01       	movw	r22, r4
    3cfc:	a7 01       	movw	r20, r14
    3cfe:	25 2f       	mov	r18, r21
    3d00:	34 2f       	mov	r19, r20
    3d02:	a9 01       	movw	r20, r18
    3d04:	98 01       	movw	r18, r16
    3d06:	0e 94 20 27 	call	0x4e40	; 0x4e40 <__addsf3>
    3d0a:	6a 8f       	std	Y+26, r22	; 0x1a
    3d0c:	7b 8f       	std	Y+27, r23	; 0x1b
    3d0e:	8c 8f       	std	Y+28, r24	; 0x1c
    3d10:	9d 8f       	std	Y+29, r25	; 0x1d
    3d12:	a1 01       	movw	r20, r2
    3d14:	3d 81       	ldd	r19, Y+5	; 0x05
    3d16:	2d 85       	ldd	r18, Y+13	; 0x0d
    3d18:	85 2f       	mov	r24, r21
    3d1a:	94 2f       	mov	r25, r20
    3d1c:	a3 2f       	mov	r26, r19
    3d1e:	b2 2f       	mov	r27, r18
    3d20:	bc 01       	movw	r22, r24
    3d22:	cd 01       	movw	r24, r26
    3d24:	2f e8       	ldi	r18, 0x8F	; 143
    3d26:	32 ec       	ldi	r19, 0xC2	; 194
    3d28:	45 ef       	ldi	r20, 0xF5	; 245
    3d2a:	5c e3       	ldi	r21, 0x3C	; 60
    3d2c:	0e 94 20 27 	call	0x4e40	; 0x4e40 <__addsf3>
    3d30:	b6 2e       	mov	r11, r22
    3d32:	c7 2e       	mov	r12, r23
    3d34:	f8 2e       	mov	r15, r24
    3d36:	e9 2e       	mov	r14, r25
    3d38:	97 01       	movw	r18, r14
    3d3a:	86 2f       	mov	r24, r22
    3d3c:	9c 2d       	mov	r25, r12
    3d3e:	a3 2f       	mov	r26, r19
    3d40:	b2 2f       	mov	r27, r18
    3d42:	80 93 61 03 	sts	0x0361, r24
    3d46:	90 93 62 03 	sts	0x0362, r25
    3d4a:	a0 93 63 03 	sts	0x0363, r26
    3d4e:	b0 93 64 03 	sts	0x0364, r27
    3d52:	a1 01       	movw	r20, r2
    3d54:	3d 81       	ldd	r19, Y+5	; 0x05
    3d56:	2d 85       	ldd	r18, Y+13	; 0x0d
    3d58:	85 2f       	mov	r24, r21
    3d5a:	94 2f       	mov	r25, r20
    3d5c:	a3 2f       	mov	r26, r19
    3d5e:	b2 2f       	mov	r27, r18
    3d60:	bc 01       	movw	r22, r24
    3d62:	cd 01       	movw	r24, r26
    3d64:	a7 01       	movw	r20, r14
    3d66:	0b 2d       	mov	r16, r11
    3d68:	1c 2d       	mov	r17, r12
    3d6a:	25 2f       	mov	r18, r21
    3d6c:	34 2f       	mov	r19, r20
    3d6e:	a9 01       	movw	r20, r18
    3d70:	98 01       	movw	r18, r16
    3d72:	0e 94 ed 27 	call	0x4fda	; 0x4fda <__divsf3>
    3d76:	16 2f       	mov	r17, r22
    3d78:	07 2f       	mov	r16, r23
    3d7a:	4c 01       	movw	r8, r24
    3d7c:	a8 01       	movw	r20, r16
    3d7e:	85 2f       	mov	r24, r21
    3d80:	94 2f       	mov	r25, r20
    3d82:	a8 2d       	mov	r26, r8
    3d84:	b9 2d       	mov	r27, r9
    3d86:	80 93 89 03 	sts	0x0389, r24
    3d8a:	90 93 8a 03 	sts	0x038A, r25
    3d8e:	a0 93 8b 03 	sts	0x038B, r26
    3d92:	b0 93 8c 03 	sts	0x038C, r27
    3d96:	5a 8d       	ldd	r21, Y+26	; 0x1a
    3d98:	4b 8d       	ldd	r20, Y+27	; 0x1b
    3d9a:	3c 8d       	ldd	r19, Y+28	; 0x1c
    3d9c:	2d 8d       	ldd	r18, Y+29	; 0x1d
    3d9e:	85 2f       	mov	r24, r21
    3da0:	94 2f       	mov	r25, r20
    3da2:	a3 2f       	mov	r26, r19
    3da4:	b2 2f       	mov	r27, r18
    3da6:	bc 01       	movw	r22, r24
    3da8:	cd 01       	movw	r24, r26
    3daa:	4c 2d       	mov	r20, r12
    3dac:	97 01       	movw	r18, r14
    3dae:	cb 2c       	mov	r12, r11
    3db0:	d4 2e       	mov	r13, r20
    3db2:	e3 2e       	mov	r14, r19
    3db4:	f2 2e       	mov	r15, r18
    3db6:	a7 01       	movw	r20, r14
    3db8:	96 01       	movw	r18, r12
    3dba:	0e 94 ed 27 	call	0x4fda	; 0x4fda <__divsf3>
    3dbe:	46 2e       	mov	r4, r22
    3dc0:	77 2e       	mov	r7, r23
    3dc2:	68 2e       	mov	r6, r24
    3dc4:	59 2e       	mov	r5, r25
    3dc6:	86 2f       	mov	r24, r22
    3dc8:	97 2d       	mov	r25, r7
    3dca:	a6 2d       	mov	r26, r6
    3dcc:	b5 2d       	mov	r27, r5
    3dce:	80 93 9d 03 	sts	0x039D, r24
    3dd2:	90 93 9e 03 	sts	0x039E, r25
    3dd6:	a0 93 9f 03 	sts	0x039F, r26
    3dda:	b0 93 a0 03 	sts	0x03A0, r27
    3dde:	6e 8d       	ldd	r22, Y+30	; 0x1e
    3de0:	7f 8d       	ldd	r23, Y+31	; 0x1f
    3de2:	88 a1       	lds	r24, 0x48
    3de4:	99 a1       	lds	r25, 0x49
    3de6:	59 85       	ldd	r21, Y+9	; 0x09
    3de8:	4a 85       	ldd	r20, Y+10	; 0x0a
    3dea:	3b 85       	ldd	r19, Y+11	; 0x0b
    3dec:	2c 85       	ldd	r18, Y+12	; 0x0c
    3dee:	c5 2e       	mov	r12, r21
    3df0:	d4 2e       	mov	r13, r20
    3df2:	e3 2e       	mov	r14, r19
    3df4:	f2 2e       	mov	r15, r18
    3df6:	a7 01       	movw	r20, r14
    3df8:	96 01       	movw	r18, r12
    3dfa:	0e 94 1f 27 	call	0x4e3e	; 0x4e3e <__subsf3>
    3dfe:	6e 8f       	std	Y+30, r22	; 0x1e
    3e00:	7a a3       	lds	r23, 0x5a
    3e02:	b8 2e       	mov	r11, r24
    3e04:	a9 2e       	mov	r10, r25
    3e06:	47 2f       	mov	r20, r23
    3e08:	95 01       	movw	r18, r10
    3e0a:	86 2f       	mov	r24, r22
    3e0c:	94 2f       	mov	r25, r20
    3e0e:	a3 2f       	mov	r26, r19
    3e10:	b2 2f       	mov	r27, r18
    3e12:	80 93 81 03 	sts	0x0381, r24
    3e16:	90 93 82 03 	sts	0x0382, r25
    3e1a:	a0 93 83 03 	sts	0x0383, r26
    3e1e:	b0 93 84 03 	sts	0x0384, r27
    3e22:	a8 01       	movw	r20, r16
    3e24:	85 2f       	mov	r24, r21
    3e26:	94 2f       	mov	r25, r20
    3e28:	a8 2d       	mov	r26, r8
    3e2a:	b9 2d       	mov	r27, r9
    3e2c:	bc 01       	movw	r22, r24
    3e2e:	cd 01       	movw	r24, r26
    3e30:	5e 8d       	ldd	r21, Y+30	; 0x1e
    3e32:	4a a1       	lds	r20, 0x4a
    3e34:	95 01       	movw	r18, r10
    3e36:	c5 2e       	mov	r12, r21
    3e38:	d4 2e       	mov	r13, r20
    3e3a:	e3 2e       	mov	r14, r19
    3e3c:	f2 2e       	mov	r15, r18
    3e3e:	a7 01       	movw	r20, r14
    3e40:	96 01       	movw	r18, r12
    3e42:	0e 94 a1 29 	call	0x5342	; 0x5342 <__mulsf3>
    3e46:	9b 01       	movw	r18, r22
    3e48:	ac 01       	movw	r20, r24
    3e4a:	f9 85       	ldd	r31, Y+9	; 0x09
    3e4c:	ea 85       	ldd	r30, Y+10	; 0x0a
    3e4e:	7b 85       	ldd	r23, Y+11	; 0x0b
    3e50:	6c 85       	ldd	r22, Y+12	; 0x0c
    3e52:	8f 2f       	mov	r24, r31
    3e54:	9e 2f       	mov	r25, r30
    3e56:	a7 2f       	mov	r26, r23
    3e58:	b6 2f       	mov	r27, r22
    3e5a:	bc 01       	movw	r22, r24
    3e5c:	cd 01       	movw	r24, r26
    3e5e:	0e 94 20 27 	call	0x4e40	; 0x4e40 <__addsf3>
    3e62:	69 87       	std	Y+9, r22	; 0x09
    3e64:	7a 87       	std	Y+10, r23	; 0x0a
    3e66:	8b 87       	std	Y+11, r24	; 0x0b
    3e68:	9c 87       	std	Y+12, r25	; 0x0c
    3e6a:	47 2f       	mov	r20, r23
    3e6c:	38 2f       	mov	r19, r24
    3e6e:	29 2f       	mov	r18, r25
    3e70:	86 2f       	mov	r24, r22
    3e72:	94 2f       	mov	r25, r20
    3e74:	a3 2f       	mov	r26, r19
    3e76:	b2 2f       	mov	r27, r18
    3e78:	80 93 ee 01 	sts	0x01EE, r24
    3e7c:	90 93 ef 01 	sts	0x01EF, r25
    3e80:	a0 93 f0 01 	sts	0x01F0, r26
    3e84:	b0 93 f1 01 	sts	0x01F1, r27
    3e88:	84 2d       	mov	r24, r4
    3e8a:	97 2d       	mov	r25, r7
    3e8c:	a6 2d       	mov	r26, r6
    3e8e:	b5 2d       	mov	r27, r5
    3e90:	bc 01       	movw	r22, r24
    3e92:	cd 01       	movw	r24, r26
    3e94:	a7 01       	movw	r20, r14
    3e96:	96 01       	movw	r18, r12
    3e98:	0e 94 a1 29 	call	0x5342	; 0x5342 <__mulsf3>
    3e9c:	9b 01       	movw	r18, r22
    3e9e:	ac 01       	movw	r20, r24
    3ea0:	6e 85       	ldd	r22, Y+14	; 0x0e
    3ea2:	7f 85       	ldd	r23, Y+15	; 0x0f
    3ea4:	88 89       	ldd	r24, Y+16	; 0x10
    3ea6:	99 89       	ldd	r25, Y+17	; 0x11
    3ea8:	0e 94 20 27 	call	0x4e40	; 0x4e40 <__addsf3>
    3eac:	dc 01       	movw	r26, r24
    3eae:	cb 01       	movw	r24, r22
    3eb0:	80 93 ea 01 	sts	0x01EA, r24
    3eb4:	90 93 eb 01 	sts	0x01EB, r25
    3eb8:	a0 93 ec 01 	sts	0x01EC, r26
    3ebc:	b0 93 ed 01 	sts	0x01ED, r27
    3ec0:	a1 01       	movw	r20, r2
    3ec2:	3d 81       	ldd	r19, Y+5	; 0x05
    3ec4:	2d 85       	ldd	r18, Y+13	; 0x0d
    3ec6:	85 2f       	mov	r24, r21
    3ec8:	94 2f       	mov	r25, r20
    3eca:	a3 2f       	mov	r26, r19
    3ecc:	b2 2f       	mov	r27, r18
    3ece:	bc 01       	movw	r22, r24
    3ed0:	cd 01       	movw	r24, r26
    3ed2:	a8 01       	movw	r20, r16
    3ed4:	c5 2e       	mov	r12, r21
    3ed6:	d4 2e       	mov	r13, r20
    3ed8:	e8 2c       	mov	r14, r8
    3eda:	f9 2c       	mov	r15, r9
    3edc:	a7 01       	movw	r20, r14
    3ede:	96 01       	movw	r18, r12
    3ee0:	0e 94 a1 29 	call	0x5342	; 0x5342 <__mulsf3>
    3ee4:	9b 01       	movw	r18, r22
    3ee6:	ac 01       	movw	r20, r24
    3ee8:	f1 01       	movw	r30, r2
    3eea:	7d 81       	ldd	r23, Y+5	; 0x05
    3eec:	6d 85       	ldd	r22, Y+13	; 0x0d
    3eee:	8f 2f       	mov	r24, r31
    3ef0:	9e 2f       	mov	r25, r30
    3ef2:	a7 2f       	mov	r26, r23
    3ef4:	b6 2f       	mov	r27, r22
    3ef6:	bc 01       	movw	r22, r24
    3ef8:	cd 01       	movw	r24, r26
    3efa:	0e 94 1f 27 	call	0x4e3e	; 0x4e3e <__subsf3>
    3efe:	d6 2e       	mov	r13, r22
    3f00:	c7 2e       	mov	r12, r23
    3f02:	f8 2e       	mov	r15, r24
    3f04:	e9 2e       	mov	r14, r25
    3f06:	a6 01       	movw	r20, r12
    3f08:	97 01       	movw	r18, r14
    3f0a:	85 2f       	mov	r24, r21
    3f0c:	94 2f       	mov	r25, r20
    3f0e:	a3 2f       	mov	r26, r19
    3f10:	b2 2f       	mov	r27, r18
    3f12:	80 93 e6 01 	sts	0x01E6, r24
    3f16:	90 93 e7 01 	sts	0x01E7, r25
    3f1a:	a0 93 e8 01 	sts	0x01E8, r26
    3f1e:	b0 93 e9 01 	sts	0x01E9, r27
    3f22:	5e 89       	ldd	r21, Y+22	; 0x16
    3f24:	4f 89       	ldd	r20, Y+23	; 0x17
    3f26:	38 8d       	ldd	r19, Y+24	; 0x18
    3f28:	29 8d       	ldd	r18, Y+25	; 0x19
    3f2a:	85 2f       	mov	r24, r21
    3f2c:	94 2f       	mov	r25, r20
    3f2e:	a3 2f       	mov	r26, r19
    3f30:	b2 2f       	mov	r27, r18
    3f32:	bc 01       	movw	r22, r24
    3f34:	cd 01       	movw	r24, r26
    3f36:	f8 01       	movw	r30, r16
    3f38:	0f 2f       	mov	r16, r31
    3f3a:	1e 2f       	mov	r17, r30
    3f3c:	28 2d       	mov	r18, r8
    3f3e:	39 2d       	mov	r19, r9
    3f40:	a9 01       	movw	r20, r18
    3f42:	98 01       	movw	r18, r16
    3f44:	0e 94 a1 29 	call	0x5342	; 0x5342 <__mulsf3>
    3f48:	9b 01       	movw	r18, r22
    3f4a:	ac 01       	movw	r20, r24
    3f4c:	fe 89       	ldd	r31, Y+22	; 0x16
    3f4e:	ef 89       	ldd	r30, Y+23	; 0x17
    3f50:	78 8d       	ldd	r23, Y+24	; 0x18
    3f52:	69 8d       	ldd	r22, Y+25	; 0x19
    3f54:	8f 2f       	mov	r24, r31
    3f56:	9e 2f       	mov	r25, r30
    3f58:	a7 2f       	mov	r26, r23
    3f5a:	b6 2f       	mov	r27, r22
    3f5c:	bc 01       	movw	r22, r24
    3f5e:	cd 01       	movw	r24, r26
    3f60:	0e 94 1f 27 	call	0x4e3e	; 0x4e3e <__subsf3>
    3f64:	8b 01       	movw	r16, r22
    3f66:	b8 2e       	mov	r11, r24
    3f68:	a9 2e       	mov	r10, r25
    3f6a:	95 01       	movw	r18, r10
    3f6c:	86 2f       	mov	r24, r22
    3f6e:	91 2f       	mov	r25, r17
    3f70:	a3 2f       	mov	r26, r19
    3f72:	b2 2f       	mov	r27, r18
    3f74:	80 93 e2 01 	sts	0x01E2, r24
    3f78:	90 93 e3 01 	sts	0x01E3, r25
    3f7c:	a0 93 e4 01 	sts	0x01E4, r26
    3f80:	b0 93 e5 01 	sts	0x01E5, r27
    3f84:	84 2d       	mov	r24, r4
    3f86:	97 2d       	mov	r25, r7
    3f88:	a6 2d       	mov	r26, r6
    3f8a:	b5 2d       	mov	r27, r5
    3f8c:	bc 01       	movw	r22, r24
    3f8e:	cd 01       	movw	r24, r26
    3f90:	a6 01       	movw	r20, r12
    3f92:	97 01       	movw	r18, r14
    3f94:	c5 2e       	mov	r12, r21
    3f96:	d4 2e       	mov	r13, r20
    3f98:	e3 2e       	mov	r14, r19
    3f9a:	f2 2e       	mov	r15, r18
    3f9c:	a7 01       	movw	r20, r14
    3f9e:	96 01       	movw	r18, r12
    3fa0:	0e 94 a1 29 	call	0x5342	; 0x5342 <__mulsf3>
    3fa4:	9b 01       	movw	r18, r22
    3fa6:	ac 01       	movw	r20, r24
    3fa8:	fa 8d       	ldd	r31, Y+26	; 0x1a
    3faa:	eb 8d       	ldd	r30, Y+27	; 0x1b
    3fac:	7c 8d       	ldd	r23, Y+28	; 0x1c
    3fae:	6d 8d       	ldd	r22, Y+29	; 0x1d
    3fb0:	8f 2f       	mov	r24, r31
    3fb2:	9e 2f       	mov	r25, r30
    3fb4:	a7 2f       	mov	r26, r23
    3fb6:	b6 2f       	mov	r27, r22
    3fb8:	bc 01       	movw	r22, r24
    3fba:	cd 01       	movw	r24, r26
    3fbc:	0e 94 1f 27 	call	0x4e3e	; 0x4e3e <__subsf3>
    3fc0:	dc 01       	movw	r26, r24
    3fc2:	cb 01       	movw	r24, r22
    3fc4:	80 93 de 01 	sts	0x01DE, r24
    3fc8:	90 93 df 01 	sts	0x01DF, r25
    3fcc:	a0 93 e0 01 	sts	0x01E0, r26
    3fd0:	b0 93 e1 01 	sts	0x01E1, r27
    3fd4:	89 81       	ldd	r24, Y+1	; 0x01
    3fd6:	9a 81       	ldd	r25, Y+2	; 0x02
    3fd8:	ab 81       	ldd	r26, Y+3	; 0x03
    3fda:	bc 81       	ldd	r27, Y+4	; 0x04
    3fdc:	bc 01       	movw	r22, r24
    3fde:	cd 01       	movw	r24, r26
    3fe0:	26 ea       	ldi	r18, 0xA6	; 166
    3fe2:	3b e9       	ldi	r19, 0x9B	; 155
    3fe4:	44 e4       	ldi	r20, 0x44	; 68
    3fe6:	5b e3       	ldi	r21, 0x3B	; 59
    3fe8:	0e 94 a1 29 	call	0x5342	; 0x5342 <__mulsf3>
    3fec:	9b 01       	movw	r18, r22
    3fee:	ac 01       	movw	r20, r24
    3ff0:	6a 89       	ldd	r22, Y+18	; 0x12
    3ff2:	7b 89       	ldd	r23, Y+19	; 0x13
    3ff4:	8c 89       	ldd	r24, Y+20	; 0x14
    3ff6:	9d 89       	ldd	r25, Y+21	; 0x15
    3ff8:	0e 94 20 27 	call	0x4e40	; 0x4e40 <__addsf3>
    3ffc:	6b 01       	movw	r12, r22
    3ffe:	7c 01       	movw	r14, r24
    4000:	84 2d       	mov	r24, r4
    4002:	97 2d       	mov	r25, r7
    4004:	a6 2d       	mov	r26, r6
    4006:	b5 2d       	mov	r27, r5
    4008:	bc 01       	movw	r22, r24
    400a:	cd 01       	movw	r24, r26
    400c:	a5 01       	movw	r20, r10
    400e:	25 2f       	mov	r18, r21
    4010:	34 2f       	mov	r19, r20
    4012:	a9 01       	movw	r20, r18
    4014:	98 01       	movw	r18, r16
    4016:	0e 94 a1 29 	call	0x5342	; 0x5342 <__mulsf3>
    401a:	9b 01       	movw	r18, r22
    401c:	ac 01       	movw	r20, r24
    401e:	c7 01       	movw	r24, r14
    4020:	b6 01       	movw	r22, r12
    4022:	0e 94 1f 27 	call	0x4e3e	; 0x4e3e <__subsf3>
    4026:	dc 01       	movw	r26, r24
    4028:	cb 01       	movw	r24, r22
    402a:	80 93 da 01 	sts	0x01DA, r24
    402e:	90 93 db 01 	sts	0x01DB, r25
    4032:	a0 93 dc 01 	sts	0x01DC, r26
    4036:	b0 93 dd 01 	sts	0x01DD, r27
    403a:	59 85       	ldd	r21, Y+9	; 0x09
    403c:	4a 85       	ldd	r20, Y+10	; 0x0a
    403e:	3b 85       	ldd	r19, Y+11	; 0x0b
    4040:	2c 85       	ldd	r18, Y+12	; 0x0c
    4042:	85 2f       	mov	r24, r21
    4044:	94 2f       	mov	r25, r20
    4046:	a3 2f       	mov	r26, r19
    4048:	b2 2f       	mov	r27, r18
    404a:	bc 01       	movw	r22, r24
    404c:	cd 01       	movw	r24, r26
    404e:	a2 96       	adiw	r28, 0x22	; 34
    4050:	0f b6       	in	r0, 0x3f	; 63
    4052:	f8 94       	cli
    4054:	de bf       	out	0x3e, r29	; 62
    4056:	0f be       	out	0x3f, r0	; 63
    4058:	cd bf       	out	0x3d, r28	; 61
    405a:	df 91       	pop	r29
    405c:	cf 91       	pop	r28
    405e:	1f 91       	pop	r17
    4060:	0f 91       	pop	r16
    4062:	ff 90       	pop	r15
    4064:	ef 90       	pop	r14
    4066:	df 90       	pop	r13
    4068:	cf 90       	pop	r12
    406a:	bf 90       	pop	r11
    406c:	af 90       	pop	r10
    406e:	9f 90       	pop	r9
    4070:	8f 90       	pop	r8
    4072:	7f 90       	pop	r7
    4074:	6f 90       	pop	r6
    4076:	5f 90       	pop	r5
    4078:	4f 90       	pop	r4
    407a:	3f 90       	pop	r3
    407c:	2f 90       	pop	r2
    407e:	08 95       	ret

00004080 <SrvMotorInit>:
    4080:	0e 94 75 08 	call	0x10ea	; 0x10ea <DrvServo>
    4084:	88 ee       	ldi	r24, 0xE8	; 232
    4086:	93 e0       	ldi	r25, 0x03	; 3
    4088:	90 93 3b 02 	sts	0x023B, r25
    408c:	80 93 3a 02 	sts	0x023A, r24
    4090:	90 93 73 01 	sts	0x0173, r25
    4094:	80 93 72 01 	sts	0x0172, r24
    4098:	90 93 77 01 	sts	0x0177, r25
    409c:	80 93 76 01 	sts	0x0176, r24
    40a0:	90 93 71 01 	sts	0x0171, r25
    40a4:	80 93 70 01 	sts	0x0170, r24
    40a8:	90 93 75 01 	sts	0x0175, r25
    40ac:	80 93 74 01 	sts	0x0174, r24
    40b0:	81 e0       	ldi	r24, 0x01	; 1
    40b2:	08 95       	ret

000040b4 <SrvMotorUpdate>:
    40b4:	6f 92       	push	r6
    40b6:	7f 92       	push	r7
    40b8:	8f 92       	push	r8
    40ba:	9f 92       	push	r9
    40bc:	af 92       	push	r10
    40be:	bf 92       	push	r11
    40c0:	cf 92       	push	r12
    40c2:	df 92       	push	r13
    40c4:	ef 92       	push	r14
    40c6:	ff 92       	push	r15
    40c8:	0f 93       	push	r16
    40ca:	1f 93       	push	r17
    40cc:	cf 93       	push	r28
    40ce:	df 93       	push	r29
    40d0:	d8 2e       	mov	r13, r24
    40d2:	c9 2e       	mov	r12, r25
    40d4:	e0 90 3a 02 	lds	r14, 0x023A
    40d8:	f0 90 3b 02 	lds	r15, 0x023B
    40dc:	89 ee       	ldi	r24, 0xE9	; 233
    40de:	e8 16       	cp	r14, r24
    40e0:	83 e0       	ldi	r24, 0x03	; 3
    40e2:	f8 06       	cpc	r15, r24
    40e4:	08 f4       	brcc	.+2      	; 0x40e8 <SrvMotorUpdate+0x34>
    40e6:	fc c0       	rjmp	.+504    	; 0x42e0 <SrvMotorUpdate+0x22c>
    40e8:	4b 01       	movw	r8, r22
    40ea:	b7 01       	movw	r22, r14
    40ec:	68 19       	sub	r22, r8
    40ee:	79 09       	sbc	r23, r9
    40f0:	80 e0       	ldi	r24, 0x00	; 0
    40f2:	90 e0       	ldi	r25, 0x00	; 0
    40f4:	0e 94 86 28 	call	0x510c	; 0x510c <__floatunsisf>
    40f8:	d6 2f       	mov	r29, r22
    40fa:	c7 2f       	mov	r28, r23
    40fc:	18 2f       	mov	r17, r24
    40fe:	09 2f       	mov	r16, r25
    4100:	ae 01       	movw	r20, r28
    4102:	98 01       	movw	r18, r16
    4104:	85 2f       	mov	r24, r21
    4106:	94 2f       	mov	r25, r20
    4108:	a3 2f       	mov	r26, r19
    410a:	b2 2f       	mov	r27, r18
    410c:	bc 01       	movw	r22, r24
    410e:	cd 01       	movw	r24, r26
    4110:	20 e0       	ldi	r18, 0x00	; 0
    4112:	30 e0       	ldi	r19, 0x00	; 0
    4114:	4a ef       	ldi	r20, 0xFA	; 250
    4116:	54 e4       	ldi	r21, 0x44	; 68
    4118:	0e 94 96 29 	call	0x532c	; 0x532c <__gesf2>
    411c:	18 16       	cp	r1, r24
    411e:	bc f5       	brge	.+110    	; 0x418e <SrvMotorUpdate+0xda>
    4120:	88 ee       	ldi	r24, 0xE8	; 232
    4122:	68 2e       	mov	r6, r24
    4124:	83 e0       	ldi	r24, 0x03	; 3
    4126:	78 2e       	mov	r7, r24
    4128:	60 ed       	ldi	r22, 0xD0	; 208
    412a:	77 e0       	ldi	r23, 0x07	; 7
    412c:	70 93 73 01 	sts	0x0173, r23
    4130:	60 93 72 01 	sts	0x0172, r22
    4134:	ad 2c       	mov	r10, r13
    4136:	bc 2c       	mov	r11, r12
    4138:	b5 01       	movw	r22, r10
    413a:	6e 0d       	add	r22, r14
    413c:	7f 1d       	adc	r23, r15
    413e:	80 e0       	ldi	r24, 0x00	; 0
    4140:	90 e0       	ldi	r25, 0x00	; 0
    4142:	0e 94 86 28 	call	0x510c	; 0x510c <__floatunsisf>
    4146:	eb 01       	movw	r28, r22
    4148:	18 2f       	mov	r17, r24
    414a:	09 2f       	mov	r16, r25
    414c:	98 01       	movw	r18, r16
    414e:	86 2f       	mov	r24, r22
    4150:	9d 2f       	mov	r25, r29
    4152:	a3 2f       	mov	r26, r19
    4154:	b2 2f       	mov	r27, r18
    4156:	bc 01       	movw	r22, r24
    4158:	cd 01       	movw	r24, r26
    415a:	20 e0       	ldi	r18, 0x00	; 0
    415c:	30 e0       	ldi	r19, 0x00	; 0
    415e:	4a ef       	ldi	r20, 0xFA	; 250
    4160:	54 e4       	ldi	r21, 0x44	; 68
    4162:	0e 94 96 29 	call	0x532c	; 0x532c <__gesf2>
    4166:	18 16       	cp	r1, r24
    4168:	3c f1       	brlt	.+78     	; 0x41b8 <SrvMotorUpdate+0x104>
    416a:	98 01       	movw	r18, r16
    416c:	8c 2f       	mov	r24, r28
    416e:	9d 2f       	mov	r25, r29
    4170:	a3 2f       	mov	r26, r19
    4172:	b2 2f       	mov	r27, r18
    4174:	bc 01       	movw	r22, r24
    4176:	cd 01       	movw	r24, r26
    4178:	20 e0       	ldi	r18, 0x00	; 0
    417a:	30 e0       	ldi	r19, 0x00	; 0
    417c:	4a e7       	ldi	r20, 0x7A	; 122
    417e:	54 e4       	ldi	r21, 0x44	; 68
    4180:	0e 94 e6 27 	call	0x4fcc	; 0x4fcc <__cmpsf2>
    4184:	87 ff       	sbrs	r24, 7
    4186:	de c0       	rjmp	.+444    	; 0x4344 <SrvMotorUpdate+0x290>
    4188:	88 ee       	ldi	r24, 0xE8	; 232
    418a:	93 e0       	ldi	r25, 0x03	; 3
    418c:	17 c0       	rjmp	.+46     	; 0x41bc <SrvMotorUpdate+0x108>
    418e:	ae 01       	movw	r20, r28
    4190:	98 01       	movw	r18, r16
    4192:	85 2f       	mov	r24, r21
    4194:	94 2f       	mov	r25, r20
    4196:	a3 2f       	mov	r26, r19
    4198:	b2 2f       	mov	r27, r18
    419a:	bc 01       	movw	r22, r24
    419c:	cd 01       	movw	r24, r26
    419e:	20 e0       	ldi	r18, 0x00	; 0
    41a0:	30 e0       	ldi	r19, 0x00	; 0
    41a2:	4a e7       	ldi	r20, 0x7A	; 122
    41a4:	54 e4       	ldi	r21, 0x44	; 68
    41a6:	0e 94 e6 27 	call	0x4fcc	; 0x4fcc <__cmpsf2>
    41aa:	87 ff       	sbrs	r24, 7
    41ac:	d7 c0       	rjmp	.+430    	; 0x435c <SrvMotorUpdate+0x2a8>
    41ae:	66 24       	eor	r6, r6
    41b0:	77 24       	eor	r7, r7
    41b2:	68 ee       	ldi	r22, 0xE8	; 232
    41b4:	73 e0       	ldi	r23, 0x03	; 3
    41b6:	ba cf       	rjmp	.-140    	; 0x412c <SrvMotorUpdate+0x78>
    41b8:	80 ed       	ldi	r24, 0xD0	; 208
    41ba:	97 e0       	ldi	r25, 0x07	; 7
    41bc:	90 93 77 01 	sts	0x0177, r25
    41c0:	80 93 76 01 	sts	0x0176, r24
    41c4:	b7 01       	movw	r22, r14
    41c6:	6a 19       	sub	r22, r10
    41c8:	7b 09       	sbc	r23, r11
    41ca:	80 e0       	ldi	r24, 0x00	; 0
    41cc:	90 e0       	ldi	r25, 0x00	; 0
    41ce:	0e 94 86 28 	call	0x510c	; 0x510c <__floatunsisf>
    41d2:	eb 01       	movw	r28, r22
    41d4:	18 2f       	mov	r17, r24
    41d6:	09 2f       	mov	r16, r25
    41d8:	98 01       	movw	r18, r16
    41da:	86 2f       	mov	r24, r22
    41dc:	9d 2f       	mov	r25, r29
    41de:	a3 2f       	mov	r26, r19
    41e0:	b2 2f       	mov	r27, r18
    41e2:	bc 01       	movw	r22, r24
    41e4:	cd 01       	movw	r24, r26
    41e6:	20 e0       	ldi	r18, 0x00	; 0
    41e8:	30 e0       	ldi	r19, 0x00	; 0
    41ea:	4a ef       	ldi	r20, 0xFA	; 250
    41ec:	54 e4       	ldi	r21, 0x44	; 68
    41ee:	0e 94 96 29 	call	0x532c	; 0x532c <__gesf2>
    41f2:	18 16       	cp	r1, r24
    41f4:	94 f0       	brlt	.+36     	; 0x421a <SrvMotorUpdate+0x166>
    41f6:	98 01       	movw	r18, r16
    41f8:	8c 2f       	mov	r24, r28
    41fa:	9d 2f       	mov	r25, r29
    41fc:	a3 2f       	mov	r26, r19
    41fe:	b2 2f       	mov	r27, r18
    4200:	bc 01       	movw	r22, r24
    4202:	cd 01       	movw	r24, r26
    4204:	20 e0       	ldi	r18, 0x00	; 0
    4206:	30 e0       	ldi	r19, 0x00	; 0
    4208:	4a e7       	ldi	r20, 0x7A	; 122
    420a:	54 e4       	ldi	r21, 0x44	; 68
    420c:	0e 94 e6 27 	call	0x4fcc	; 0x4fcc <__cmpsf2>
    4210:	87 ff       	sbrs	r24, 7
    4212:	8e c0       	rjmp	.+284    	; 0x4330 <SrvMotorUpdate+0x27c>
    4214:	68 ee       	ldi	r22, 0xE8	; 232
    4216:	73 e0       	ldi	r23, 0x03	; 3
    4218:	02 c0       	rjmp	.+4      	; 0x421e <SrvMotorUpdate+0x16a>
    421a:	60 ed       	ldi	r22, 0xD0	; 208
    421c:	77 e0       	ldi	r23, 0x07	; 7
    421e:	70 93 71 01 	sts	0x0171, r23
    4222:	60 93 70 01 	sts	0x0170, r22
    4226:	e8 0c       	add	r14, r8
    4228:	f9 1c       	adc	r15, r9
    422a:	b7 01       	movw	r22, r14
    422c:	80 e0       	ldi	r24, 0x00	; 0
    422e:	90 e0       	ldi	r25, 0x00	; 0
    4230:	0e 94 86 28 	call	0x510c	; 0x510c <__floatunsisf>
    4234:	8b 01       	movw	r16, r22
    4236:	d8 2f       	mov	r29, r24
    4238:	c9 2f       	mov	r28, r25
    423a:	9e 01       	movw	r18, r28
    423c:	86 2f       	mov	r24, r22
    423e:	91 2f       	mov	r25, r17
    4240:	a3 2f       	mov	r26, r19
    4242:	b2 2f       	mov	r27, r18
    4244:	bc 01       	movw	r22, r24
    4246:	cd 01       	movw	r24, r26
    4248:	20 e0       	ldi	r18, 0x00	; 0
    424a:	30 e0       	ldi	r19, 0x00	; 0
    424c:	4a ef       	ldi	r20, 0xFA	; 250
    424e:	54 e4       	ldi	r21, 0x44	; 68
    4250:	0e 94 96 29 	call	0x532c	; 0x532c <__gesf2>
    4254:	18 16       	cp	r1, r24
    4256:	0c f4       	brge	.+2      	; 0x425a <SrvMotorUpdate+0x1a6>
    4258:	68 c0       	rjmp	.+208    	; 0x432a <SrvMotorUpdate+0x276>
    425a:	9e 01       	movw	r18, r28
    425c:	80 2f       	mov	r24, r16
    425e:	91 2f       	mov	r25, r17
    4260:	a3 2f       	mov	r26, r19
    4262:	b2 2f       	mov	r27, r18
    4264:	bc 01       	movw	r22, r24
    4266:	cd 01       	movw	r24, r26
    4268:	20 e0       	ldi	r18, 0x00	; 0
    426a:	30 e0       	ldi	r19, 0x00	; 0
    426c:	4a e7       	ldi	r20, 0x7A	; 122
    426e:	54 e4       	ldi	r21, 0x44	; 68
    4270:	0e 94 e6 27 	call	0x4fcc	; 0x4fcc <__cmpsf2>
    4274:	87 ff       	sbrs	r24, 7
    4276:	83 c0       	rjmp	.+262    	; 0x437e <SrvMotorUpdate+0x2ca>
    4278:	68 ee       	ldi	r22, 0xE8	; 232
    427a:	73 e0       	ldi	r23, 0x03	; 3
    427c:	70 93 75 01 	sts	0x0175, r23
    4280:	60 93 74 01 	sts	0x0174, r22
    4284:	80 e0       	ldi	r24, 0x00	; 0
    4286:	b3 01       	movw	r22, r6
    4288:	0e 94 b3 08 	call	0x1166	; 0x1166 <DrvServoMoveToPosition>
    428c:	60 91 76 01 	lds	r22, 0x0176
    4290:	70 91 77 01 	lds	r23, 0x0177
    4294:	68 5e       	subi	r22, 0xE8	; 232
    4296:	73 40       	sbci	r23, 0x03	; 3
    4298:	81 e0       	ldi	r24, 0x01	; 1
    429a:	0e 94 b3 08 	call	0x1166	; 0x1166 <DrvServoMoveToPosition>
    429e:	60 91 70 01 	lds	r22, 0x0170
    42a2:	70 91 71 01 	lds	r23, 0x0171
    42a6:	68 5e       	subi	r22, 0xE8	; 232
    42a8:	73 40       	sbci	r23, 0x03	; 3
    42aa:	82 e0       	ldi	r24, 0x02	; 2
    42ac:	0e 94 b3 08 	call	0x1166	; 0x1166 <DrvServoMoveToPosition>
    42b0:	60 91 74 01 	lds	r22, 0x0174
    42b4:	70 91 75 01 	lds	r23, 0x0175
    42b8:	68 5e       	subi	r22, 0xE8	; 232
    42ba:	73 40       	sbci	r23, 0x03	; 3
    42bc:	83 e0       	ldi	r24, 0x03	; 3
    42be:	0e 94 b3 08 	call	0x1166	; 0x1166 <DrvServoMoveToPosition>
    42c2:	df 91       	pop	r29
    42c4:	cf 91       	pop	r28
    42c6:	1f 91       	pop	r17
    42c8:	0f 91       	pop	r16
    42ca:	ff 90       	pop	r15
    42cc:	ef 90       	pop	r14
    42ce:	df 90       	pop	r13
    42d0:	cf 90       	pop	r12
    42d2:	bf 90       	pop	r11
    42d4:	af 90       	pop	r10
    42d6:	9f 90       	pop	r9
    42d8:	8f 90       	pop	r8
    42da:	7f 90       	pop	r7
    42dc:	6f 90       	pop	r6
    42de:	08 95       	ret
    42e0:	f0 92 73 01 	sts	0x0173, r15
    42e4:	e0 92 72 01 	sts	0x0172, r14
    42e8:	f0 92 77 01 	sts	0x0177, r15
    42ec:	e0 92 76 01 	sts	0x0176, r14
    42f0:	f0 92 71 01 	sts	0x0171, r15
    42f4:	e0 92 70 01 	sts	0x0170, r14
    42f8:	f0 92 75 01 	sts	0x0175, r15
    42fc:	e0 92 74 01 	sts	0x0174, r14
    4300:	80 e0       	ldi	r24, 0x00	; 0
    4302:	60 e0       	ldi	r22, 0x00	; 0
    4304:	70 e0       	ldi	r23, 0x00	; 0
    4306:	0e 94 b3 08 	call	0x1166	; 0x1166 <DrvServoMoveToPosition>
    430a:	81 e0       	ldi	r24, 0x01	; 1
    430c:	60 e0       	ldi	r22, 0x00	; 0
    430e:	70 e0       	ldi	r23, 0x00	; 0
    4310:	0e 94 b3 08 	call	0x1166	; 0x1166 <DrvServoMoveToPosition>
    4314:	82 e0       	ldi	r24, 0x02	; 2
    4316:	60 e0       	ldi	r22, 0x00	; 0
    4318:	70 e0       	ldi	r23, 0x00	; 0
    431a:	0e 94 b3 08 	call	0x1166	; 0x1166 <DrvServoMoveToPosition>
    431e:	83 e0       	ldi	r24, 0x03	; 3
    4320:	60 e0       	ldi	r22, 0x00	; 0
    4322:	70 e0       	ldi	r23, 0x00	; 0
    4324:	0e 94 b3 08 	call	0x1166	; 0x1166 <DrvServoMoveToPosition>
    4328:	cc cf       	rjmp	.-104    	; 0x42c2 <SrvMotorUpdate+0x20e>
    432a:	60 ed       	ldi	r22, 0xD0	; 208
    432c:	77 e0       	ldi	r23, 0x07	; 7
    432e:	a6 cf       	rjmp	.-180    	; 0x427c <SrvMotorUpdate+0x1c8>
    4330:	98 01       	movw	r18, r16
    4332:	8c 2f       	mov	r24, r28
    4334:	9d 2f       	mov	r25, r29
    4336:	a3 2f       	mov	r26, r19
    4338:	b2 2f       	mov	r27, r18
    433a:	bc 01       	movw	r22, r24
    433c:	cd 01       	movw	r24, r26
    433e:	0e 94 5a 28 	call	0x50b4	; 0x50b4 <__fixunssfsi>
    4342:	6d cf       	rjmp	.-294    	; 0x421e <SrvMotorUpdate+0x16a>
    4344:	98 01       	movw	r18, r16
    4346:	8c 2f       	mov	r24, r28
    4348:	9d 2f       	mov	r25, r29
    434a:	a3 2f       	mov	r26, r19
    434c:	b2 2f       	mov	r27, r18
    434e:	bc 01       	movw	r22, r24
    4350:	cd 01       	movw	r24, r26
    4352:	0e 94 5a 28 	call	0x50b4	; 0x50b4 <__fixunssfsi>
    4356:	dc 01       	movw	r26, r24
    4358:	cb 01       	movw	r24, r22
    435a:	30 cf       	rjmp	.-416    	; 0x41bc <SrvMotorUpdate+0x108>
    435c:	ae 01       	movw	r20, r28
    435e:	98 01       	movw	r18, r16
    4360:	85 2f       	mov	r24, r21
    4362:	94 2f       	mov	r25, r20
    4364:	a3 2f       	mov	r26, r19
    4366:	b2 2f       	mov	r27, r18
    4368:	bc 01       	movw	r22, r24
    436a:	cd 01       	movw	r24, r26
    436c:	0e 94 5a 28 	call	0x50b4	; 0x50b4 <__fixunssfsi>
    4370:	98 e1       	ldi	r25, 0x18	; 24
    4372:	69 2e       	mov	r6, r25
    4374:	9c ef       	ldi	r25, 0xFC	; 252
    4376:	79 2e       	mov	r7, r25
    4378:	66 0e       	add	r6, r22
    437a:	77 1e       	adc	r7, r23
    437c:	d7 ce       	rjmp	.-594    	; 0x412c <SrvMotorUpdate+0x78>
    437e:	9e 01       	movw	r18, r28
    4380:	80 2f       	mov	r24, r16
    4382:	91 2f       	mov	r25, r17
    4384:	a3 2f       	mov	r26, r19
    4386:	b2 2f       	mov	r27, r18
    4388:	bc 01       	movw	r22, r24
    438a:	cd 01       	movw	r24, r26
    438c:	0e 94 5a 28 	call	0x50b4	; 0x50b4 <__fixunssfsi>
    4390:	75 cf       	rjmp	.-278    	; 0x427c <SrvMotorUpdate+0x1c8>

00004392 <SrvMotorGetSpeed>:
    4392:	80 91 3a 02 	lds	r24, 0x023A
    4396:	90 91 3b 02 	lds	r25, 0x023B
    439a:	08 95       	ret

0000439c <SrvMotorApplyAbsoluteSpeed>:
    439c:	23 e0       	ldi	r18, 0x03	; 3
    439e:	89 3e       	cpi	r24, 0xE9	; 233
    43a0:	92 07       	cpc	r25, r18
    43a2:	30 f4       	brcc	.+12     	; 0x43b0 <SrvMotorApplyAbsoluteSpeed+0x14>
    43a4:	88 51       	subi	r24, 0x18	; 24
    43a6:	9c 4f       	sbci	r25, 0xFC	; 252
    43a8:	90 93 3b 02 	sts	0x023B, r25
    43ac:	80 93 3a 02 	sts	0x023A, r24
    43b0:	81 e0       	ldi	r24, 0x01	; 1
    43b2:	08 95       	ret

000043b4 <SrvMotorApplyRelativeSpeed>:
    43b4:	20 91 3a 02 	lds	r18, 0x023A
    43b8:	30 91 3b 02 	lds	r19, 0x023B
    43bc:	28 0f       	add	r18, r24
    43be:	39 1f       	adc	r19, r25
    43c0:	87 e0       	ldi	r24, 0x07	; 7
    43c2:	21 3d       	cpi	r18, 0xD1	; 209
    43c4:	38 07       	cpc	r19, r24
    43c6:	20 f4       	brcc	.+8      	; 0x43d0 <SrvMotorApplyRelativeSpeed+0x1c>
    43c8:	30 93 3b 02 	sts	0x023B, r19
    43cc:	20 93 3a 02 	sts	0x023A, r18
    43d0:	81 e0       	ldi	r24, 0x01	; 1
    43d2:	08 95       	ret

000043d4 <SrvPIDInit>:
    43d4:	8f 92       	push	r8
    43d6:	9f 92       	push	r9
    43d8:	af 92       	push	r10
    43da:	bf 92       	push	r11
    43dc:	cf 92       	push	r12
    43de:	df 92       	push	r13
    43e0:	ef 92       	push	r14
    43e2:	ff 92       	push	r15
    43e4:	0f 93       	push	r16
    43e6:	1f 93       	push	r17
    43e8:	48 01       	movw	r8, r16
    43ea:	59 01       	movw	r10, r18
    43ec:	ac e3       	ldi	r26, 0x3C	; 60
    43ee:	b2 e0       	ldi	r27, 0x02	; 2
    43f0:	28 2f       	mov	r18, r24
    43f2:	30 e0       	ldi	r19, 0x00	; 0
    43f4:	22 0f       	add	r18, r18
    43f6:	33 1f       	adc	r19, r19
    43f8:	22 0f       	add	r18, r18
    43fa:	33 1f       	adc	r19, r19
    43fc:	f9 01       	movw	r30, r18
    43fe:	ee 0f       	add	r30, r30
    4400:	ff 1f       	adc	r31, r31
    4402:	ee 0f       	add	r30, r30
    4404:	ff 1f       	adc	r31, r31
    4406:	e2 0f       	add	r30, r18
    4408:	f3 1f       	adc	r31, r19
    440a:	ea 0f       	add	r30, r26
    440c:	fb 1f       	adc	r31, r27
    440e:	40 83       	st	Z, r20
    4410:	51 83       	std	Z+1, r21	; 0x01
    4412:	62 83       	std	Z+2, r22	; 0x02
    4414:	73 83       	std	Z+3, r23	; 0x03
    4416:	28 2f       	mov	r18, r24
    4418:	30 e0       	ldi	r19, 0x00	; 0
    441a:	22 0f       	add	r18, r18
    441c:	33 1f       	adc	r19, r19
    441e:	22 0f       	add	r18, r18
    4420:	33 1f       	adc	r19, r19
    4422:	f9 01       	movw	r30, r18
    4424:	ee 0f       	add	r30, r30
    4426:	ff 1f       	adc	r31, r31
    4428:	ee 0f       	add	r30, r30
    442a:	ff 1f       	adc	r31, r31
    442c:	e2 0f       	add	r30, r18
    442e:	f3 1f       	adc	r31, r19
    4430:	ea 0f       	add	r30, r26
    4432:	fb 1f       	adc	r31, r27
    4434:	84 82       	std	Z+4, r8	; 0x04
    4436:	95 82       	std	Z+5, r9	; 0x05
    4438:	a6 82       	std	Z+6, r10	; 0x06
    443a:	b7 82       	std	Z+7, r11	; 0x07
    443c:	28 2f       	mov	r18, r24
    443e:	30 e0       	ldi	r19, 0x00	; 0
    4440:	22 0f       	add	r18, r18
    4442:	33 1f       	adc	r19, r19
    4444:	22 0f       	add	r18, r18
    4446:	33 1f       	adc	r19, r19
    4448:	f9 01       	movw	r30, r18
    444a:	ee 0f       	add	r30, r30
    444c:	ff 1f       	adc	r31, r31
    444e:	ee 0f       	add	r30, r30
    4450:	ff 1f       	adc	r31, r31
    4452:	e2 0f       	add	r30, r18
    4454:	f3 1f       	adc	r31, r19
    4456:	ea 0f       	add	r30, r26
    4458:	fb 1f       	adc	r31, r27
    445a:	c0 86       	std	Z+8, r12	; 0x08
    445c:	d1 86       	std	Z+9, r13	; 0x09
    445e:	e2 86       	std	Z+10, r14	; 0x0a
    4460:	f3 86       	std	Z+11, r15	; 0x0b
    4462:	28 2f       	mov	r18, r24
    4464:	30 e0       	ldi	r19, 0x00	; 0
    4466:	22 0f       	add	r18, r18
    4468:	33 1f       	adc	r19, r19
    446a:	22 0f       	add	r18, r18
    446c:	33 1f       	adc	r19, r19
    446e:	f9 01       	movw	r30, r18
    4470:	ee 0f       	add	r30, r30
    4472:	ff 1f       	adc	r31, r31
    4474:	ee 0f       	add	r30, r30
    4476:	ff 1f       	adc	r31, r31
    4478:	e2 0f       	add	r30, r18
    447a:	f3 1f       	adc	r31, r19
    447c:	ea 0f       	add	r30, r26
    447e:	fb 1f       	adc	r31, r27
    4480:	40 e0       	ldi	r20, 0x00	; 0
    4482:	50 e0       	ldi	r21, 0x00	; 0
    4484:	ba 01       	movw	r22, r20
    4486:	44 87       	std	Z+12, r20	; 0x0c
    4488:	55 87       	std	Z+13, r21	; 0x0d
    448a:	66 87       	std	Z+14, r22	; 0x0e
    448c:	77 87       	std	Z+15, r23	; 0x0f
    448e:	28 2f       	mov	r18, r24
    4490:	30 e0       	ldi	r19, 0x00	; 0
    4492:	c9 01       	movw	r24, r18
    4494:	88 0f       	add	r24, r24
    4496:	99 1f       	adc	r25, r25
    4498:	88 0f       	add	r24, r24
    449a:	99 1f       	adc	r25, r25
    449c:	fc 01       	movw	r30, r24
    449e:	ee 0f       	add	r30, r30
    44a0:	ff 1f       	adc	r31, r31
    44a2:	ee 0f       	add	r30, r30
    44a4:	ff 1f       	adc	r31, r31
    44a6:	e8 0f       	add	r30, r24
    44a8:	f9 1f       	adc	r31, r25
    44aa:	ea 0f       	add	r30, r26
    44ac:	fb 1f       	adc	r31, r27
    44ae:	40 8b       	std	Z+16, r20	; 0x10
    44b0:	51 8b       	std	Z+17, r21	; 0x11
    44b2:	62 8b       	std	Z+18, r22	; 0x12
    44b4:	73 8b       	std	Z+19, r23	; 0x13
    44b6:	1f 91       	pop	r17
    44b8:	0f 91       	pop	r16
    44ba:	ff 90       	pop	r15
    44bc:	ef 90       	pop	r14
    44be:	df 90       	pop	r13
    44c0:	cf 90       	pop	r12
    44c2:	bf 90       	pop	r11
    44c4:	af 90       	pop	r10
    44c6:	9f 90       	pop	r9
    44c8:	8f 90       	pop	r8
    44ca:	08 95       	ret

000044cc <SrvPIDCompute>:
    44cc:	7f 92       	push	r7
    44ce:	8f 92       	push	r8
    44d0:	9f 92       	push	r9
    44d2:	af 92       	push	r10
    44d4:	bf 92       	push	r11
    44d6:	cf 92       	push	r12
    44d8:	df 92       	push	r13
    44da:	ef 92       	push	r14
    44dc:	ff 92       	push	r15
    44de:	0f 93       	push	r16
    44e0:	1f 93       	push	r17
    44e2:	cf 93       	push	r28
    44e4:	df 93       	push	r29
    44e6:	f8 2e       	mov	r15, r24
    44e8:	48 01       	movw	r8, r16
    44ea:	59 01       	movw	r10, r18
    44ec:	cb 01       	movw	r24, r22
    44ee:	ba 01       	movw	r22, r20
    44f0:	a9 01       	movw	r20, r18
    44f2:	98 01       	movw	r18, r16
    44f4:	0e 94 1f 27 	call	0x4e3e	; 0x4e3e <__subsf3>
    44f8:	06 2f       	mov	r16, r22
    44fa:	e7 2e       	mov	r14, r23
    44fc:	d8 2e       	mov	r13, r24
    44fe:	79 2e       	mov	r7, r25
    4500:	8f 2d       	mov	r24, r15
    4502:	90 e0       	ldi	r25, 0x00	; 0
    4504:	88 0f       	add	r24, r24
    4506:	99 1f       	adc	r25, r25
    4508:	88 0f       	add	r24, r24
    450a:	99 1f       	adc	r25, r25
    450c:	fc 01       	movw	r30, r24
    450e:	ee 0f       	add	r30, r30
    4510:	ff 1f       	adc	r31, r31
    4512:	ee 0f       	add	r30, r30
    4514:	ff 1f       	adc	r31, r31
    4516:	e8 0f       	add	r30, r24
    4518:	f9 1f       	adc	r31, r25
    451a:	e4 5c       	subi	r30, 0xC4	; 196
    451c:	fd 4f       	sbci	r31, 0xFD	; 253
    451e:	80 2f       	mov	r24, r16
    4520:	9e 2d       	mov	r25, r14
    4522:	ad 2d       	mov	r26, r13
    4524:	b7 2d       	mov	r27, r7
    4526:	bc 01       	movw	r22, r24
    4528:	cd 01       	movw	r24, r26
    452a:	20 89       	ldd	r18, Z+16	; 0x10
    452c:	31 89       	ldd	r19, Z+17	; 0x11
    452e:	42 89       	ldd	r20, Z+18	; 0x12
    4530:	53 89       	ldd	r21, Z+19	; 0x13
    4532:	0e 94 20 27 	call	0x4e40	; 0x4e40 <__addsf3>
    4536:	eb 01       	movw	r28, r22
    4538:	18 2f       	mov	r17, r24
    453a:	c9 2e       	mov	r12, r25
    453c:	8f 2d       	mov	r24, r15
    453e:	90 e0       	ldi	r25, 0x00	; 0
    4540:	88 0f       	add	r24, r24
    4542:	99 1f       	adc	r25, r25
    4544:	88 0f       	add	r24, r24
    4546:	99 1f       	adc	r25, r25
    4548:	fc 01       	movw	r30, r24
    454a:	ee 0f       	add	r30, r30
    454c:	ff 1f       	adc	r31, r31
    454e:	ee 0f       	add	r30, r30
    4550:	ff 1f       	adc	r31, r31
    4552:	e8 0f       	add	r30, r24
    4554:	f9 1f       	adc	r31, r25
    4556:	e4 5c       	subi	r30, 0xC4	; 196
    4558:	fd 4f       	sbci	r31, 0xFD	; 253
    455a:	8c 2f       	mov	r24, r28
    455c:	9d 2f       	mov	r25, r29
    455e:	a1 2f       	mov	r26, r17
    4560:	bc 2d       	mov	r27, r12
    4562:	80 8b       	std	Z+16, r24	; 0x10
    4564:	91 8b       	std	Z+17, r25	; 0x11
    4566:	a2 8b       	std	Z+18, r26	; 0x12
    4568:	b3 8b       	std	Z+19, r27	; 0x13
    456a:	bc 01       	movw	r22, r24
    456c:	cd 01       	movw	r24, r26
    456e:	20 e0       	ldi	r18, 0x00	; 0
    4570:	30 e0       	ldi	r19, 0x00	; 0
    4572:	4a e7       	ldi	r20, 0x7A	; 122
    4574:	54 ec       	ldi	r21, 0xC4	; 196
    4576:	0e 94 e6 27 	call	0x4fcc	; 0x4fcc <__cmpsf2>
    457a:	87 fd       	sbrc	r24, 7
    457c:	e8 c0       	rjmp	.+464    	; 0x474e <SrvPIDCompute+0x282>
    457e:	8c 2f       	mov	r24, r28
    4580:	9d 2f       	mov	r25, r29
    4582:	a1 2f       	mov	r26, r17
    4584:	bc 2d       	mov	r27, r12
    4586:	bc 01       	movw	r22, r24
    4588:	cd 01       	movw	r24, r26
    458a:	20 e0       	ldi	r18, 0x00	; 0
    458c:	30 e0       	ldi	r19, 0x00	; 0
    458e:	4a e7       	ldi	r20, 0x7A	; 122
    4590:	54 e4       	ldi	r21, 0x44	; 68
    4592:	0e 94 96 29 	call	0x532c	; 0x532c <__gesf2>
    4596:	18 16       	cp	r1, r24
    4598:	bc f4       	brge	.+46     	; 0x45c8 <SrvPIDCompute+0xfc>
    459a:	8f 2d       	mov	r24, r15
    459c:	90 e0       	ldi	r25, 0x00	; 0
    459e:	88 0f       	add	r24, r24
    45a0:	99 1f       	adc	r25, r25
    45a2:	88 0f       	add	r24, r24
    45a4:	99 1f       	adc	r25, r25
    45a6:	fc 01       	movw	r30, r24
    45a8:	ee 0f       	add	r30, r30
    45aa:	ff 1f       	adc	r31, r31
    45ac:	ee 0f       	add	r30, r30
    45ae:	ff 1f       	adc	r31, r31
    45b0:	e8 0f       	add	r30, r24
    45b2:	f9 1f       	adc	r31, r25
    45b4:	e4 5c       	subi	r30, 0xC4	; 196
    45b6:	fd 4f       	sbci	r31, 0xFD	; 253
    45b8:	80 e0       	ldi	r24, 0x00	; 0
    45ba:	90 e0       	ldi	r25, 0x00	; 0
    45bc:	aa e7       	ldi	r26, 0x7A	; 122
    45be:	b4 e4       	ldi	r27, 0x44	; 68
    45c0:	80 8b       	std	Z+16, r24	; 0x10
    45c2:	91 8b       	std	Z+17, r25	; 0x11
    45c4:	a2 8b       	std	Z+18, r26	; 0x12
    45c6:	b3 8b       	std	Z+19, r27	; 0x13
    45c8:	8f 2d       	mov	r24, r15
    45ca:	90 e0       	ldi	r25, 0x00	; 0
    45cc:	88 0f       	add	r24, r24
    45ce:	99 1f       	adc	r25, r25
    45d0:	88 0f       	add	r24, r24
    45d2:	99 1f       	adc	r25, r25
    45d4:	ec 01       	movw	r28, r24
    45d6:	cc 0f       	add	r28, r28
    45d8:	dd 1f       	adc	r29, r29
    45da:	cc 0f       	add	r28, r28
    45dc:	dd 1f       	adc	r29, r29
    45de:	c8 0f       	add	r28, r24
    45e0:	d9 1f       	adc	r29, r25
    45e2:	c4 5c       	subi	r28, 0xC4	; 196
    45e4:	dd 4f       	sbci	r29, 0xFD	; 253
    45e6:	8f 2d       	mov	r24, r15
    45e8:	90 e0       	ldi	r25, 0x00	; 0
    45ea:	88 0f       	add	r24, r24
    45ec:	99 1f       	adc	r25, r25
    45ee:	88 0f       	add	r24, r24
    45f0:	99 1f       	adc	r25, r25
    45f2:	fc 01       	movw	r30, r24
    45f4:	ee 0f       	add	r30, r30
    45f6:	ff 1f       	adc	r31, r31
    45f8:	ee 0f       	add	r30, r30
    45fa:	ff 1f       	adc	r31, r31
    45fc:	e8 0f       	add	r30, r24
    45fe:	f9 1f       	adc	r31, r25
    4600:	e4 5c       	subi	r30, 0xC4	; 196
    4602:	fd 4f       	sbci	r31, 0xFD	; 253
    4604:	c5 01       	movw	r24, r10
    4606:	b4 01       	movw	r22, r8
    4608:	24 85       	ldd	r18, Z+12	; 0x0c
    460a:	35 85       	ldd	r19, Z+13	; 0x0d
    460c:	46 85       	ldd	r20, Z+14	; 0x0e
    460e:	57 85       	ldd	r21, Z+15	; 0x0f
    4610:	0e 94 1f 27 	call	0x4e3e	; 0x4e3e <__subsf3>
    4614:	28 85       	ldd	r18, Y+8	; 0x08
    4616:	39 85       	ldd	r19, Y+9	; 0x09
    4618:	4a 85       	ldd	r20, Y+10	; 0x0a
    461a:	5b 85       	ldd	r21, Y+11	; 0x0b
    461c:	0e 94 a1 29 	call	0x5342	; 0x5342 <__mulsf3>
    4620:	20 e0       	ldi	r18, 0x00	; 0
    4622:	30 e0       	ldi	r19, 0x00	; 0
    4624:	40 e2       	ldi	r20, 0x20	; 32
    4626:	51 e4       	ldi	r21, 0x41	; 65
    4628:	0e 94 ed 27 	call	0x4fda	; 0x4fda <__divsf3>
    462c:	0e 94 55 28 	call	0x50aa	; 0x50aa <__fixsfsi>
    4630:	dc 01       	movw	r26, r24
    4632:	cb 01       	movw	r24, r22
    4634:	ec 01       	movw	r28, r24
    4636:	8f 2d       	mov	r24, r15
    4638:	90 e0       	ldi	r25, 0x00	; 0
    463a:	88 0f       	add	r24, r24
    463c:	99 1f       	adc	r25, r25
    463e:	88 0f       	add	r24, r24
    4640:	99 1f       	adc	r25, r25
    4642:	fc 01       	movw	r30, r24
    4644:	ee 0f       	add	r30, r30
    4646:	ff 1f       	adc	r31, r31
    4648:	ee 0f       	add	r30, r30
    464a:	ff 1f       	adc	r31, r31
    464c:	e8 0f       	add	r30, r24
    464e:	f9 1f       	adc	r31, r25
    4650:	e4 5c       	subi	r30, 0xC4	; 196
    4652:	fd 4f       	sbci	r31, 0xFD	; 253
    4654:	84 86       	std	Z+12, r8	; 0x0c
    4656:	95 86       	std	Z+13, r9	; 0x0d
    4658:	a6 86       	std	Z+14, r10	; 0x0e
    465a:	b7 86       	std	Z+15, r11	; 0x0f
    465c:	8f 2d       	mov	r24, r15
    465e:	90 e0       	ldi	r25, 0x00	; 0
    4660:	88 0f       	add	r24, r24
    4662:	99 1f       	adc	r25, r25
    4664:	88 0f       	add	r24, r24
    4666:	99 1f       	adc	r25, r25
    4668:	fc 01       	movw	r30, r24
    466a:	ee 0f       	add	r30, r30
    466c:	ff 1f       	adc	r31, r31
    466e:	ee 0f       	add	r30, r30
    4670:	ff 1f       	adc	r31, r31
    4672:	e8 0f       	add	r30, r24
    4674:	f9 1f       	adc	r31, r25
    4676:	e4 5c       	subi	r30, 0xC4	; 196
    4678:	fd 4f       	sbci	r31, 0xFD	; 253
    467a:	80 2f       	mov	r24, r16
    467c:	9e 2d       	mov	r25, r14
    467e:	ad 2d       	mov	r26, r13
    4680:	b7 2d       	mov	r27, r7
    4682:	bc 01       	movw	r22, r24
    4684:	cd 01       	movw	r24, r26
    4686:	20 81       	ld	r18, Z
    4688:	31 81       	ldd	r19, Z+1	; 0x01
    468a:	42 81       	ldd	r20, Z+2	; 0x02
    468c:	53 81       	ldd	r21, Z+3	; 0x03
    468e:	0e 94 a1 29 	call	0x5342	; 0x5342 <__mulsf3>
    4692:	20 e0       	ldi	r18, 0x00	; 0
    4694:	30 e0       	ldi	r19, 0x00	; 0
    4696:	40 e2       	ldi	r20, 0x20	; 32
    4698:	51 e4       	ldi	r21, 0x41	; 65
    469a:	0e 94 ed 27 	call	0x4fda	; 0x4fda <__divsf3>
    469e:	4b 01       	movw	r8, r22
    46a0:	5c 01       	movw	r10, r24
    46a2:	8f 2d       	mov	r24, r15
    46a4:	90 e0       	ldi	r25, 0x00	; 0
    46a6:	88 0f       	add	r24, r24
    46a8:	99 1f       	adc	r25, r25
    46aa:	88 0f       	add	r24, r24
    46ac:	99 1f       	adc	r25, r25
    46ae:	dc 01       	movw	r26, r24
    46b0:	aa 0f       	add	r26, r26
    46b2:	bb 1f       	adc	r27, r27
    46b4:	aa 0f       	add	r26, r26
    46b6:	bb 1f       	adc	r27, r27
    46b8:	a8 0f       	add	r26, r24
    46ba:	b9 1f       	adc	r27, r25
    46bc:	a4 5c       	subi	r26, 0xC4	; 196
    46be:	bd 4f       	sbci	r27, 0xFD	; 253
    46c0:	8f 2d       	mov	r24, r15
    46c2:	90 e0       	ldi	r25, 0x00	; 0
    46c4:	88 0f       	add	r24, r24
    46c6:	99 1f       	adc	r25, r25
    46c8:	88 0f       	add	r24, r24
    46ca:	99 1f       	adc	r25, r25
    46cc:	fc 01       	movw	r30, r24
    46ce:	ee 0f       	add	r30, r30
    46d0:	ff 1f       	adc	r31, r31
    46d2:	ee 0f       	add	r30, r30
    46d4:	ff 1f       	adc	r31, r31
    46d6:	e8 0f       	add	r30, r24
    46d8:	f9 1f       	adc	r31, r25
    46da:	e4 5c       	subi	r30, 0xC4	; 196
    46dc:	fd 4f       	sbci	r31, 0xFD	; 253
    46de:	14 96       	adiw	r26, 0x04	; 4
    46e0:	6d 91       	ld	r22, X+
    46e2:	7d 91       	ld	r23, X+
    46e4:	8d 91       	ld	r24, X+
    46e6:	9c 91       	ld	r25, X
    46e8:	17 97       	sbiw	r26, 0x07	; 7
    46ea:	20 89       	ldd	r18, Z+16	; 0x10
    46ec:	31 89       	ldd	r19, Z+17	; 0x11
    46ee:	42 89       	ldd	r20, Z+18	; 0x12
    46f0:	53 89       	ldd	r21, Z+19	; 0x13
    46f2:	0e 94 a1 29 	call	0x5342	; 0x5342 <__mulsf3>
    46f6:	20 e0       	ldi	r18, 0x00	; 0
    46f8:	30 e0       	ldi	r19, 0x00	; 0
    46fa:	40 e2       	ldi	r20, 0x20	; 32
    46fc:	51 e4       	ldi	r21, 0x41	; 65
    46fe:	0e 94 ed 27 	call	0x4fda	; 0x4fda <__divsf3>
    4702:	9b 01       	movw	r18, r22
    4704:	ac 01       	movw	r20, r24
    4706:	c5 01       	movw	r24, r10
    4708:	b4 01       	movw	r22, r8
    470a:	0e 94 20 27 	call	0x4e40	; 0x4e40 <__addsf3>
    470e:	6b 01       	movw	r12, r22
    4710:	7c 01       	movw	r14, r24
    4712:	be 01       	movw	r22, r28
    4714:	88 27       	eor	r24, r24
    4716:	77 fd       	sbrc	r23, 7
    4718:	80 95       	com	r24
    471a:	98 2f       	mov	r25, r24
    471c:	0e 94 88 28 	call	0x5110	; 0x5110 <__floatsisf>
    4720:	9b 01       	movw	r18, r22
    4722:	ac 01       	movw	r20, r24
    4724:	c7 01       	movw	r24, r14
    4726:	b6 01       	movw	r22, r12
    4728:	0e 94 20 27 	call	0x4e40	; 0x4e40 <__addsf3>
    472c:	0e 94 55 28 	call	0x50aa	; 0x50aa <__fixsfsi>
    4730:	cb 01       	movw	r24, r22
    4732:	df 91       	pop	r29
    4734:	cf 91       	pop	r28
    4736:	1f 91       	pop	r17
    4738:	0f 91       	pop	r16
    473a:	ff 90       	pop	r15
    473c:	ef 90       	pop	r14
    473e:	df 90       	pop	r13
    4740:	cf 90       	pop	r12
    4742:	bf 90       	pop	r11
    4744:	af 90       	pop	r10
    4746:	9f 90       	pop	r9
    4748:	8f 90       	pop	r8
    474a:	7f 90       	pop	r7
    474c:	08 95       	ret
    474e:	8f 2d       	mov	r24, r15
    4750:	90 e0       	ldi	r25, 0x00	; 0
    4752:	88 0f       	add	r24, r24
    4754:	99 1f       	adc	r25, r25
    4756:	88 0f       	add	r24, r24
    4758:	99 1f       	adc	r25, r25
    475a:	fc 01       	movw	r30, r24
    475c:	ee 0f       	add	r30, r30
    475e:	ff 1f       	adc	r31, r31
    4760:	ee 0f       	add	r30, r30
    4762:	ff 1f       	adc	r31, r31
    4764:	e8 0f       	add	r30, r24
    4766:	f9 1f       	adc	r31, r25
    4768:	e4 5c       	subi	r30, 0xC4	; 196
    476a:	fd 4f       	sbci	r31, 0xFD	; 253
    476c:	80 e0       	ldi	r24, 0x00	; 0
    476e:	90 e0       	ldi	r25, 0x00	; 0
    4770:	aa e7       	ldi	r26, 0x7A	; 122
    4772:	b4 ec       	ldi	r27, 0xC4	; 196
    4774:	80 8b       	std	Z+16, r24	; 0x10
    4776:	91 8b       	std	Z+17, r25	; 0x11
    4778:	a2 8b       	std	Z+18, r26	; 0x12
    477a:	b3 8b       	std	Z+19, r27	; 0x13
    477c:	25 cf       	rjmp	.-438    	; 0x45c8 <SrvPIDCompute+0xfc>

0000477e <SrvStartEngineInit>:
    477e:	10 92 8e 02 	sts	0x028E, r1
    4782:	81 e0       	ldi	r24, 0x01	; 1
    4784:	80 93 8c 02 	sts	0x028C, r24
    4788:	85 e0       	ldi	r24, 0x05	; 5
    478a:	80 93 8d 02 	sts	0x028D, r24
    478e:	08 95       	ret

00004790 <SrvStartEngineDispatcher>:
    4790:	64 e0       	ldi	r22, 0x04	; 4
    4792:	0e 94 5c 08 	call	0x10b8	; 0x10b8 <DrvEventTestEvent>
    4796:	88 23       	and	r24, r24
    4798:	59 f0       	breq	.+22     	; 0x47b0 <SrvStartEngineDispatcher+0x20>
    479a:	80 91 8c 02 	lds	r24, 0x028C
    479e:	81 30       	cpi	r24, 0x01	; 1
    47a0:	41 f0       	breq	.+16     	; 0x47b2 <SrvStartEngineDispatcher+0x22>
    47a2:	80 91 8d 02 	lds	r24, 0x028D
    47a6:	88 23       	and	r24, r24
    47a8:	19 f0       	breq	.+6      	; 0x47b0 <SrvStartEngineDispatcher+0x20>
    47aa:	81 50       	subi	r24, 0x01	; 1
    47ac:	80 93 8d 02 	sts	0x028D, r24
    47b0:	08 95       	ret
    47b2:	80 91 8d 02 	lds	r24, 0x028D
    47b6:	88 23       	and	r24, r24
    47b8:	c1 f7       	brne	.-16     	; 0x47aa <SrvStartEngineDispatcher+0x1a>
    47ba:	80 91 8e 02 	lds	r24, 0x028E
    47be:	8b 5f       	subi	r24, 0xFB	; 251
    47c0:	80 93 8e 02 	sts	0x028E, r24
    47c4:	85 31       	cpi	r24, 0x15	; 21
    47c6:	50 f0       	brcs	.+20     	; 0x47dc <SrvStartEngineDispatcher+0x4c>
    47c8:	85 e1       	ldi	r24, 0x15	; 21
    47ca:	80 93 8e 02 	sts	0x028E, r24
    47ce:	10 92 8c 02 	sts	0x028C, r1
    47d2:	85 e1       	ldi	r24, 0x15	; 21
    47d4:	90 e0       	ldi	r25, 0x00	; 0
    47d6:	0e 94 ce 21 	call	0x439c	; 0x439c <SrvMotorApplyAbsoluteSpeed>
    47da:	08 95       	ret
    47dc:	90 e0       	ldi	r25, 0x00	; 0
    47de:	fb cf       	rjmp	.-10     	; 0x47d6 <SrvStartEngineDispatcher+0x46>

000047e0 <SrvTimerInit>:
    47e0:	10 92 a5 03 	sts	0x03A5, r1
    47e4:	10 92 ad 03 	sts	0x03AD, r1
    47e8:	10 92 ac 03 	sts	0x03AC, r1
    47ec:	10 92 ae 03 	sts	0x03AE, r1
    47f0:	10 92 b6 03 	sts	0x03B6, r1
    47f4:	10 92 b5 03 	sts	0x03B5, r1
    47f8:	10 92 b7 03 	sts	0x03B7, r1
    47fc:	10 92 bf 03 	sts	0x03BF, r1
    4800:	10 92 be 03 	sts	0x03BE, r1
    4804:	10 92 c0 03 	sts	0x03C0, r1
    4808:	10 92 c8 03 	sts	0x03C8, r1
    480c:	10 92 c7 03 	sts	0x03C7, r1
    4810:	10 92 c9 03 	sts	0x03C9, r1
    4814:	10 92 d1 03 	sts	0x03D1, r1
    4818:	10 92 d0 03 	sts	0x03D0, r1
    481c:	10 92 b0 00 	sts	0x00B0, r1
    4820:	e1 eb       	ldi	r30, 0xB1	; 177
    4822:	f0 e0       	ldi	r31, 0x00	; 0
    4824:	80 81       	ld	r24, Z
    4826:	84 60       	ori	r24, 0x04	; 4
    4828:	80 83       	st	Z, r24
    482a:	10 92 b2 00 	sts	0x00B2, r1
    482e:	88 e1       	ldi	r24, 0x18	; 24
    4830:	80 93 b3 00 	sts	0x00B3, r24
    4834:	89 ef       	ldi	r24, 0xF9	; 249
    4836:	80 93 b4 00 	sts	0x00B4, r24
    483a:	b9 9a       	sbi	0x17, 1	; 23
    483c:	e0 e7       	ldi	r30, 0x70	; 112
    483e:	f0 e0       	ldi	r31, 0x00	; 0
    4840:	80 81       	ld	r24, Z
    4842:	82 60       	ori	r24, 0x02	; 2
    4844:	80 83       	st	Z, r24
    4846:	ba 9a       	sbi	0x17, 2	; 23
    4848:	80 81       	ld	r24, Z
    484a:	84 60       	ori	r24, 0x04	; 4
    484c:	80 83       	st	Z, r24
    484e:	08 95       	ret

00004850 <SrvTimerAddTimer>:
    4850:	90 e0       	ldi	r25, 0x00	; 0
    4852:	fc 01       	movw	r30, r24
    4854:	ee 0f       	add	r30, r30
    4856:	ff 1f       	adc	r31, r31
    4858:	ee 0f       	add	r30, r30
    485a:	ff 1f       	adc	r31, r31
    485c:	ee 0f       	add	r30, r30
    485e:	ff 1f       	adc	r31, r31
    4860:	e8 0f       	add	r30, r24
    4862:	f9 1f       	adc	r31, r25
    4864:	eb 55       	subi	r30, 0x5B	; 91
    4866:	fc 4f       	sbci	r31, 0xFC	; 252
    4868:	72 83       	std	Z+2, r23	; 0x02
    486a:	61 83       	std	Z+1, r22	; 0x01
    486c:	14 82       	std	Z+4, r1	; 0x04
    486e:	13 82       	std	Z+3, r1	; 0x03
    4870:	45 83       	std	Z+5, r20	; 0x05
    4872:	30 87       	std	Z+8, r19	; 0x08
    4874:	27 83       	std	Z+7, r18	; 0x07
    4876:	81 e0       	ldi	r24, 0x01	; 1
    4878:	80 83       	st	Z, r24
    487a:	08 95       	ret

0000487c <SrvTimerPauseTimer>:
    487c:	90 e0       	ldi	r25, 0x00	; 0
    487e:	fc 01       	movw	r30, r24
    4880:	ee 0f       	add	r30, r30
    4882:	ff 1f       	adc	r31, r31
    4884:	ee 0f       	add	r30, r30
    4886:	ff 1f       	adc	r31, r31
    4888:	ee 0f       	add	r30, r30
    488a:	ff 1f       	adc	r31, r31
    488c:	e8 0f       	add	r30, r24
    488e:	f9 1f       	adc	r31, r25
    4890:	eb 55       	subi	r30, 0x5B	; 91
    4892:	fc 4f       	sbci	r31, 0xFC	; 252
    4894:	10 82       	st	Z, r1
    4896:	08 95       	ret

00004898 <SrvTimerStopTimer>:
    4898:	90 e0       	ldi	r25, 0x00	; 0
    489a:	fc 01       	movw	r30, r24
    489c:	ee 0f       	add	r30, r30
    489e:	ff 1f       	adc	r31, r31
    48a0:	ee 0f       	add	r30, r30
    48a2:	ff 1f       	adc	r31, r31
    48a4:	ee 0f       	add	r30, r30
    48a6:	ff 1f       	adc	r31, r31
    48a8:	e8 0f       	add	r30, r24
    48aa:	f9 1f       	adc	r31, r25
    48ac:	eb 55       	subi	r30, 0x5B	; 91
    48ae:	fc 4f       	sbci	r31, 0xFC	; 252
    48b0:	10 82       	st	Z, r1
    48b2:	12 82       	std	Z+2, r1	; 0x02
    48b4:	11 82       	std	Z+1, r1	; 0x01
    48b6:	14 82       	std	Z+4, r1	; 0x04
    48b8:	13 82       	std	Z+3, r1	; 0x03
    48ba:	82 e0       	ldi	r24, 0x02	; 2
    48bc:	85 83       	std	Z+5, r24	; 0x05
    48be:	10 86       	std	Z+8, r1	; 0x08
    48c0:	17 82       	std	Z+7, r1	; 0x07
    48c2:	08 95       	ret

000048c4 <SrvTimerResetTimer>:
    48c4:	90 e0       	ldi	r25, 0x00	; 0
    48c6:	fc 01       	movw	r30, r24
    48c8:	ee 0f       	add	r30, r30
    48ca:	ff 1f       	adc	r31, r31
    48cc:	ee 0f       	add	r30, r30
    48ce:	ff 1f       	adc	r31, r31
    48d0:	ee 0f       	add	r30, r30
    48d2:	ff 1f       	adc	r31, r31
    48d4:	e8 0f       	add	r30, r24
    48d6:	f9 1f       	adc	r31, r25
    48d8:	eb 55       	subi	r30, 0x5B	; 91
    48da:	fc 4f       	sbci	r31, 0xFC	; 252
    48dc:	14 82       	std	Z+4, r1	; 0x04
    48de:	13 82       	std	Z+3, r1	; 0x03
    48e0:	08 95       	ret

000048e2 <SrvTimerDelayTimer>:
    48e2:	90 e0       	ldi	r25, 0x00	; 0
    48e4:	fc 01       	movw	r30, r24
    48e6:	ee 0f       	add	r30, r30
    48e8:	ff 1f       	adc	r31, r31
    48ea:	ee 0f       	add	r30, r30
    48ec:	ff 1f       	adc	r31, r31
    48ee:	ee 0f       	add	r30, r30
    48f0:	ff 1f       	adc	r31, r31
    48f2:	e8 0f       	add	r30, r24
    48f4:	f9 1f       	adc	r31, r25
    48f6:	eb 55       	subi	r30, 0x5B	; 91
    48f8:	fc 4f       	sbci	r31, 0xFC	; 252
    48fa:	14 82       	std	Z+4, r1	; 0x04
    48fc:	13 82       	std	Z+3, r1	; 0x03
    48fe:	72 83       	std	Z+2, r23	; 0x02
    4900:	61 83       	std	Z+1, r22	; 0x01
    4902:	08 95       	ret

00004904 <SrvTimerTickReset>:
    4904:	f8 94       	cli
    4906:	10 92 a9 03 	sts	0x03A9, r1
    490a:	10 92 a8 03 	sts	0x03A8, r1
    490e:	10 92 b2 03 	sts	0x03B2, r1
    4912:	10 92 b1 03 	sts	0x03B1, r1
    4916:	10 92 bb 03 	sts	0x03BB, r1
    491a:	10 92 ba 03 	sts	0x03BA, r1
    491e:	10 92 c4 03 	sts	0x03C4, r1
    4922:	10 92 c3 03 	sts	0x03C3, r1
    4926:	10 92 cd 03 	sts	0x03CD, r1
    492a:	10 92 cc 03 	sts	0x03CC, r1
    492e:	10 92 8f 02 	sts	0x028F, r1
    4932:	10 92 90 02 	sts	0x0290, r1
    4936:	10 92 91 02 	sts	0x0291, r1
    493a:	10 92 92 02 	sts	0x0292, r1
    493e:	10 92 9a 02 	sts	0x029A, r1
    4942:	10 92 99 02 	sts	0x0299, r1
    4946:	10 92 98 02 	sts	0x0298, r1
    494a:	10 92 97 02 	sts	0x0297, r1
    494e:	10 92 96 02 	sts	0x0296, r1
    4952:	10 92 95 02 	sts	0x0295, r1
    4956:	10 92 94 02 	sts	0x0294, r1
    495a:	10 92 93 02 	sts	0x0293, r1
    495e:	10 92 b2 00 	sts	0x00B2, r1
    4962:	88 e1       	ldi	r24, 0x18	; 24
    4964:	80 93 b3 00 	sts	0x00B3, r24
    4968:	78 94       	sei
    496a:	08 95       	ret

0000496c <__vector_8>:
    496c:	1f 92       	push	r1
    496e:	0f 92       	push	r0
    4970:	0f b6       	in	r0, 0x3f	; 63
    4972:	0f 92       	push	r0
    4974:	11 24       	eor	r1, r1
    4976:	2f 93       	push	r18
    4978:	3f 93       	push	r19
    497a:	4f 93       	push	r20
    497c:	5f 93       	push	r21
    497e:	6f 93       	push	r22
    4980:	7f 93       	push	r23
    4982:	8f 93       	push	r24
    4984:	9f 93       	push	r25
    4986:	af 93       	push	r26
    4988:	bf 93       	push	r27
    498a:	ef 93       	push	r30
    498c:	ff 93       	push	r31
    498e:	80 91 a5 03 	lds	r24, 0x03A5
    4992:	81 30       	cpi	r24, 0x01	; 1
    4994:	29 f1       	breq	.+74     	; 0x49e0 <__vector_8+0x74>
    4996:	80 91 ae 03 	lds	r24, 0x03AE
    499a:	81 30       	cpi	r24, 0x01	; 1
    499c:	09 f4       	brne	.+2      	; 0x49a0 <__vector_8+0x34>
    499e:	f3 c0       	rjmp	.+486    	; 0x4b86 <__vector_8+0x21a>
    49a0:	80 91 b7 03 	lds	r24, 0x03B7
    49a4:	81 30       	cpi	r24, 0x01	; 1
    49a6:	09 f4       	brne	.+2      	; 0x49aa <__vector_8+0x3e>
    49a8:	b8 c0       	rjmp	.+368    	; 0x4b1a <__vector_8+0x1ae>
    49aa:	80 91 c0 03 	lds	r24, 0x03C0
    49ae:	81 30       	cpi	r24, 0x01	; 1
    49b0:	09 f4       	brne	.+2      	; 0x49b4 <__vector_8+0x48>
    49b2:	7d c0       	rjmp	.+250    	; 0x4aae <__vector_8+0x142>
    49b4:	80 91 c9 03 	lds	r24, 0x03C9
    49b8:	81 30       	cpi	r24, 0x01	; 1
    49ba:	09 f4       	brne	.+2      	; 0x49be <__vector_8+0x52>
    49bc:	45 c0       	rjmp	.+138    	; 0x4a48 <__vector_8+0xdc>
    49be:	ff 91       	pop	r31
    49c0:	ef 91       	pop	r30
    49c2:	bf 91       	pop	r27
    49c4:	af 91       	pop	r26
    49c6:	9f 91       	pop	r25
    49c8:	8f 91       	pop	r24
    49ca:	7f 91       	pop	r23
    49cc:	6f 91       	pop	r22
    49ce:	5f 91       	pop	r21
    49d0:	4f 91       	pop	r20
    49d2:	3f 91       	pop	r19
    49d4:	2f 91       	pop	r18
    49d6:	0f 90       	pop	r0
    49d8:	0f be       	out	0x3f, r0	; 63
    49da:	0f 90       	pop	r0
    49dc:	1f 90       	pop	r1
    49de:	18 95       	reti
    49e0:	80 91 a8 03 	lds	r24, 0x03A8
    49e4:	90 91 a9 03 	lds	r25, 0x03A9
    49e8:	01 96       	adiw	r24, 0x01	; 1
    49ea:	90 93 a9 03 	sts	0x03A9, r25
    49ee:	80 93 a8 03 	sts	0x03A8, r24
    49f2:	20 91 a6 03 	lds	r18, 0x03A6
    49f6:	30 91 a7 03 	lds	r19, 0x03A7
    49fa:	82 17       	cp	r24, r18
    49fc:	93 07       	cpc	r25, r19
    49fe:	59 f6       	brne	.-106    	; 0x4996 <__vector_8+0x2a>
    4a00:	80 91 aa 03 	lds	r24, 0x03AA
    4a04:	82 30       	cpi	r24, 0x02	; 2
    4a06:	39 f2       	breq	.-114    	; 0x4996 <__vector_8+0x2a>
    4a08:	10 92 a9 03 	sts	0x03A9, r1
    4a0c:	10 92 a8 03 	sts	0x03A8, r1
    4a10:	e0 91 ac 03 	lds	r30, 0x03AC
    4a14:	f0 91 ad 03 	lds	r31, 0x03AD
    4a18:	88 23       	and	r24, r24
    4a1a:	89 f4       	brne	.+34     	; 0x4a3e <__vector_8+0xd2>
    4a1c:	10 92 a5 03 	sts	0x03A5, r1
    4a20:	10 92 a7 03 	sts	0x03A7, r1
    4a24:	10 92 a6 03 	sts	0x03A6, r1
    4a28:	10 92 a9 03 	sts	0x03A9, r1
    4a2c:	10 92 a8 03 	sts	0x03A8, r1
    4a30:	82 e0       	ldi	r24, 0x02	; 2
    4a32:	80 93 aa 03 	sts	0x03AA, r24
    4a36:	10 92 ad 03 	sts	0x03AD, r1
    4a3a:	10 92 ac 03 	sts	0x03AC, r1
    4a3e:	30 97       	sbiw	r30, 0x00	; 0
    4a40:	09 f4       	brne	.+2      	; 0x4a44 <__vector_8+0xd8>
    4a42:	a9 cf       	rjmp	.-174    	; 0x4996 <__vector_8+0x2a>
    4a44:	09 95       	icall
    4a46:	a7 cf       	rjmp	.-178    	; 0x4996 <__vector_8+0x2a>
    4a48:	80 91 cc 03 	lds	r24, 0x03CC
    4a4c:	90 91 cd 03 	lds	r25, 0x03CD
    4a50:	01 96       	adiw	r24, 0x01	; 1
    4a52:	90 93 cd 03 	sts	0x03CD, r25
    4a56:	80 93 cc 03 	sts	0x03CC, r24
    4a5a:	20 91 ca 03 	lds	r18, 0x03CA
    4a5e:	30 91 cb 03 	lds	r19, 0x03CB
    4a62:	82 17       	cp	r24, r18
    4a64:	93 07       	cpc	r25, r19
    4a66:	09 f0       	breq	.+2      	; 0x4a6a <__vector_8+0xfe>
    4a68:	aa cf       	rjmp	.-172    	; 0x49be <__vector_8+0x52>
    4a6a:	80 91 ce 03 	lds	r24, 0x03CE
    4a6e:	82 30       	cpi	r24, 0x02	; 2
    4a70:	09 f4       	brne	.+2      	; 0x4a74 <__vector_8+0x108>
    4a72:	a5 cf       	rjmp	.-182    	; 0x49be <__vector_8+0x52>
    4a74:	10 92 cd 03 	sts	0x03CD, r1
    4a78:	10 92 cc 03 	sts	0x03CC, r1
    4a7c:	e0 91 d0 03 	lds	r30, 0x03D0
    4a80:	f0 91 d1 03 	lds	r31, 0x03D1
    4a84:	88 23       	and	r24, r24
    4a86:	09 f0       	breq	.+2      	; 0x4a8a <__vector_8+0x11e>
    4a88:	b4 c0       	rjmp	.+360    	; 0x4bf2 <__vector_8+0x286>
    4a8a:	10 92 c9 03 	sts	0x03C9, r1
    4a8e:	10 92 cb 03 	sts	0x03CB, r1
    4a92:	10 92 ca 03 	sts	0x03CA, r1
    4a96:	82 e0       	ldi	r24, 0x02	; 2
    4a98:	80 93 ce 03 	sts	0x03CE, r24
    4a9c:	10 92 d1 03 	sts	0x03D1, r1
    4aa0:	10 92 d0 03 	sts	0x03D0, r1
    4aa4:	30 97       	sbiw	r30, 0x00	; 0
    4aa6:	09 f4       	brne	.+2      	; 0x4aaa <__vector_8+0x13e>
    4aa8:	8a cf       	rjmp	.-236    	; 0x49be <__vector_8+0x52>
    4aaa:	09 95       	icall
    4aac:	88 cf       	rjmp	.-240    	; 0x49be <__vector_8+0x52>
    4aae:	80 91 c3 03 	lds	r24, 0x03C3
    4ab2:	90 91 c4 03 	lds	r25, 0x03C4
    4ab6:	01 96       	adiw	r24, 0x01	; 1
    4ab8:	90 93 c4 03 	sts	0x03C4, r25
    4abc:	80 93 c3 03 	sts	0x03C3, r24
    4ac0:	20 91 c1 03 	lds	r18, 0x03C1
    4ac4:	30 91 c2 03 	lds	r19, 0x03C2
    4ac8:	82 17       	cp	r24, r18
    4aca:	93 07       	cpc	r25, r19
    4acc:	09 f0       	breq	.+2      	; 0x4ad0 <__vector_8+0x164>
    4ace:	72 cf       	rjmp	.-284    	; 0x49b4 <__vector_8+0x48>
    4ad0:	80 91 c5 03 	lds	r24, 0x03C5
    4ad4:	82 30       	cpi	r24, 0x02	; 2
    4ad6:	09 f4       	brne	.+2      	; 0x4ada <__vector_8+0x16e>
    4ad8:	6d cf       	rjmp	.-294    	; 0x49b4 <__vector_8+0x48>
    4ada:	10 92 c4 03 	sts	0x03C4, r1
    4ade:	10 92 c3 03 	sts	0x03C3, r1
    4ae2:	e0 91 c7 03 	lds	r30, 0x03C7
    4ae6:	f0 91 c8 03 	lds	r31, 0x03C8
    4aea:	88 23       	and	r24, r24
    4aec:	89 f4       	brne	.+34     	; 0x4b10 <__vector_8+0x1a4>
    4aee:	10 92 c0 03 	sts	0x03C0, r1
    4af2:	10 92 c2 03 	sts	0x03C2, r1
    4af6:	10 92 c1 03 	sts	0x03C1, r1
    4afa:	10 92 c4 03 	sts	0x03C4, r1
    4afe:	10 92 c3 03 	sts	0x03C3, r1
    4b02:	82 e0       	ldi	r24, 0x02	; 2
    4b04:	80 93 c5 03 	sts	0x03C5, r24
    4b08:	10 92 c8 03 	sts	0x03C8, r1
    4b0c:	10 92 c7 03 	sts	0x03C7, r1
    4b10:	30 97       	sbiw	r30, 0x00	; 0
    4b12:	09 f4       	brne	.+2      	; 0x4b16 <__vector_8+0x1aa>
    4b14:	4f cf       	rjmp	.-354    	; 0x49b4 <__vector_8+0x48>
    4b16:	09 95       	icall
    4b18:	4d cf       	rjmp	.-358    	; 0x49b4 <__vector_8+0x48>
    4b1a:	80 91 ba 03 	lds	r24, 0x03BA
    4b1e:	90 91 bb 03 	lds	r25, 0x03BB
    4b22:	01 96       	adiw	r24, 0x01	; 1
    4b24:	90 93 bb 03 	sts	0x03BB, r25
    4b28:	80 93 ba 03 	sts	0x03BA, r24
    4b2c:	20 91 b8 03 	lds	r18, 0x03B8
    4b30:	30 91 b9 03 	lds	r19, 0x03B9
    4b34:	82 17       	cp	r24, r18
    4b36:	93 07       	cpc	r25, r19
    4b38:	09 f0       	breq	.+2      	; 0x4b3c <__vector_8+0x1d0>
    4b3a:	37 cf       	rjmp	.-402    	; 0x49aa <__vector_8+0x3e>
    4b3c:	80 91 bc 03 	lds	r24, 0x03BC
    4b40:	82 30       	cpi	r24, 0x02	; 2
    4b42:	09 f4       	brne	.+2      	; 0x4b46 <__vector_8+0x1da>
    4b44:	32 cf       	rjmp	.-412    	; 0x49aa <__vector_8+0x3e>
    4b46:	10 92 bb 03 	sts	0x03BB, r1
    4b4a:	10 92 ba 03 	sts	0x03BA, r1
    4b4e:	e0 91 be 03 	lds	r30, 0x03BE
    4b52:	f0 91 bf 03 	lds	r31, 0x03BF
    4b56:	88 23       	and	r24, r24
    4b58:	89 f4       	brne	.+34     	; 0x4b7c <__vector_8+0x210>
    4b5a:	10 92 b7 03 	sts	0x03B7, r1
    4b5e:	10 92 b9 03 	sts	0x03B9, r1
    4b62:	10 92 b8 03 	sts	0x03B8, r1
    4b66:	10 92 bb 03 	sts	0x03BB, r1
    4b6a:	10 92 ba 03 	sts	0x03BA, r1
    4b6e:	82 e0       	ldi	r24, 0x02	; 2
    4b70:	80 93 bc 03 	sts	0x03BC, r24
    4b74:	10 92 bf 03 	sts	0x03BF, r1
    4b78:	10 92 be 03 	sts	0x03BE, r1
    4b7c:	30 97       	sbiw	r30, 0x00	; 0
    4b7e:	09 f4       	brne	.+2      	; 0x4b82 <__vector_8+0x216>
    4b80:	14 cf       	rjmp	.-472    	; 0x49aa <__vector_8+0x3e>
    4b82:	09 95       	icall
    4b84:	12 cf       	rjmp	.-476    	; 0x49aa <__vector_8+0x3e>
    4b86:	80 91 b1 03 	lds	r24, 0x03B1
    4b8a:	90 91 b2 03 	lds	r25, 0x03B2
    4b8e:	01 96       	adiw	r24, 0x01	; 1
    4b90:	90 93 b2 03 	sts	0x03B2, r25
    4b94:	80 93 b1 03 	sts	0x03B1, r24
    4b98:	20 91 af 03 	lds	r18, 0x03AF
    4b9c:	30 91 b0 03 	lds	r19, 0x03B0
    4ba0:	82 17       	cp	r24, r18
    4ba2:	93 07       	cpc	r25, r19
    4ba4:	09 f0       	breq	.+2      	; 0x4ba8 <__vector_8+0x23c>
    4ba6:	fc ce       	rjmp	.-520    	; 0x49a0 <__vector_8+0x34>
    4ba8:	80 91 b3 03 	lds	r24, 0x03B3
    4bac:	82 30       	cpi	r24, 0x02	; 2
    4bae:	09 f4       	brne	.+2      	; 0x4bb2 <__vector_8+0x246>
    4bb0:	f7 ce       	rjmp	.-530    	; 0x49a0 <__vector_8+0x34>
    4bb2:	10 92 b2 03 	sts	0x03B2, r1
    4bb6:	10 92 b1 03 	sts	0x03B1, r1
    4bba:	e0 91 b5 03 	lds	r30, 0x03B5
    4bbe:	f0 91 b6 03 	lds	r31, 0x03B6
    4bc2:	88 23       	and	r24, r24
    4bc4:	89 f4       	brne	.+34     	; 0x4be8 <__vector_8+0x27c>
    4bc6:	10 92 ae 03 	sts	0x03AE, r1
    4bca:	10 92 b0 03 	sts	0x03B0, r1
    4bce:	10 92 af 03 	sts	0x03AF, r1
    4bd2:	10 92 b2 03 	sts	0x03B2, r1
    4bd6:	10 92 b1 03 	sts	0x03B1, r1
    4bda:	82 e0       	ldi	r24, 0x02	; 2
    4bdc:	80 93 b3 03 	sts	0x03B3, r24
    4be0:	10 92 b6 03 	sts	0x03B6, r1
    4be4:	10 92 b5 03 	sts	0x03B5, r1
    4be8:	30 97       	sbiw	r30, 0x00	; 0
    4bea:	09 f4       	brne	.+2      	; 0x4bee <__vector_8+0x282>
    4bec:	d9 ce       	rjmp	.-590    	; 0x49a0 <__vector_8+0x34>
    4bee:	09 95       	icall
    4bf0:	d7 ce       	rjmp	.-594    	; 0x49a0 <__vector_8+0x34>
    4bf2:	30 97       	sbiw	r30, 0x00	; 0
    4bf4:	09 f4       	brne	.+2      	; 0x4bf8 <__vector_8+0x28c>
    4bf6:	e3 ce       	rjmp	.-570    	; 0x49be <__vector_8+0x52>
    4bf8:	09 95       	icall
    4bfa:	e1 ce       	rjmp	.-574    	; 0x49be <__vector_8+0x52>

00004bfc <__vector_7>:
    4bfc:	1f 92       	push	r1
    4bfe:	0f 92       	push	r0
    4c00:	0f b6       	in	r0, 0x3f	; 63
    4c02:	0f 92       	push	r0
    4c04:	11 24       	eor	r1, r1
    4c06:	2f 93       	push	r18
    4c08:	3f 93       	push	r19
    4c0a:	4f 93       	push	r20
    4c0c:	5f 93       	push	r21
    4c0e:	6f 93       	push	r22
    4c10:	7f 93       	push	r23
    4c12:	8f 93       	push	r24
    4c14:	9f 93       	push	r25
    4c16:	af 93       	push	r26
    4c18:	bf 93       	push	r27
    4c1a:	ef 93       	push	r30
    4c1c:	ff 93       	push	r31
    4c1e:	80 91 b2 00 	lds	r24, 0x00B2
    4c22:	88 5e       	subi	r24, 0xE8	; 232
    4c24:	80 93 b3 00 	sts	0x00B3, r24
    4c28:	80 91 99 02 	lds	r24, 0x0299
    4c2c:	90 91 9a 02 	lds	r25, 0x029A
    4c30:	9c 01       	movw	r18, r24
    4c32:	2f 5f       	subi	r18, 0xFF	; 255
    4c34:	3f 4f       	sbci	r19, 0xFF	; 255
    4c36:	30 93 9a 02 	sts	0x029A, r19
    4c3a:	20 93 99 02 	sts	0x0299, r18
    4c3e:	87 3c       	cpi	r24, 0xC7	; 199
    4c40:	91 05       	cpc	r25, r1
    4c42:	89 f0       	breq	.+34     	; 0x4c66 <__vector_7+0x6a>
    4c44:	ff 91       	pop	r31
    4c46:	ef 91       	pop	r30
    4c48:	bf 91       	pop	r27
    4c4a:	af 91       	pop	r26
    4c4c:	9f 91       	pop	r25
    4c4e:	8f 91       	pop	r24
    4c50:	7f 91       	pop	r23
    4c52:	6f 91       	pop	r22
    4c54:	5f 91       	pop	r21
    4c56:	4f 91       	pop	r20
    4c58:	3f 91       	pop	r19
    4c5a:	2f 91       	pop	r18
    4c5c:	0f 90       	pop	r0
    4c5e:	0f be       	out	0x3f, r0	; 63
    4c60:	0f 90       	pop	r0
    4c62:	1f 90       	pop	r1
    4c64:	18 95       	reti
    4c66:	10 92 9a 02 	sts	0x029A, r1
    4c6a:	10 92 99 02 	sts	0x0299, r1
    4c6e:	81 e0       	ldi	r24, 0x01	; 1
    4c70:	90 e0       	ldi	r25, 0x00	; 0
    4c72:	0e 94 65 08 	call	0x10ca	; 0x10ca <DrvEventAddEvent>
    4c76:	80 91 96 02 	lds	r24, 0x0296
    4c7a:	98 2f       	mov	r25, r24
    4c7c:	9f 5f       	subi	r25, 0xFF	; 255
    4c7e:	90 93 96 02 	sts	0x0296, r25
    4c82:	84 30       	cpi	r24, 0x04	; 4
    4c84:	f9 f6       	brne	.-66     	; 0x4c44 <__vector_7+0x48>
    4c86:	10 92 96 02 	sts	0x0296, r1
    4c8a:	82 e0       	ldi	r24, 0x02	; 2
    4c8c:	90 e0       	ldi	r25, 0x00	; 0
    4c8e:	0e 94 65 08 	call	0x10ca	; 0x10ca <DrvEventAddEvent>
    4c92:	80 91 95 02 	lds	r24, 0x0295
    4c96:	98 2f       	mov	r25, r24
    4c98:	9f 5f       	subi	r25, 0xFF	; 255
    4c9a:	90 93 95 02 	sts	0x0295, r25
    4c9e:	89 30       	cpi	r24, 0x09	; 9
    4ca0:	89 f6       	brne	.-94     	; 0x4c44 <__vector_7+0x48>
    4ca2:	10 92 95 02 	sts	0x0295, r1
    4ca6:	84 e0       	ldi	r24, 0x04	; 4
    4ca8:	90 e0       	ldi	r25, 0x00	; 0
    4caa:	0e 94 65 08 	call	0x10ca	; 0x10ca <DrvEventAddEvent>
    4cae:	80 91 94 02 	lds	r24, 0x0294
    4cb2:	98 2f       	mov	r25, r24
    4cb4:	9f 5f       	subi	r25, 0xFF	; 255
    4cb6:	90 93 94 02 	sts	0x0294, r25
    4cba:	84 30       	cpi	r24, 0x04	; 4
    4cbc:	19 f6       	brne	.-122    	; 0x4c44 <__vector_7+0x48>
    4cbe:	10 92 94 02 	sts	0x0294, r1
    4cc2:	88 e0       	ldi	r24, 0x08	; 8
    4cc4:	90 e0       	ldi	r25, 0x00	; 0
    4cc6:	0e 94 65 08 	call	0x10ca	; 0x10ca <DrvEventAddEvent>
    4cca:	80 91 93 02 	lds	r24, 0x0293
    4cce:	98 2f       	mov	r25, r24
    4cd0:	9f 5f       	subi	r25, 0xFF	; 255
    4cd2:	90 93 93 02 	sts	0x0293, r25
    4cd6:	81 30       	cpi	r24, 0x01	; 1
    4cd8:	09 f0       	breq	.+2      	; 0x4cdc <__vector_7+0xe0>
    4cda:	b4 cf       	rjmp	.-152    	; 0x4c44 <__vector_7+0x48>
    4cdc:	10 92 93 02 	sts	0x0293, r1
    4ce0:	80 e1       	ldi	r24, 0x10	; 16
    4ce2:	90 e0       	ldi	r25, 0x00	; 0
    4ce4:	0e 94 65 08 	call	0x10ca	; 0x10ca <DrvEventAddEvent>
    4ce8:	ad cf       	rjmp	.-166    	; 0x4c44 <__vector_7+0x48>

00004cea <main>:
    4cea:	15 bc       	out	0x25, r1	; 37
    4cec:	10 92 81 00 	sts	0x0081, r1
    4cf0:	10 92 b1 00 	sts	0x00B1, r1
    4cf4:	0e 94 71 08 	call	0x10e2	; 0x10e2 <DrvInterruptClearAllInterrupts>
    4cf8:	25 9a       	sbi	0x04, 5	; 4
    4cfa:	2d 9a       	sbi	0x05, 5	; 5
    4cfc:	10 92 d7 02 	sts	0x02D7, r1
    4d00:	10 92 d6 02 	sts	0x02D6, r1
    4d04:	10 92 d9 02 	sts	0x02D9, r1
    4d08:	10 92 d8 02 	sts	0x02D8, r1
    4d0c:	10 92 db 02 	sts	0x02DB, r1
    4d10:	10 92 da 02 	sts	0x02DA, r1
    4d14:	10 92 c4 02 	sts	0x02C4, r1
    4d18:	10 92 c3 02 	sts	0x02C3, r1
    4d1c:	ed eb       	ldi	r30, 0xBD	; 189
    4d1e:	f2 e0       	ldi	r31, 0x02	; 2
    4d20:	10 92 be 02 	sts	0x02BE, r1
    4d24:	10 92 bd 02 	sts	0x02BD, r1
    4d28:	13 82       	std	Z+3, r1	; 0x03
    4d2a:	12 82       	std	Z+2, r1	; 0x02
    4d2c:	15 82       	std	Z+5, r1	; 0x05
    4d2e:	14 82       	std	Z+4, r1	; 0x04
    4d30:	10 92 d1 02 	sts	0x02D1, r1
    4d34:	10 92 d0 02 	sts	0x02D0, r1
    4d38:	10 92 d2 02 	sts	0x02D2, r1
    4d3c:	10 92 d3 02 	sts	0x02D3, r1
    4d40:	10 92 d4 02 	sts	0x02D4, r1
    4d44:	10 92 d5 02 	sts	0x02D5, r1
    4d48:	10 92 c9 02 	sts	0x02C9, r1
    4d4c:	10 92 c8 02 	sts	0x02C8, r1
    4d50:	0e 94 43 08 	call	0x1086	; 0x1086 <DrvEventInit>
    4d54:	0e 94 67 09 	call	0x12ce	; 0x12ce <DrvTickInit>
    4d58:	0e 94 73 0b 	call	0x16e6	; 0x16e6 <DrvTwiInit>
    4d5c:	0e 94 09 06 	call	0xc12	; 0xc12 <DrvAdcInit>
    4d60:	0e 94 5b 0d 	call	0x1ab6	; 0x1ab6 <DrvUartInit>
    4d64:	0e 94 4b 06 	call	0xc96	; 0xc96 <DrvEepromInit>
    4d68:	80 e0       	ldi	r24, 0x00	; 0
    4d6a:	40 e0       	ldi	r20, 0x00	; 0
    4d6c:	50 e0       	ldi	r21, 0x00	; 0
    4d6e:	60 e8       	ldi	r22, 0x80	; 128
    4d70:	7f e3       	ldi	r23, 0x3F	; 63
    4d72:	00 e0       	ldi	r16, 0x00	; 0
    4d74:	10 e0       	ldi	r17, 0x00	; 0
    4d76:	98 01       	movw	r18, r16
    4d78:	0f 2e       	mov	r0, r31
    4d7a:	f0 e0       	ldi	r31, 0x00	; 0
    4d7c:	cf 2e       	mov	r12, r31
    4d7e:	f0 e0       	ldi	r31, 0x00	; 0
    4d80:	df 2e       	mov	r13, r31
    4d82:	f0 e5       	ldi	r31, 0x50	; 80
    4d84:	ef 2e       	mov	r14, r31
    4d86:	f1 ec       	ldi	r31, 0xC1	; 193
    4d88:	ff 2e       	mov	r15, r31
    4d8a:	f0 2d       	mov	r31, r0
    4d8c:	0e 94 ea 21 	call	0x43d4	; 0x43d4 <SrvPIDInit>
    4d90:	81 e0       	ldi	r24, 0x01	; 1
    4d92:	40 e0       	ldi	r20, 0x00	; 0
    4d94:	50 e0       	ldi	r21, 0x00	; 0
    4d96:	60 e8       	ldi	r22, 0x80	; 128
    4d98:	7f e3       	ldi	r23, 0x3F	; 63
    4d9a:	00 e0       	ldi	r16, 0x00	; 0
    4d9c:	10 e0       	ldi	r17, 0x00	; 0
    4d9e:	98 01       	movw	r18, r16
    4da0:	0e 94 ea 21 	call	0x43d4	; 0x43d4 <SrvPIDInit>
    4da4:	82 e0       	ldi	r24, 0x02	; 2
    4da6:	40 e0       	ldi	r20, 0x00	; 0
    4da8:	50 e0       	ldi	r21, 0x00	; 0
    4daa:	60 e8       	ldi	r22, 0x80	; 128
    4dac:	7f e3       	ldi	r23, 0x3F	; 63
    4dae:	00 e0       	ldi	r16, 0x00	; 0
    4db0:	10 e0       	ldi	r17, 0x00	; 0
    4db2:	98 01       	movw	r18, r16
    4db4:	68 01       	movw	r12, r16
    4db6:	79 01       	movw	r14, r18
    4db8:	0e 94 ea 21 	call	0x43d4	; 0x43d4 <SrvPIDInit>
    4dbc:	83 e0       	ldi	r24, 0x03	; 3
    4dbe:	40 e0       	ldi	r20, 0x00	; 0
    4dc0:	50 e0       	ldi	r21, 0x00	; 0
    4dc2:	60 e8       	ldi	r22, 0x80	; 128
    4dc4:	7f e3       	ldi	r23, 0x3F	; 63
    4dc6:	97 01       	movw	r18, r14
    4dc8:	86 01       	movw	r16, r12
    4dca:	0e 94 ea 21 	call	0x43d4	; 0x43d4 <SrvPIDInit>
    4dce:	0e 94 73 08 	call	0x10e6	; 0x10e6 <DrvInterruptSetAllInterrupts>
    4dd2:	0e 94 f0 23 	call	0x47e0	; 0x47e0 <SrvTimerInit>
    4dd6:	0e 94 ec 0f 	call	0x1fd8	; 0x1fd8 <SrvImuInit>
    4dda:	88 eb       	ldi	r24, 0xB8	; 184
    4ddc:	9b e0       	ldi	r25, 0x0B	; 11
    4dde:	0e 94 c7 09 	call	0x138e	; 0x138e <DrvTimerDelayMs>
    4de2:	0e 94 a7 15 	call	0x2b4e	; 0x2b4e <SrvImuSensorsCalibration>
    4de6:	80 ed       	ldi	r24, 0xD0	; 208
    4de8:	97 e0       	ldi	r25, 0x07	; 7
    4dea:	0e 94 c7 09 	call	0x138e	; 0x138e <DrvTimerDelayMs>
    4dee:	0e 94 40 20 	call	0x4080	; 0x4080 <SrvMotorInit>
    4df2:	0e 94 bf 23 	call	0x477e	; 0x477e <SrvStartEngineInit>
    4df6:	0e 94 d0 0e 	call	0x1da0	; 0x1da0 <SrvCommInit>
    4dfa:	2d 98       	cbi	0x05, 5	; 5
    4dfc:	0e 94 82 24 	call	0x4904	; 0x4904 <SrvTimerTickReset>
    4e00:	80 e0       	ldi	r24, 0x00	; 0
    4e02:	64 ef       	ldi	r22, 0xF4	; 244
    4e04:	71 e0       	ldi	r23, 0x01	; 1
    4e06:	41 e0       	ldi	r20, 0x01	; 1
    4e08:	24 e0       	ldi	r18, 0x04	; 4
    4e0a:	36 e0       	ldi	r19, 0x06	; 6
    4e0c:	0e 94 28 24 	call	0x4850	; 0x4850 <SrvTimerAddTimer>
    4e10:	80 91 78 01 	lds	r24, 0x0178
    4e14:	90 91 79 01 	lds	r25, 0x0179
    4e18:	0e 94 49 08 	call	0x1092	; 0x1092 <DrvEventGetEvent>
    4e1c:	90 93 79 01 	sts	0x0179, r25
    4e20:	80 93 78 01 	sts	0x0178, r24
    4e24:	80 91 78 01 	lds	r24, 0x0178
    4e28:	90 91 79 01 	lds	r25, 0x0179
    4e2c:	0e 94 6d 10 	call	0x20da	; 0x20da <SrvImuDispatcher>
    4e30:	80 91 78 01 	lds	r24, 0x0178
    4e34:	90 91 79 01 	lds	r25, 0x0179
    4e38:	0e 94 e6 0e 	call	0x1dcc	; 0x1dcc <SrvCommDispatcher>
    4e3c:	e9 cf       	rjmp	.-46     	; 0x4e10 <main+0x126>

00004e3e <__subsf3>:
    4e3e:	50 58       	subi	r21, 0x80	; 128

00004e40 <__addsf3>:
    4e40:	bb 27       	eor	r27, r27
    4e42:	aa 27       	eor	r26, r26
    4e44:	0e d0       	rcall	.+28     	; 0x4e62 <__addsf3x>
    4e46:	27 c2       	rjmp	.+1102   	; 0x5296 <__fp_round>
    4e48:	f0 d1       	rcall	.+992    	; 0x522a <__fp_pscA>
    4e4a:	30 f0       	brcs	.+12     	; 0x4e58 <__addsf3+0x18>
    4e4c:	f5 d1       	rcall	.+1002   	; 0x5238 <__fp_pscB>
    4e4e:	20 f0       	brcs	.+8      	; 0x4e58 <__addsf3+0x18>
    4e50:	31 f4       	brne	.+12     	; 0x4e5e <__addsf3+0x1e>
    4e52:	9f 3f       	cpi	r25, 0xFF	; 255
    4e54:	11 f4       	brne	.+4      	; 0x4e5a <__addsf3+0x1a>
    4e56:	1e f4       	brtc	.+6      	; 0x4e5e <__addsf3+0x1e>
    4e58:	c0 c1       	rjmp	.+896    	; 0x51da <__fp_nan>
    4e5a:	0e f4       	brtc	.+2      	; 0x4e5e <__addsf3+0x1e>
    4e5c:	e0 95       	com	r30
    4e5e:	e7 fb       	bst	r30, 7
    4e60:	b6 c1       	rjmp	.+876    	; 0x51ce <__fp_inf>

00004e62 <__addsf3x>:
    4e62:	e9 2f       	mov	r30, r25
    4e64:	3a d2       	rcall	.+1140   	; 0x52da <__fp_split3>
    4e66:	80 f3       	brcs	.-32     	; 0x4e48 <__addsf3+0x8>
    4e68:	ba 17       	cp	r27, r26
    4e6a:	62 07       	cpc	r22, r18
    4e6c:	73 07       	cpc	r23, r19
    4e6e:	84 07       	cpc	r24, r20
    4e70:	95 07       	cpc	r25, r21
    4e72:	18 f0       	brcs	.+6      	; 0x4e7a <__addsf3x+0x18>
    4e74:	71 f4       	brne	.+28     	; 0x4e92 <__addsf3x+0x30>
    4e76:	9e f5       	brtc	.+102    	; 0x4ede <__addsf3x+0x7c>
    4e78:	52 c2       	rjmp	.+1188   	; 0x531e <__fp_zero>
    4e7a:	0e f4       	brtc	.+2      	; 0x4e7e <__addsf3x+0x1c>
    4e7c:	e0 95       	com	r30
    4e7e:	0b 2e       	mov	r0, r27
    4e80:	ba 2f       	mov	r27, r26
    4e82:	a0 2d       	mov	r26, r0
    4e84:	0b 01       	movw	r0, r22
    4e86:	b9 01       	movw	r22, r18
    4e88:	90 01       	movw	r18, r0
    4e8a:	0c 01       	movw	r0, r24
    4e8c:	ca 01       	movw	r24, r20
    4e8e:	a0 01       	movw	r20, r0
    4e90:	11 24       	eor	r1, r1
    4e92:	ff 27       	eor	r31, r31
    4e94:	59 1b       	sub	r21, r25
    4e96:	99 f0       	breq	.+38     	; 0x4ebe <__addsf3x+0x5c>
    4e98:	59 3f       	cpi	r21, 0xF9	; 249
    4e9a:	50 f4       	brcc	.+20     	; 0x4eb0 <__addsf3x+0x4e>
    4e9c:	50 3e       	cpi	r21, 0xE0	; 224
    4e9e:	68 f1       	brcs	.+90     	; 0x4efa <__addsf3x+0x98>
    4ea0:	1a 16       	cp	r1, r26
    4ea2:	f0 40       	sbci	r31, 0x00	; 0
    4ea4:	a2 2f       	mov	r26, r18
    4ea6:	23 2f       	mov	r18, r19
    4ea8:	34 2f       	mov	r19, r20
    4eaa:	44 27       	eor	r20, r20
    4eac:	58 5f       	subi	r21, 0xF8	; 248
    4eae:	f3 cf       	rjmp	.-26     	; 0x4e96 <__addsf3x+0x34>
    4eb0:	46 95       	lsr	r20
    4eb2:	37 95       	ror	r19
    4eb4:	27 95       	ror	r18
    4eb6:	a7 95       	ror	r26
    4eb8:	f0 40       	sbci	r31, 0x00	; 0
    4eba:	53 95       	inc	r21
    4ebc:	c9 f7       	brne	.-14     	; 0x4eb0 <__addsf3x+0x4e>
    4ebe:	7e f4       	brtc	.+30     	; 0x4ede <__addsf3x+0x7c>
    4ec0:	1f 16       	cp	r1, r31
    4ec2:	ba 0b       	sbc	r27, r26
    4ec4:	62 0b       	sbc	r22, r18
    4ec6:	73 0b       	sbc	r23, r19
    4ec8:	84 0b       	sbc	r24, r20
    4eca:	ba f0       	brmi	.+46     	; 0x4efa <__addsf3x+0x98>
    4ecc:	91 50       	subi	r25, 0x01	; 1
    4ece:	a1 f0       	breq	.+40     	; 0x4ef8 <__addsf3x+0x96>
    4ed0:	ff 0f       	add	r31, r31
    4ed2:	bb 1f       	adc	r27, r27
    4ed4:	66 1f       	adc	r22, r22
    4ed6:	77 1f       	adc	r23, r23
    4ed8:	88 1f       	adc	r24, r24
    4eda:	c2 f7       	brpl	.-16     	; 0x4ecc <__addsf3x+0x6a>
    4edc:	0e c0       	rjmp	.+28     	; 0x4efa <__addsf3x+0x98>
    4ede:	ba 0f       	add	r27, r26
    4ee0:	62 1f       	adc	r22, r18
    4ee2:	73 1f       	adc	r23, r19
    4ee4:	84 1f       	adc	r24, r20
    4ee6:	48 f4       	brcc	.+18     	; 0x4efa <__addsf3x+0x98>
    4ee8:	87 95       	ror	r24
    4eea:	77 95       	ror	r23
    4eec:	67 95       	ror	r22
    4eee:	b7 95       	ror	r27
    4ef0:	f7 95       	ror	r31
    4ef2:	9e 3f       	cpi	r25, 0xFE	; 254
    4ef4:	08 f0       	brcs	.+2      	; 0x4ef8 <__addsf3x+0x96>
    4ef6:	b3 cf       	rjmp	.-154    	; 0x4e5e <__addsf3+0x1e>
    4ef8:	93 95       	inc	r25
    4efa:	88 0f       	add	r24, r24
    4efc:	08 f0       	brcs	.+2      	; 0x4f00 <__addsf3x+0x9e>
    4efe:	99 27       	eor	r25, r25
    4f00:	ee 0f       	add	r30, r30
    4f02:	97 95       	ror	r25
    4f04:	87 95       	ror	r24
    4f06:	08 95       	ret
    4f08:	90 d1       	rcall	.+800    	; 0x522a <__fp_pscA>
    4f0a:	58 f0       	brcs	.+22     	; 0x4f22 <__addsf3x+0xc0>
    4f0c:	80 e8       	ldi	r24, 0x80	; 128
    4f0e:	91 e0       	ldi	r25, 0x01	; 1
    4f10:	09 f4       	brne	.+2      	; 0x4f14 <__addsf3x+0xb2>
    4f12:	9e ef       	ldi	r25, 0xFE	; 254
    4f14:	91 d1       	rcall	.+802    	; 0x5238 <__fp_pscB>
    4f16:	28 f0       	brcs	.+10     	; 0x4f22 <__addsf3x+0xc0>
    4f18:	40 e8       	ldi	r20, 0x80	; 128
    4f1a:	51 e0       	ldi	r21, 0x01	; 1
    4f1c:	59 f4       	brne	.+22     	; 0x4f34 <atan2+0xe>
    4f1e:	5e ef       	ldi	r21, 0xFE	; 254
    4f20:	09 c0       	rjmp	.+18     	; 0x4f34 <atan2+0xe>
    4f22:	5b c1       	rjmp	.+694    	; 0x51da <__fp_nan>
    4f24:	fc c1       	rjmp	.+1016   	; 0x531e <__fp_zero>

00004f26 <atan2>:
    4f26:	e9 2f       	mov	r30, r25
    4f28:	e0 78       	andi	r30, 0x80	; 128
    4f2a:	d7 d1       	rcall	.+942    	; 0x52da <__fp_split3>
    4f2c:	68 f3       	brcs	.-38     	; 0x4f08 <__addsf3x+0xa6>
    4f2e:	09 2e       	mov	r0, r25
    4f30:	05 2a       	or	r0, r21
    4f32:	c1 f3       	breq	.-16     	; 0x4f24 <__addsf3x+0xc2>
    4f34:	26 17       	cp	r18, r22
    4f36:	37 07       	cpc	r19, r23
    4f38:	48 07       	cpc	r20, r24
    4f3a:	59 07       	cpc	r21, r25
    4f3c:	38 f0       	brcs	.+14     	; 0x4f4c <atan2+0x26>
    4f3e:	0e 2e       	mov	r0, r30
    4f40:	07 f8       	bld	r0, 7
    4f42:	e0 25       	eor	r30, r0
    4f44:	69 f0       	breq	.+26     	; 0x4f60 <atan2+0x3a>
    4f46:	e0 25       	eor	r30, r0
    4f48:	e0 64       	ori	r30, 0x40	; 64
    4f4a:	0a c0       	rjmp	.+20     	; 0x4f60 <atan2+0x3a>
    4f4c:	ef 63       	ori	r30, 0x3F	; 63
    4f4e:	07 f8       	bld	r0, 7
    4f50:	00 94       	com	r0
    4f52:	07 fa       	bst	r0, 7
    4f54:	db 01       	movw	r26, r22
    4f56:	b9 01       	movw	r22, r18
    4f58:	9d 01       	movw	r18, r26
    4f5a:	dc 01       	movw	r26, r24
    4f5c:	ca 01       	movw	r24, r20
    4f5e:	ad 01       	movw	r20, r26
    4f60:	ef 93       	push	r30
    4f62:	4a d0       	rcall	.+148    	; 0x4ff8 <__divsf3_pse>
    4f64:	98 d1       	rcall	.+816    	; 0x5296 <__fp_round>
    4f66:	0a d0       	rcall	.+20     	; 0x4f7c <atan>
    4f68:	5f 91       	pop	r21
    4f6a:	55 23       	and	r21, r21
    4f6c:	31 f0       	breq	.+12     	; 0x4f7a <atan2+0x54>
    4f6e:	2b ed       	ldi	r18, 0xDB	; 219
    4f70:	3f e0       	ldi	r19, 0x0F	; 15
    4f72:	49 e4       	ldi	r20, 0x49	; 73
    4f74:	50 fd       	sbrc	r21, 0
    4f76:	49 ec       	ldi	r20, 0xC9	; 201
    4f78:	63 cf       	rjmp	.-314    	; 0x4e40 <__addsf3>
    4f7a:	08 95       	ret

00004f7c <atan>:
    4f7c:	df 93       	push	r29
    4f7e:	dd 27       	eor	r29, r29
    4f80:	b9 2f       	mov	r27, r25
    4f82:	bf 77       	andi	r27, 0x7F	; 127
    4f84:	40 e8       	ldi	r20, 0x80	; 128
    4f86:	5f e3       	ldi	r21, 0x3F	; 63
    4f88:	16 16       	cp	r1, r22
    4f8a:	17 06       	cpc	r1, r23
    4f8c:	48 07       	cpc	r20, r24
    4f8e:	5b 07       	cpc	r21, r27
    4f90:	10 f4       	brcc	.+4      	; 0x4f96 <atan+0x1a>
    4f92:	d9 2f       	mov	r29, r25
    4f94:	cf d1       	rcall	.+926    	; 0x5334 <inverse>
    4f96:	9f 93       	push	r25
    4f98:	8f 93       	push	r24
    4f9a:	7f 93       	push	r23
    4f9c:	6f 93       	push	r22
    4f9e:	c8 d2       	rcall	.+1424   	; 0x5530 <square>
    4fa0:	e8 e6       	ldi	r30, 0x68	; 104
    4fa2:	f0 e0       	ldi	r31, 0x00	; 0
    4fa4:	1d d1       	rcall	.+570    	; 0x51e0 <__fp_powser>
    4fa6:	77 d1       	rcall	.+750    	; 0x5296 <__fp_round>
    4fa8:	2f 91       	pop	r18
    4faa:	3f 91       	pop	r19
    4fac:	4f 91       	pop	r20
    4fae:	5f 91       	pop	r21
    4fb0:	d4 d1       	rcall	.+936    	; 0x535a <__mulsf3x>
    4fb2:	dd 23       	and	r29, r29
    4fb4:	49 f0       	breq	.+18     	; 0x4fc8 <atan+0x4c>
    4fb6:	90 58       	subi	r25, 0x80	; 128
    4fb8:	a2 ea       	ldi	r26, 0xA2	; 162
    4fba:	2a ed       	ldi	r18, 0xDA	; 218
    4fbc:	3f e0       	ldi	r19, 0x0F	; 15
    4fbe:	49 ec       	ldi	r20, 0xC9	; 201
    4fc0:	5f e3       	ldi	r21, 0x3F	; 63
    4fc2:	d0 78       	andi	r29, 0x80	; 128
    4fc4:	5d 27       	eor	r21, r29
    4fc6:	4d df       	rcall	.-358    	; 0x4e62 <__addsf3x>
    4fc8:	df 91       	pop	r29
    4fca:	65 c1       	rjmp	.+714    	; 0x5296 <__fp_round>

00004fcc <__cmpsf2>:
    4fcc:	dc d0       	rcall	.+440    	; 0x5186 <__fp_cmp>
    4fce:	08 f4       	brcc	.+2      	; 0x4fd2 <__cmpsf2+0x6>
    4fd0:	81 e0       	ldi	r24, 0x01	; 1
    4fd2:	08 95       	ret

00004fd4 <cos>:
    4fd4:	39 d1       	rcall	.+626    	; 0x5248 <__fp_rempio2>
    4fd6:	e3 95       	inc	r30
    4fd8:	6f c1       	rjmp	.+734    	; 0x52b8 <__fp_sinus>

00004fda <__divsf3>:
    4fda:	0c d0       	rcall	.+24     	; 0x4ff4 <__divsf3x>
    4fdc:	5c c1       	rjmp	.+696    	; 0x5296 <__fp_round>
    4fde:	2c d1       	rcall	.+600    	; 0x5238 <__fp_pscB>
    4fe0:	40 f0       	brcs	.+16     	; 0x4ff2 <__divsf3+0x18>
    4fe2:	23 d1       	rcall	.+582    	; 0x522a <__fp_pscA>
    4fe4:	30 f0       	brcs	.+12     	; 0x4ff2 <__divsf3+0x18>
    4fe6:	21 f4       	brne	.+8      	; 0x4ff0 <__divsf3+0x16>
    4fe8:	5f 3f       	cpi	r21, 0xFF	; 255
    4fea:	19 f0       	breq	.+6      	; 0x4ff2 <__divsf3+0x18>
    4fec:	f0 c0       	rjmp	.+480    	; 0x51ce <__fp_inf>
    4fee:	51 11       	cpse	r21, r1
    4ff0:	97 c1       	rjmp	.+814    	; 0x5320 <__fp_szero>
    4ff2:	f3 c0       	rjmp	.+486    	; 0x51da <__fp_nan>

00004ff4 <__divsf3x>:
    4ff4:	72 d1       	rcall	.+740    	; 0x52da <__fp_split3>
    4ff6:	98 f3       	brcs	.-26     	; 0x4fde <__divsf3+0x4>

00004ff8 <__divsf3_pse>:
    4ff8:	99 23       	and	r25, r25
    4ffa:	c9 f3       	breq	.-14     	; 0x4fee <__divsf3+0x14>
    4ffc:	55 23       	and	r21, r21
    4ffe:	b1 f3       	breq	.-20     	; 0x4fec <__divsf3+0x12>
    5000:	95 1b       	sub	r25, r21
    5002:	55 0b       	sbc	r21, r21
    5004:	bb 27       	eor	r27, r27
    5006:	aa 27       	eor	r26, r26
    5008:	62 17       	cp	r22, r18
    500a:	73 07       	cpc	r23, r19
    500c:	84 07       	cpc	r24, r20
    500e:	38 f0       	brcs	.+14     	; 0x501e <__divsf3_pse+0x26>
    5010:	9f 5f       	subi	r25, 0xFF	; 255
    5012:	5f 4f       	sbci	r21, 0xFF	; 255
    5014:	22 0f       	add	r18, r18
    5016:	33 1f       	adc	r19, r19
    5018:	44 1f       	adc	r20, r20
    501a:	aa 1f       	adc	r26, r26
    501c:	a9 f3       	breq	.-22     	; 0x5008 <__divsf3_pse+0x10>
    501e:	33 d0       	rcall	.+102    	; 0x5086 <__divsf3_pse+0x8e>
    5020:	0e 2e       	mov	r0, r30
    5022:	3a f0       	brmi	.+14     	; 0x5032 <__divsf3_pse+0x3a>
    5024:	e0 e8       	ldi	r30, 0x80	; 128
    5026:	30 d0       	rcall	.+96     	; 0x5088 <__divsf3_pse+0x90>
    5028:	91 50       	subi	r25, 0x01	; 1
    502a:	50 40       	sbci	r21, 0x00	; 0
    502c:	e6 95       	lsr	r30
    502e:	00 1c       	adc	r0, r0
    5030:	ca f7       	brpl	.-14     	; 0x5024 <__divsf3_pse+0x2c>
    5032:	29 d0       	rcall	.+82     	; 0x5086 <__divsf3_pse+0x8e>
    5034:	fe 2f       	mov	r31, r30
    5036:	27 d0       	rcall	.+78     	; 0x5086 <__divsf3_pse+0x8e>
    5038:	66 0f       	add	r22, r22
    503a:	77 1f       	adc	r23, r23
    503c:	88 1f       	adc	r24, r24
    503e:	bb 1f       	adc	r27, r27
    5040:	26 17       	cp	r18, r22
    5042:	37 07       	cpc	r19, r23
    5044:	48 07       	cpc	r20, r24
    5046:	ab 07       	cpc	r26, r27
    5048:	b0 e8       	ldi	r27, 0x80	; 128
    504a:	09 f0       	breq	.+2      	; 0x504e <__divsf3_pse+0x56>
    504c:	bb 0b       	sbc	r27, r27
    504e:	80 2d       	mov	r24, r0
    5050:	bf 01       	movw	r22, r30
    5052:	ff 27       	eor	r31, r31
    5054:	93 58       	subi	r25, 0x83	; 131
    5056:	5f 4f       	sbci	r21, 0xFF	; 255
    5058:	2a f0       	brmi	.+10     	; 0x5064 <__divsf3_pse+0x6c>
    505a:	9e 3f       	cpi	r25, 0xFE	; 254
    505c:	51 05       	cpc	r21, r1
    505e:	68 f0       	brcs	.+26     	; 0x507a <__divsf3_pse+0x82>
    5060:	b6 c0       	rjmp	.+364    	; 0x51ce <__fp_inf>
    5062:	5e c1       	rjmp	.+700    	; 0x5320 <__fp_szero>
    5064:	5f 3f       	cpi	r21, 0xFF	; 255
    5066:	ec f3       	brlt	.-6      	; 0x5062 <__divsf3_pse+0x6a>
    5068:	98 3e       	cpi	r25, 0xE8	; 232
    506a:	dc f3       	brlt	.-10     	; 0x5062 <__divsf3_pse+0x6a>
    506c:	86 95       	lsr	r24
    506e:	77 95       	ror	r23
    5070:	67 95       	ror	r22
    5072:	b7 95       	ror	r27
    5074:	f7 95       	ror	r31
    5076:	9f 5f       	subi	r25, 0xFF	; 255
    5078:	c9 f7       	brne	.-14     	; 0x506c <__divsf3_pse+0x74>
    507a:	88 0f       	add	r24, r24
    507c:	91 1d       	adc	r25, r1
    507e:	96 95       	lsr	r25
    5080:	87 95       	ror	r24
    5082:	97 f9       	bld	r25, 7
    5084:	08 95       	ret
    5086:	e1 e0       	ldi	r30, 0x01	; 1
    5088:	66 0f       	add	r22, r22
    508a:	77 1f       	adc	r23, r23
    508c:	88 1f       	adc	r24, r24
    508e:	bb 1f       	adc	r27, r27
    5090:	62 17       	cp	r22, r18
    5092:	73 07       	cpc	r23, r19
    5094:	84 07       	cpc	r24, r20
    5096:	ba 07       	cpc	r27, r26
    5098:	20 f0       	brcs	.+8      	; 0x50a2 <__divsf3_pse+0xaa>
    509a:	62 1b       	sub	r22, r18
    509c:	73 0b       	sbc	r23, r19
    509e:	84 0b       	sbc	r24, r20
    50a0:	ba 0b       	sbc	r27, r26
    50a2:	ee 1f       	adc	r30, r30
    50a4:	88 f7       	brcc	.-30     	; 0x5088 <__divsf3_pse+0x90>
    50a6:	e0 95       	com	r30
    50a8:	08 95       	ret

000050aa <__fixsfsi>:
    50aa:	04 d0       	rcall	.+8      	; 0x50b4 <__fixunssfsi>
    50ac:	68 94       	set
    50ae:	b1 11       	cpse	r27, r1
    50b0:	37 c1       	rjmp	.+622    	; 0x5320 <__fp_szero>
    50b2:	08 95       	ret

000050b4 <__fixunssfsi>:
    50b4:	1a d1       	rcall	.+564    	; 0x52ea <__fp_splitA>
    50b6:	88 f0       	brcs	.+34     	; 0x50da <__fixunssfsi+0x26>
    50b8:	9f 57       	subi	r25, 0x7F	; 127
    50ba:	90 f0       	brcs	.+36     	; 0x50e0 <__fixunssfsi+0x2c>
    50bc:	b9 2f       	mov	r27, r25
    50be:	99 27       	eor	r25, r25
    50c0:	b7 51       	subi	r27, 0x17	; 23
    50c2:	a0 f0       	brcs	.+40     	; 0x50ec <__fixunssfsi+0x38>
    50c4:	d1 f0       	breq	.+52     	; 0x50fa <__fixunssfsi+0x46>
    50c6:	66 0f       	add	r22, r22
    50c8:	77 1f       	adc	r23, r23
    50ca:	88 1f       	adc	r24, r24
    50cc:	99 1f       	adc	r25, r25
    50ce:	1a f0       	brmi	.+6      	; 0x50d6 <__fixunssfsi+0x22>
    50d0:	ba 95       	dec	r27
    50d2:	c9 f7       	brne	.-14     	; 0x50c6 <__fixunssfsi+0x12>
    50d4:	12 c0       	rjmp	.+36     	; 0x50fa <__fixunssfsi+0x46>
    50d6:	b1 30       	cpi	r27, 0x01	; 1
    50d8:	81 f0       	breq	.+32     	; 0x50fa <__fixunssfsi+0x46>
    50da:	21 d1       	rcall	.+578    	; 0x531e <__fp_zero>
    50dc:	b1 e0       	ldi	r27, 0x01	; 1
    50de:	08 95       	ret
    50e0:	1e c1       	rjmp	.+572    	; 0x531e <__fp_zero>
    50e2:	67 2f       	mov	r22, r23
    50e4:	78 2f       	mov	r23, r24
    50e6:	88 27       	eor	r24, r24
    50e8:	b8 5f       	subi	r27, 0xF8	; 248
    50ea:	39 f0       	breq	.+14     	; 0x50fa <__fixunssfsi+0x46>
    50ec:	b9 3f       	cpi	r27, 0xF9	; 249
    50ee:	cc f3       	brlt	.-14     	; 0x50e2 <__fixunssfsi+0x2e>
    50f0:	86 95       	lsr	r24
    50f2:	77 95       	ror	r23
    50f4:	67 95       	ror	r22
    50f6:	b3 95       	inc	r27
    50f8:	d9 f7       	brne	.-10     	; 0x50f0 <__fixunssfsi+0x3c>
    50fa:	3e f4       	brtc	.+14     	; 0x510a <__fixunssfsi+0x56>
    50fc:	90 95       	com	r25
    50fe:	80 95       	com	r24
    5100:	70 95       	com	r23
    5102:	61 95       	neg	r22
    5104:	7f 4f       	sbci	r23, 0xFF	; 255
    5106:	8f 4f       	sbci	r24, 0xFF	; 255
    5108:	9f 4f       	sbci	r25, 0xFF	; 255
    510a:	08 95       	ret

0000510c <__floatunsisf>:
    510c:	e8 94       	clt
    510e:	09 c0       	rjmp	.+18     	; 0x5122 <__floatsisf+0x12>

00005110 <__floatsisf>:
    5110:	97 fb       	bst	r25, 7
    5112:	3e f4       	brtc	.+14     	; 0x5122 <__floatsisf+0x12>
    5114:	90 95       	com	r25
    5116:	80 95       	com	r24
    5118:	70 95       	com	r23
    511a:	61 95       	neg	r22
    511c:	7f 4f       	sbci	r23, 0xFF	; 255
    511e:	8f 4f       	sbci	r24, 0xFF	; 255
    5120:	9f 4f       	sbci	r25, 0xFF	; 255
    5122:	99 23       	and	r25, r25
    5124:	a9 f0       	breq	.+42     	; 0x5150 <__floatsisf+0x40>
    5126:	f9 2f       	mov	r31, r25
    5128:	96 e9       	ldi	r25, 0x96	; 150
    512a:	bb 27       	eor	r27, r27
    512c:	93 95       	inc	r25
    512e:	f6 95       	lsr	r31
    5130:	87 95       	ror	r24
    5132:	77 95       	ror	r23
    5134:	67 95       	ror	r22
    5136:	b7 95       	ror	r27
    5138:	f1 11       	cpse	r31, r1
    513a:	f8 cf       	rjmp	.-16     	; 0x512c <__floatsisf+0x1c>
    513c:	fa f4       	brpl	.+62     	; 0x517c <__floatsisf+0x6c>
    513e:	bb 0f       	add	r27, r27
    5140:	11 f4       	brne	.+4      	; 0x5146 <__floatsisf+0x36>
    5142:	60 ff       	sbrs	r22, 0
    5144:	1b c0       	rjmp	.+54     	; 0x517c <__floatsisf+0x6c>
    5146:	6f 5f       	subi	r22, 0xFF	; 255
    5148:	7f 4f       	sbci	r23, 0xFF	; 255
    514a:	8f 4f       	sbci	r24, 0xFF	; 255
    514c:	9f 4f       	sbci	r25, 0xFF	; 255
    514e:	16 c0       	rjmp	.+44     	; 0x517c <__floatsisf+0x6c>
    5150:	88 23       	and	r24, r24
    5152:	11 f0       	breq	.+4      	; 0x5158 <__floatsisf+0x48>
    5154:	96 e9       	ldi	r25, 0x96	; 150
    5156:	11 c0       	rjmp	.+34     	; 0x517a <__floatsisf+0x6a>
    5158:	77 23       	and	r23, r23
    515a:	21 f0       	breq	.+8      	; 0x5164 <__floatsisf+0x54>
    515c:	9e e8       	ldi	r25, 0x8E	; 142
    515e:	87 2f       	mov	r24, r23
    5160:	76 2f       	mov	r23, r22
    5162:	05 c0       	rjmp	.+10     	; 0x516e <__floatsisf+0x5e>
    5164:	66 23       	and	r22, r22
    5166:	71 f0       	breq	.+28     	; 0x5184 <__floatsisf+0x74>
    5168:	96 e8       	ldi	r25, 0x86	; 134
    516a:	86 2f       	mov	r24, r22
    516c:	70 e0       	ldi	r23, 0x00	; 0
    516e:	60 e0       	ldi	r22, 0x00	; 0
    5170:	2a f0       	brmi	.+10     	; 0x517c <__floatsisf+0x6c>
    5172:	9a 95       	dec	r25
    5174:	66 0f       	add	r22, r22
    5176:	77 1f       	adc	r23, r23
    5178:	88 1f       	adc	r24, r24
    517a:	da f7       	brpl	.-10     	; 0x5172 <__floatsisf+0x62>
    517c:	88 0f       	add	r24, r24
    517e:	96 95       	lsr	r25
    5180:	87 95       	ror	r24
    5182:	97 f9       	bld	r25, 7
    5184:	08 95       	ret

00005186 <__fp_cmp>:
    5186:	99 0f       	add	r25, r25
    5188:	00 08       	sbc	r0, r0
    518a:	55 0f       	add	r21, r21
    518c:	aa 0b       	sbc	r26, r26
    518e:	e0 e8       	ldi	r30, 0x80	; 128
    5190:	fe ef       	ldi	r31, 0xFE	; 254
    5192:	16 16       	cp	r1, r22
    5194:	17 06       	cpc	r1, r23
    5196:	e8 07       	cpc	r30, r24
    5198:	f9 07       	cpc	r31, r25
    519a:	c0 f0       	brcs	.+48     	; 0x51cc <__fp_cmp+0x46>
    519c:	12 16       	cp	r1, r18
    519e:	13 06       	cpc	r1, r19
    51a0:	e4 07       	cpc	r30, r20
    51a2:	f5 07       	cpc	r31, r21
    51a4:	98 f0       	brcs	.+38     	; 0x51cc <__fp_cmp+0x46>
    51a6:	62 1b       	sub	r22, r18
    51a8:	73 0b       	sbc	r23, r19
    51aa:	84 0b       	sbc	r24, r20
    51ac:	95 0b       	sbc	r25, r21
    51ae:	39 f4       	brne	.+14     	; 0x51be <__fp_cmp+0x38>
    51b0:	0a 26       	eor	r0, r26
    51b2:	61 f0       	breq	.+24     	; 0x51cc <__fp_cmp+0x46>
    51b4:	23 2b       	or	r18, r19
    51b6:	24 2b       	or	r18, r20
    51b8:	25 2b       	or	r18, r21
    51ba:	21 f4       	brne	.+8      	; 0x51c4 <__fp_cmp+0x3e>
    51bc:	08 95       	ret
    51be:	0a 26       	eor	r0, r26
    51c0:	09 f4       	brne	.+2      	; 0x51c4 <__fp_cmp+0x3e>
    51c2:	a1 40       	sbci	r26, 0x01	; 1
    51c4:	a6 95       	lsr	r26
    51c6:	8f ef       	ldi	r24, 0xFF	; 255
    51c8:	81 1d       	adc	r24, r1
    51ca:	81 1d       	adc	r24, r1
    51cc:	08 95       	ret

000051ce <__fp_inf>:
    51ce:	97 f9       	bld	r25, 7
    51d0:	9f 67       	ori	r25, 0x7F	; 127
    51d2:	80 e8       	ldi	r24, 0x80	; 128
    51d4:	70 e0       	ldi	r23, 0x00	; 0
    51d6:	60 e0       	ldi	r22, 0x00	; 0
    51d8:	08 95       	ret

000051da <__fp_nan>:
    51da:	9f ef       	ldi	r25, 0xFF	; 255
    51dc:	80 ec       	ldi	r24, 0xC0	; 192
    51de:	08 95       	ret

000051e0 <__fp_powser>:
    51e0:	df 93       	push	r29
    51e2:	cf 93       	push	r28
    51e4:	1f 93       	push	r17
    51e6:	0f 93       	push	r16
    51e8:	ff 92       	push	r15
    51ea:	ef 92       	push	r14
    51ec:	df 92       	push	r13
    51ee:	7b 01       	movw	r14, r22
    51f0:	8c 01       	movw	r16, r24
    51f2:	68 94       	set
    51f4:	05 c0       	rjmp	.+10     	; 0x5200 <__fp_powser+0x20>
    51f6:	da 2e       	mov	r13, r26
    51f8:	ef 01       	movw	r28, r30
    51fa:	af d0       	rcall	.+350    	; 0x535a <__mulsf3x>
    51fc:	fe 01       	movw	r30, r28
    51fe:	e8 94       	clt
    5200:	a5 91       	lpm	r26, Z+
    5202:	25 91       	lpm	r18, Z+
    5204:	35 91       	lpm	r19, Z+
    5206:	45 91       	lpm	r20, Z+
    5208:	55 91       	lpm	r21, Z+
    520a:	ae f3       	brts	.-22     	; 0x51f6 <__fp_powser+0x16>
    520c:	ef 01       	movw	r28, r30
    520e:	29 de       	rcall	.-942    	; 0x4e62 <__addsf3x>
    5210:	fe 01       	movw	r30, r28
    5212:	97 01       	movw	r18, r14
    5214:	a8 01       	movw	r20, r16
    5216:	da 94       	dec	r13
    5218:	79 f7       	brne	.-34     	; 0x51f8 <__fp_powser+0x18>
    521a:	df 90       	pop	r13
    521c:	ef 90       	pop	r14
    521e:	ff 90       	pop	r15
    5220:	0f 91       	pop	r16
    5222:	1f 91       	pop	r17
    5224:	cf 91       	pop	r28
    5226:	df 91       	pop	r29
    5228:	08 95       	ret

0000522a <__fp_pscA>:
    522a:	00 24       	eor	r0, r0
    522c:	0a 94       	dec	r0
    522e:	16 16       	cp	r1, r22
    5230:	17 06       	cpc	r1, r23
    5232:	18 06       	cpc	r1, r24
    5234:	09 06       	cpc	r0, r25
    5236:	08 95       	ret

00005238 <__fp_pscB>:
    5238:	00 24       	eor	r0, r0
    523a:	0a 94       	dec	r0
    523c:	12 16       	cp	r1, r18
    523e:	13 06       	cpc	r1, r19
    5240:	14 06       	cpc	r1, r20
    5242:	05 06       	cpc	r0, r21
    5244:	08 95       	ret
    5246:	c9 cf       	rjmp	.-110    	; 0x51da <__fp_nan>

00005248 <__fp_rempio2>:
    5248:	50 d0       	rcall	.+160    	; 0x52ea <__fp_splitA>
    524a:	e8 f3       	brcs	.-6      	; 0x5246 <__fp_pscB+0xe>
    524c:	e8 94       	clt
    524e:	e0 e0       	ldi	r30, 0x00	; 0
    5250:	bb 27       	eor	r27, r27
    5252:	9f 57       	subi	r25, 0x7F	; 127
    5254:	f0 f0       	brcs	.+60     	; 0x5292 <__fp_rempio2+0x4a>
    5256:	2a ed       	ldi	r18, 0xDA	; 218
    5258:	3f e0       	ldi	r19, 0x0F	; 15
    525a:	49 ec       	ldi	r20, 0xC9	; 201
    525c:	06 c0       	rjmp	.+12     	; 0x526a <__fp_rempio2+0x22>
    525e:	ee 0f       	add	r30, r30
    5260:	bb 0f       	add	r27, r27
    5262:	66 1f       	adc	r22, r22
    5264:	77 1f       	adc	r23, r23
    5266:	88 1f       	adc	r24, r24
    5268:	28 f0       	brcs	.+10     	; 0x5274 <__fp_rempio2+0x2c>
    526a:	b2 3a       	cpi	r27, 0xA2	; 162
    526c:	62 07       	cpc	r22, r18
    526e:	73 07       	cpc	r23, r19
    5270:	84 07       	cpc	r24, r20
    5272:	28 f0       	brcs	.+10     	; 0x527e <__fp_rempio2+0x36>
    5274:	b2 5a       	subi	r27, 0xA2	; 162
    5276:	62 0b       	sbc	r22, r18
    5278:	73 0b       	sbc	r23, r19
    527a:	84 0b       	sbc	r24, r20
    527c:	e3 95       	inc	r30
    527e:	9a 95       	dec	r25
    5280:	72 f7       	brpl	.-36     	; 0x525e <__fp_rempio2+0x16>
    5282:	80 38       	cpi	r24, 0x80	; 128
    5284:	30 f4       	brcc	.+12     	; 0x5292 <__fp_rempio2+0x4a>
    5286:	9a 95       	dec	r25
    5288:	bb 0f       	add	r27, r27
    528a:	66 1f       	adc	r22, r22
    528c:	77 1f       	adc	r23, r23
    528e:	88 1f       	adc	r24, r24
    5290:	d2 f7       	brpl	.-12     	; 0x5286 <__fp_rempio2+0x3e>
    5292:	90 48       	sbci	r25, 0x80	; 128
    5294:	83 c1       	rjmp	.+774    	; 0x559c <__fp_mpack_finite>

00005296 <__fp_round>:
    5296:	09 2e       	mov	r0, r25
    5298:	03 94       	inc	r0
    529a:	00 0c       	add	r0, r0
    529c:	11 f4       	brne	.+4      	; 0x52a2 <__fp_round+0xc>
    529e:	88 23       	and	r24, r24
    52a0:	52 f0       	brmi	.+20     	; 0x52b6 <__fp_round+0x20>
    52a2:	bb 0f       	add	r27, r27
    52a4:	40 f4       	brcc	.+16     	; 0x52b6 <__fp_round+0x20>
    52a6:	bf 2b       	or	r27, r31
    52a8:	11 f4       	brne	.+4      	; 0x52ae <__fp_round+0x18>
    52aa:	60 ff       	sbrs	r22, 0
    52ac:	04 c0       	rjmp	.+8      	; 0x52b6 <__fp_round+0x20>
    52ae:	6f 5f       	subi	r22, 0xFF	; 255
    52b0:	7f 4f       	sbci	r23, 0xFF	; 255
    52b2:	8f 4f       	sbci	r24, 0xFF	; 255
    52b4:	9f 4f       	sbci	r25, 0xFF	; 255
    52b6:	08 95       	ret

000052b8 <__fp_sinus>:
    52b8:	ef 93       	push	r30
    52ba:	e0 ff       	sbrs	r30, 0
    52bc:	06 c0       	rjmp	.+12     	; 0x52ca <__fp_sinus+0x12>
    52be:	a2 ea       	ldi	r26, 0xA2	; 162
    52c0:	2a ed       	ldi	r18, 0xDA	; 218
    52c2:	3f e0       	ldi	r19, 0x0F	; 15
    52c4:	49 ec       	ldi	r20, 0xC9	; 201
    52c6:	5f eb       	ldi	r21, 0xBF	; 191
    52c8:	cc dd       	rcall	.-1128   	; 0x4e62 <__addsf3x>
    52ca:	e5 df       	rcall	.-54     	; 0x5296 <__fp_round>
    52cc:	0f 90       	pop	r0
    52ce:	03 94       	inc	r0
    52d0:	01 fc       	sbrc	r0, 1
    52d2:	90 58       	subi	r25, 0x80	; 128
    52d4:	e5 e9       	ldi	r30, 0x95	; 149
    52d6:	f0 e0       	ldi	r31, 0x00	; 0
    52d8:	74 c1       	rjmp	.+744    	; 0x55c2 <__fp_powsodd>

000052da <__fp_split3>:
    52da:	57 fd       	sbrc	r21, 7
    52dc:	90 58       	subi	r25, 0x80	; 128
    52de:	44 0f       	add	r20, r20
    52e0:	55 1f       	adc	r21, r21
    52e2:	59 f0       	breq	.+22     	; 0x52fa <__fp_splitA+0x10>
    52e4:	5f 3f       	cpi	r21, 0xFF	; 255
    52e6:	71 f0       	breq	.+28     	; 0x5304 <__fp_splitA+0x1a>
    52e8:	47 95       	ror	r20

000052ea <__fp_splitA>:
    52ea:	88 0f       	add	r24, r24
    52ec:	97 fb       	bst	r25, 7
    52ee:	99 1f       	adc	r25, r25
    52f0:	61 f0       	breq	.+24     	; 0x530a <__fp_splitA+0x20>
    52f2:	9f 3f       	cpi	r25, 0xFF	; 255
    52f4:	79 f0       	breq	.+30     	; 0x5314 <__fp_splitA+0x2a>
    52f6:	87 95       	ror	r24
    52f8:	08 95       	ret
    52fa:	12 16       	cp	r1, r18
    52fc:	13 06       	cpc	r1, r19
    52fe:	14 06       	cpc	r1, r20
    5300:	55 1f       	adc	r21, r21
    5302:	f2 cf       	rjmp	.-28     	; 0x52e8 <__fp_split3+0xe>
    5304:	46 95       	lsr	r20
    5306:	f1 df       	rcall	.-30     	; 0x52ea <__fp_splitA>
    5308:	08 c0       	rjmp	.+16     	; 0x531a <__fp_splitA+0x30>
    530a:	16 16       	cp	r1, r22
    530c:	17 06       	cpc	r1, r23
    530e:	18 06       	cpc	r1, r24
    5310:	99 1f       	adc	r25, r25
    5312:	f1 cf       	rjmp	.-30     	; 0x52f6 <__fp_splitA+0xc>
    5314:	86 95       	lsr	r24
    5316:	71 05       	cpc	r23, r1
    5318:	61 05       	cpc	r22, r1
    531a:	08 94       	sec
    531c:	08 95       	ret

0000531e <__fp_zero>:
    531e:	e8 94       	clt

00005320 <__fp_szero>:
    5320:	bb 27       	eor	r27, r27
    5322:	66 27       	eor	r22, r22
    5324:	77 27       	eor	r23, r23
    5326:	cb 01       	movw	r24, r22
    5328:	97 f9       	bld	r25, 7
    532a:	08 95       	ret

0000532c <__gesf2>:
    532c:	2c df       	rcall	.-424    	; 0x5186 <__fp_cmp>
    532e:	08 f4       	brcc	.+2      	; 0x5332 <__gesf2+0x6>
    5330:	8f ef       	ldi	r24, 0xFF	; 255
    5332:	08 95       	ret

00005334 <inverse>:
    5334:	9b 01       	movw	r18, r22
    5336:	ac 01       	movw	r20, r24
    5338:	60 e0       	ldi	r22, 0x00	; 0
    533a:	70 e0       	ldi	r23, 0x00	; 0
    533c:	80 e8       	ldi	r24, 0x80	; 128
    533e:	9f e3       	ldi	r25, 0x3F	; 63
    5340:	4c ce       	rjmp	.-872    	; 0x4fda <__divsf3>

00005342 <__mulsf3>:
    5342:	0b d0       	rcall	.+22     	; 0x535a <__mulsf3x>
    5344:	a8 cf       	rjmp	.-176    	; 0x5296 <__fp_round>
    5346:	71 df       	rcall	.-286    	; 0x522a <__fp_pscA>
    5348:	28 f0       	brcs	.+10     	; 0x5354 <__mulsf3+0x12>
    534a:	76 df       	rcall	.-276    	; 0x5238 <__fp_pscB>
    534c:	18 f0       	brcs	.+6      	; 0x5354 <__mulsf3+0x12>
    534e:	95 23       	and	r25, r21
    5350:	09 f0       	breq	.+2      	; 0x5354 <__mulsf3+0x12>
    5352:	3d cf       	rjmp	.-390    	; 0x51ce <__fp_inf>
    5354:	42 cf       	rjmp	.-380    	; 0x51da <__fp_nan>
    5356:	11 24       	eor	r1, r1
    5358:	e3 cf       	rjmp	.-58     	; 0x5320 <__fp_szero>

0000535a <__mulsf3x>:
    535a:	bf df       	rcall	.-130    	; 0x52da <__fp_split3>
    535c:	a0 f3       	brcs	.-24     	; 0x5346 <__mulsf3+0x4>

0000535e <__mulsf3_pse>:
    535e:	95 9f       	mul	r25, r21
    5360:	d1 f3       	breq	.-12     	; 0x5356 <__mulsf3+0x14>
    5362:	95 0f       	add	r25, r21
    5364:	50 e0       	ldi	r21, 0x00	; 0
    5366:	55 1f       	adc	r21, r21
    5368:	62 9f       	mul	r22, r18
    536a:	f0 01       	movw	r30, r0
    536c:	72 9f       	mul	r23, r18
    536e:	bb 27       	eor	r27, r27
    5370:	f0 0d       	add	r31, r0
    5372:	b1 1d       	adc	r27, r1
    5374:	63 9f       	mul	r22, r19
    5376:	aa 27       	eor	r26, r26
    5378:	f0 0d       	add	r31, r0
    537a:	b1 1d       	adc	r27, r1
    537c:	aa 1f       	adc	r26, r26
    537e:	64 9f       	mul	r22, r20
    5380:	66 27       	eor	r22, r22
    5382:	b0 0d       	add	r27, r0
    5384:	a1 1d       	adc	r26, r1
    5386:	66 1f       	adc	r22, r22
    5388:	82 9f       	mul	r24, r18
    538a:	22 27       	eor	r18, r18
    538c:	b0 0d       	add	r27, r0
    538e:	a1 1d       	adc	r26, r1
    5390:	62 1f       	adc	r22, r18
    5392:	73 9f       	mul	r23, r19
    5394:	b0 0d       	add	r27, r0
    5396:	a1 1d       	adc	r26, r1
    5398:	62 1f       	adc	r22, r18
    539a:	83 9f       	mul	r24, r19
    539c:	a0 0d       	add	r26, r0
    539e:	61 1d       	adc	r22, r1
    53a0:	22 1f       	adc	r18, r18
    53a2:	74 9f       	mul	r23, r20
    53a4:	33 27       	eor	r19, r19
    53a6:	a0 0d       	add	r26, r0
    53a8:	61 1d       	adc	r22, r1
    53aa:	23 1f       	adc	r18, r19
    53ac:	84 9f       	mul	r24, r20
    53ae:	60 0d       	add	r22, r0
    53b0:	21 1d       	adc	r18, r1
    53b2:	82 2f       	mov	r24, r18
    53b4:	76 2f       	mov	r23, r22
    53b6:	6a 2f       	mov	r22, r26
    53b8:	11 24       	eor	r1, r1
    53ba:	9f 57       	subi	r25, 0x7F	; 127
    53bc:	50 40       	sbci	r21, 0x00	; 0
    53be:	8a f0       	brmi	.+34     	; 0x53e2 <__mulsf3_pse+0x84>
    53c0:	e1 f0       	breq	.+56     	; 0x53fa <__mulsf3_pse+0x9c>
    53c2:	88 23       	and	r24, r24
    53c4:	4a f0       	brmi	.+18     	; 0x53d8 <__mulsf3_pse+0x7a>
    53c6:	ee 0f       	add	r30, r30
    53c8:	ff 1f       	adc	r31, r31
    53ca:	bb 1f       	adc	r27, r27
    53cc:	66 1f       	adc	r22, r22
    53ce:	77 1f       	adc	r23, r23
    53d0:	88 1f       	adc	r24, r24
    53d2:	91 50       	subi	r25, 0x01	; 1
    53d4:	50 40       	sbci	r21, 0x00	; 0
    53d6:	a9 f7       	brne	.-22     	; 0x53c2 <__mulsf3_pse+0x64>
    53d8:	9e 3f       	cpi	r25, 0xFE	; 254
    53da:	51 05       	cpc	r21, r1
    53dc:	70 f0       	brcs	.+28     	; 0x53fa <__mulsf3_pse+0x9c>
    53de:	f7 ce       	rjmp	.-530    	; 0x51ce <__fp_inf>
    53e0:	9f cf       	rjmp	.-194    	; 0x5320 <__fp_szero>
    53e2:	5f 3f       	cpi	r21, 0xFF	; 255
    53e4:	ec f3       	brlt	.-6      	; 0x53e0 <__mulsf3_pse+0x82>
    53e6:	98 3e       	cpi	r25, 0xE8	; 232
    53e8:	dc f3       	brlt	.-10     	; 0x53e0 <__mulsf3_pse+0x82>
    53ea:	86 95       	lsr	r24
    53ec:	77 95       	ror	r23
    53ee:	67 95       	ror	r22
    53f0:	b7 95       	ror	r27
    53f2:	f7 95       	ror	r31
    53f4:	e7 95       	ror	r30
    53f6:	9f 5f       	subi	r25, 0xFF	; 255
    53f8:	c1 f7       	brne	.-16     	; 0x53ea <__mulsf3_pse+0x8c>
    53fa:	fe 2b       	or	r31, r30
    53fc:	88 0f       	add	r24, r24
    53fe:	91 1d       	adc	r25, r1
    5400:	96 95       	lsr	r25
    5402:	87 95       	ror	r24
    5404:	97 f9       	bld	r25, 7
    5406:	08 95       	ret

00005408 <pow>:
    5408:	fa 01       	movw	r30, r20
    540a:	ee 0f       	add	r30, r30
    540c:	ff 1f       	adc	r31, r31
    540e:	30 96       	adiw	r30, 0x00	; 0
    5410:	21 05       	cpc	r18, r1
    5412:	31 05       	cpc	r19, r1
    5414:	99 f1       	breq	.+102    	; 0x547c <pow+0x74>
    5416:	61 15       	cp	r22, r1
    5418:	71 05       	cpc	r23, r1
    541a:	61 f4       	brne	.+24     	; 0x5434 <pow+0x2c>
    541c:	80 38       	cpi	r24, 0x80	; 128
    541e:	bf e3       	ldi	r27, 0x3F	; 63
    5420:	9b 07       	cpc	r25, r27
    5422:	49 f1       	breq	.+82     	; 0x5476 <pow+0x6e>
    5424:	68 94       	set
    5426:	90 38       	cpi	r25, 0x80	; 128
    5428:	81 05       	cpc	r24, r1
    542a:	61 f0       	breq	.+24     	; 0x5444 <pow+0x3c>
    542c:	80 38       	cpi	r24, 0x80	; 128
    542e:	bf ef       	ldi	r27, 0xFF	; 255
    5430:	9b 07       	cpc	r25, r27
    5432:	41 f0       	breq	.+16     	; 0x5444 <pow+0x3c>
    5434:	99 23       	and	r25, r25
    5436:	42 f5       	brpl	.+80     	; 0x5488 <pow+0x80>
    5438:	ff 3f       	cpi	r31, 0xFF	; 255
    543a:	e1 05       	cpc	r30, r1
    543c:	31 05       	cpc	r19, r1
    543e:	21 05       	cpc	r18, r1
    5440:	11 f1       	breq	.+68     	; 0x5486 <pow+0x7e>
    5442:	e8 94       	clt
    5444:	08 94       	sec
    5446:	e7 95       	ror	r30
    5448:	d9 01       	movw	r26, r18
    544a:	aa 23       	and	r26, r26
    544c:	29 f4       	brne	.+10     	; 0x5458 <pow+0x50>
    544e:	ab 2f       	mov	r26, r27
    5450:	be 2f       	mov	r27, r30
    5452:	f8 5f       	subi	r31, 0xF8	; 248
    5454:	d0 f3       	brcs	.-12     	; 0x544a <pow+0x42>
    5456:	10 c0       	rjmp	.+32     	; 0x5478 <pow+0x70>
    5458:	ff 5f       	subi	r31, 0xFF	; 255
    545a:	70 f4       	brcc	.+28     	; 0x5478 <pow+0x70>
    545c:	a6 95       	lsr	r26
    545e:	e0 f7       	brcc	.-8      	; 0x5458 <pow+0x50>
    5460:	f7 39       	cpi	r31, 0x97	; 151
    5462:	50 f0       	brcs	.+20     	; 0x5478 <pow+0x70>
    5464:	19 f0       	breq	.+6      	; 0x546c <pow+0x64>
    5466:	ff 3a       	cpi	r31, 0xAF	; 175
    5468:	38 f4       	brcc	.+14     	; 0x5478 <pow+0x70>
    546a:	9f 77       	andi	r25, 0x7F	; 127
    546c:	9f 93       	push	r25
    546e:	0c d0       	rcall	.+24     	; 0x5488 <pow+0x80>
    5470:	0f 90       	pop	r0
    5472:	07 fc       	sbrc	r0, 7
    5474:	90 58       	subi	r25, 0x80	; 128
    5476:	08 95       	ret
    5478:	3e f0       	brts	.+14     	; 0x5488 <pow+0x80>
    547a:	af ce       	rjmp	.-674    	; 0x51da <__fp_nan>
    547c:	60 e0       	ldi	r22, 0x00	; 0
    547e:	70 e0       	ldi	r23, 0x00	; 0
    5480:	80 e8       	ldi	r24, 0x80	; 128
    5482:	9f e3       	ldi	r25, 0x3F	; 63
    5484:	08 95       	ret
    5486:	4f e7       	ldi	r20, 0x7F	; 127
    5488:	9f 77       	andi	r25, 0x7F	; 127
    548a:	5f 93       	push	r21
    548c:	4f 93       	push	r20
    548e:	3f 93       	push	r19
    5490:	2f 93       	push	r18
    5492:	e3 d0       	rcall	.+454    	; 0x565a <log>
    5494:	2f 91       	pop	r18
    5496:	3f 91       	pop	r19
    5498:	4f 91       	pop	r20
    549a:	5f 91       	pop	r21
    549c:	52 df       	rcall	.-348    	; 0x5342 <__mulsf3>
    549e:	50 c0       	rjmp	.+160    	; 0x5540 <exp>

000054a0 <sin>:
    54a0:	9f 93       	push	r25
    54a2:	d2 de       	rcall	.-604    	; 0x5248 <__fp_rempio2>
    54a4:	0f 90       	pop	r0
    54a6:	07 fc       	sbrc	r0, 7
    54a8:	ee 5f       	subi	r30, 0xFE	; 254
    54aa:	06 cf       	rjmp	.-500    	; 0x52b8 <__fp_sinus>
    54ac:	11 f4       	brne	.+4      	; 0x54b2 <sin+0x12>
    54ae:	0e f4       	brtc	.+2      	; 0x54b2 <sin+0x12>
    54b0:	94 ce       	rjmp	.-728    	; 0x51da <__fp_nan>
    54b2:	72 c0       	rjmp	.+228    	; 0x5598 <__fp_mpack>

000054b4 <sqrt>:
    54b4:	1a df       	rcall	.-460    	; 0x52ea <__fp_splitA>
    54b6:	d0 f3       	brcs	.-12     	; 0x54ac <sin+0xc>
    54b8:	99 23       	and	r25, r25
    54ba:	d9 f3       	breq	.-10     	; 0x54b2 <sin+0x12>
    54bc:	ce f3       	brts	.-14     	; 0x54b0 <sin+0x10>
    54be:	9f 57       	subi	r25, 0x7F	; 127
    54c0:	55 0b       	sbc	r21, r21
    54c2:	87 ff       	sbrs	r24, 7
    54c4:	77 d0       	rcall	.+238    	; 0x55b4 <__fp_norm2>
    54c6:	00 24       	eor	r0, r0
    54c8:	a0 e6       	ldi	r26, 0x60	; 96
    54ca:	40 ea       	ldi	r20, 0xA0	; 160
    54cc:	90 01       	movw	r18, r0
    54ce:	80 58       	subi	r24, 0x80	; 128
    54d0:	56 95       	lsr	r21
    54d2:	97 95       	ror	r25
    54d4:	28 f4       	brcc	.+10     	; 0x54e0 <sqrt+0x2c>
    54d6:	80 5c       	subi	r24, 0xC0	; 192
    54d8:	66 0f       	add	r22, r22
    54da:	77 1f       	adc	r23, r23
    54dc:	88 1f       	adc	r24, r24
    54de:	20 f0       	brcs	.+8      	; 0x54e8 <sqrt+0x34>
    54e0:	26 17       	cp	r18, r22
    54e2:	37 07       	cpc	r19, r23
    54e4:	48 07       	cpc	r20, r24
    54e6:	30 f4       	brcc	.+12     	; 0x54f4 <sqrt+0x40>
    54e8:	62 1b       	sub	r22, r18
    54ea:	73 0b       	sbc	r23, r19
    54ec:	84 0b       	sbc	r24, r20
    54ee:	20 29       	or	r18, r0
    54f0:	31 29       	or	r19, r1
    54f2:	4a 2b       	or	r20, r26
    54f4:	a6 95       	lsr	r26
    54f6:	17 94       	ror	r1
    54f8:	07 94       	ror	r0
    54fa:	20 25       	eor	r18, r0
    54fc:	31 25       	eor	r19, r1
    54fe:	4a 27       	eor	r20, r26
    5500:	58 f7       	brcc	.-42     	; 0x54d8 <sqrt+0x24>
    5502:	66 0f       	add	r22, r22
    5504:	77 1f       	adc	r23, r23
    5506:	88 1f       	adc	r24, r24
    5508:	20 f0       	brcs	.+8      	; 0x5512 <sqrt+0x5e>
    550a:	26 17       	cp	r18, r22
    550c:	37 07       	cpc	r19, r23
    550e:	48 07       	cpc	r20, r24
    5510:	30 f4       	brcc	.+12     	; 0x551e <sqrt+0x6a>
    5512:	62 0b       	sbc	r22, r18
    5514:	73 0b       	sbc	r23, r19
    5516:	84 0b       	sbc	r24, r20
    5518:	20 0d       	add	r18, r0
    551a:	31 1d       	adc	r19, r1
    551c:	41 1d       	adc	r20, r1
    551e:	a0 95       	com	r26
    5520:	81 f7       	brne	.-32     	; 0x5502 <sqrt+0x4e>
    5522:	b9 01       	movw	r22, r18
    5524:	84 2f       	mov	r24, r20
    5526:	91 58       	subi	r25, 0x81	; 129
    5528:	88 0f       	add	r24, r24
    552a:	96 95       	lsr	r25
    552c:	87 95       	ror	r24
    552e:	08 95       	ret

00005530 <square>:
    5530:	9b 01       	movw	r18, r22
    5532:	ac 01       	movw	r20, r24
    5534:	06 cf       	rjmp	.-500    	; 0x5342 <__mulsf3>
    5536:	19 f4       	brne	.+6      	; 0x553e <square+0xe>
    5538:	0e f0       	brts	.+2      	; 0x553c <square+0xc>
    553a:	49 ce       	rjmp	.-878    	; 0x51ce <__fp_inf>
    553c:	f0 ce       	rjmp	.-544    	; 0x531e <__fp_zero>
    553e:	4d ce       	rjmp	.-870    	; 0x51da <__fp_nan>

00005540 <exp>:
    5540:	d4 de       	rcall	.-600    	; 0x52ea <__fp_splitA>
    5542:	c8 f3       	brcs	.-14     	; 0x5536 <square+0x6>
    5544:	96 38       	cpi	r25, 0x86	; 134
    5546:	c0 f7       	brcc	.-16     	; 0x5538 <square+0x8>
    5548:	07 f8       	bld	r0, 7
    554a:	0f 92       	push	r0
    554c:	e8 94       	clt
    554e:	2b e3       	ldi	r18, 0x3B	; 59
    5550:	3a ea       	ldi	r19, 0xAA	; 170
    5552:	48 eb       	ldi	r20, 0xB8	; 184
    5554:	5f e7       	ldi	r21, 0x7F	; 127
    5556:	03 df       	rcall	.-506    	; 0x535e <__mulsf3_pse>
    5558:	0f 92       	push	r0
    555a:	0f 92       	push	r0
    555c:	0f 92       	push	r0
    555e:	4d b7       	in	r20, 0x3d	; 61
    5560:	5e b7       	in	r21, 0x3e	; 62
    5562:	0f 92       	push	r0
    5564:	ba d0       	rcall	.+372    	; 0x56da <modf>
    5566:	e3 eb       	ldi	r30, 0xB3	; 179
    5568:	f0 e0       	ldi	r31, 0x00	; 0
    556a:	3a de       	rcall	.-908    	; 0x51e0 <__fp_powser>
    556c:	4f 91       	pop	r20
    556e:	5f 91       	pop	r21
    5570:	ef 91       	pop	r30
    5572:	ff 91       	pop	r31
    5574:	e5 95       	asr	r30
    5576:	ee 1f       	adc	r30, r30
    5578:	ff 1f       	adc	r31, r31
    557a:	49 f0       	breq	.+18     	; 0x558e <exp+0x4e>
    557c:	fe 57       	subi	r31, 0x7E	; 126
    557e:	e0 68       	ori	r30, 0x80	; 128
    5580:	44 27       	eor	r20, r20
    5582:	ee 0f       	add	r30, r30
    5584:	44 1f       	adc	r20, r20
    5586:	fa 95       	dec	r31
    5588:	e1 f7       	brne	.-8      	; 0x5582 <exp+0x42>
    558a:	41 95       	neg	r20
    558c:	55 0b       	sbc	r21, r21
    558e:	2c d0       	rcall	.+88     	; 0x55e8 <ldexp>
    5590:	0f 90       	pop	r0
    5592:	07 fe       	sbrs	r0, 7
    5594:	cf ce       	rjmp	.-610    	; 0x5334 <inverse>
    5596:	08 95       	ret

00005598 <__fp_mpack>:
    5598:	9f 3f       	cpi	r25, 0xFF	; 255
    559a:	31 f0       	breq	.+12     	; 0x55a8 <__fp_mpack_finite+0xc>

0000559c <__fp_mpack_finite>:
    559c:	91 50       	subi	r25, 0x01	; 1
    559e:	20 f4       	brcc	.+8      	; 0x55a8 <__fp_mpack_finite+0xc>
    55a0:	87 95       	ror	r24
    55a2:	77 95       	ror	r23
    55a4:	67 95       	ror	r22
    55a6:	b7 95       	ror	r27
    55a8:	88 0f       	add	r24, r24
    55aa:	91 1d       	adc	r25, r1
    55ac:	96 95       	lsr	r25
    55ae:	87 95       	ror	r24
    55b0:	97 f9       	bld	r25, 7
    55b2:	08 95       	ret

000055b4 <__fp_norm2>:
    55b4:	91 50       	subi	r25, 0x01	; 1
    55b6:	50 40       	sbci	r21, 0x00	; 0
    55b8:	66 0f       	add	r22, r22
    55ba:	77 1f       	adc	r23, r23
    55bc:	88 1f       	adc	r24, r24
    55be:	d2 f7       	brpl	.-12     	; 0x55b4 <__fp_norm2>
    55c0:	08 95       	ret

000055c2 <__fp_powsodd>:
    55c2:	9f 93       	push	r25
    55c4:	8f 93       	push	r24
    55c6:	7f 93       	push	r23
    55c8:	6f 93       	push	r22
    55ca:	ff 93       	push	r31
    55cc:	ef 93       	push	r30
    55ce:	9b 01       	movw	r18, r22
    55d0:	ac 01       	movw	r20, r24
    55d2:	b7 de       	rcall	.-658    	; 0x5342 <__mulsf3>
    55d4:	ef 91       	pop	r30
    55d6:	ff 91       	pop	r31
    55d8:	03 de       	rcall	.-1018   	; 0x51e0 <__fp_powser>
    55da:	2f 91       	pop	r18
    55dc:	3f 91       	pop	r19
    55de:	4f 91       	pop	r20
    55e0:	5f 91       	pop	r21
    55e2:	af ce       	rjmp	.-674    	; 0x5342 <__mulsf3>
    55e4:	f4 cd       	rjmp	.-1048   	; 0x51ce <__fp_inf>
    55e6:	d8 cf       	rjmp	.-80     	; 0x5598 <__fp_mpack>

000055e8 <ldexp>:
    55e8:	80 de       	rcall	.-768    	; 0x52ea <__fp_splitA>
    55ea:	e8 f3       	brcs	.-6      	; 0x55e6 <__fp_powsodd+0x24>
    55ec:	99 23       	and	r25, r25
    55ee:	d9 f3       	breq	.-10     	; 0x55e6 <__fp_powsodd+0x24>
    55f0:	94 0f       	add	r25, r20
    55f2:	51 1d       	adc	r21, r1
    55f4:	bb f3       	brvs	.-18     	; 0x55e4 <__fp_powsodd+0x22>
    55f6:	91 50       	subi	r25, 0x01	; 1
    55f8:	50 40       	sbci	r21, 0x00	; 0
    55fa:	94 f0       	brlt	.+36     	; 0x5620 <ldexp+0x38>
    55fc:	59 f0       	breq	.+22     	; 0x5614 <ldexp+0x2c>
    55fe:	88 23       	and	r24, r24
    5600:	32 f0       	brmi	.+12     	; 0x560e <ldexp+0x26>
    5602:	66 0f       	add	r22, r22
    5604:	77 1f       	adc	r23, r23
    5606:	88 1f       	adc	r24, r24
    5608:	91 50       	subi	r25, 0x01	; 1
    560a:	50 40       	sbci	r21, 0x00	; 0
    560c:	c1 f7       	brne	.-16     	; 0x55fe <ldexp+0x16>
    560e:	9e 3f       	cpi	r25, 0xFE	; 254
    5610:	51 05       	cpc	r21, r1
    5612:	44 f7       	brge	.-48     	; 0x55e4 <__fp_powsodd+0x22>
    5614:	88 0f       	add	r24, r24
    5616:	91 1d       	adc	r25, r1
    5618:	96 95       	lsr	r25
    561a:	87 95       	ror	r24
    561c:	97 f9       	bld	r25, 7
    561e:	08 95       	ret
    5620:	5f 3f       	cpi	r21, 0xFF	; 255
    5622:	ac f0       	brlt	.+42     	; 0x564e <ldexp+0x66>
    5624:	98 3e       	cpi	r25, 0xE8	; 232
    5626:	9c f0       	brlt	.+38     	; 0x564e <ldexp+0x66>
    5628:	bb 27       	eor	r27, r27
    562a:	86 95       	lsr	r24
    562c:	77 95       	ror	r23
    562e:	67 95       	ror	r22
    5630:	b7 95       	ror	r27
    5632:	08 f4       	brcc	.+2      	; 0x5636 <ldexp+0x4e>
    5634:	b1 60       	ori	r27, 0x01	; 1
    5636:	93 95       	inc	r25
    5638:	c1 f7       	brne	.-16     	; 0x562a <ldexp+0x42>
    563a:	bb 0f       	add	r27, r27
    563c:	58 f7       	brcc	.-42     	; 0x5614 <ldexp+0x2c>
    563e:	11 f4       	brne	.+4      	; 0x5644 <ldexp+0x5c>
    5640:	60 ff       	sbrs	r22, 0
    5642:	e8 cf       	rjmp	.-48     	; 0x5614 <ldexp+0x2c>
    5644:	6f 5f       	subi	r22, 0xFF	; 255
    5646:	7f 4f       	sbci	r23, 0xFF	; 255
    5648:	8f 4f       	sbci	r24, 0xFF	; 255
    564a:	9f 4f       	sbci	r25, 0xFF	; 255
    564c:	e3 cf       	rjmp	.-58     	; 0x5614 <ldexp+0x2c>
    564e:	68 ce       	rjmp	.-816    	; 0x5320 <__fp_szero>
    5650:	0e f0       	brts	.+2      	; 0x5654 <ldexp+0x6c>
    5652:	a2 cf       	rjmp	.-188    	; 0x5598 <__fp_mpack>
    5654:	c2 cd       	rjmp	.-1148   	; 0x51da <__fp_nan>
    5656:	68 94       	set
    5658:	ba cd       	rjmp	.-1164   	; 0x51ce <__fp_inf>

0000565a <log>:
    565a:	47 de       	rcall	.-882    	; 0x52ea <__fp_splitA>
    565c:	c8 f3       	brcs	.-14     	; 0x5650 <ldexp+0x68>
    565e:	99 23       	and	r25, r25
    5660:	d1 f3       	breq	.-12     	; 0x5656 <ldexp+0x6e>
    5662:	c6 f3       	brts	.-16     	; 0x5654 <ldexp+0x6c>
    5664:	df 93       	push	r29
    5666:	cf 93       	push	r28
    5668:	1f 93       	push	r17
    566a:	0f 93       	push	r16
    566c:	ff 92       	push	r15
    566e:	c9 2f       	mov	r28, r25
    5670:	dd 27       	eor	r29, r29
    5672:	88 23       	and	r24, r24
    5674:	2a f0       	brmi	.+10     	; 0x5680 <log+0x26>
    5676:	21 97       	sbiw	r28, 0x01	; 1
    5678:	66 0f       	add	r22, r22
    567a:	77 1f       	adc	r23, r23
    567c:	88 1f       	adc	r24, r24
    567e:	da f7       	brpl	.-10     	; 0x5676 <log+0x1c>
    5680:	20 e0       	ldi	r18, 0x00	; 0
    5682:	30 e0       	ldi	r19, 0x00	; 0
    5684:	40 e8       	ldi	r20, 0x80	; 128
    5686:	5f eb       	ldi	r21, 0xBF	; 191
    5688:	9f e3       	ldi	r25, 0x3F	; 63
    568a:	88 39       	cpi	r24, 0x98	; 152
    568c:	20 f0       	brcs	.+8      	; 0x5696 <log+0x3c>
    568e:	80 3e       	cpi	r24, 0xE0	; 224
    5690:	30 f0       	brcs	.+12     	; 0x569e <log+0x44>
    5692:	21 96       	adiw	r28, 0x01	; 1
    5694:	8f 77       	andi	r24, 0x7F	; 127
    5696:	d4 db       	rcall	.-2136   	; 0x4e40 <__addsf3>
    5698:	eb ed       	ldi	r30, 0xDB	; 219
    569a:	f0 e0       	ldi	r31, 0x00	; 0
    569c:	03 c0       	rjmp	.+6      	; 0x56a4 <log+0x4a>
    569e:	d0 db       	rcall	.-2144   	; 0x4e40 <__addsf3>
    56a0:	e8 e0       	ldi	r30, 0x08	; 8
    56a2:	f1 e0       	ldi	r31, 0x01	; 1
    56a4:	9d dd       	rcall	.-1222   	; 0x51e0 <__fp_powser>
    56a6:	8b 01       	movw	r16, r22
    56a8:	be 01       	movw	r22, r28
    56aa:	ec 01       	movw	r28, r24
    56ac:	fb 2e       	mov	r15, r27
    56ae:	6f 57       	subi	r22, 0x7F	; 127
    56b0:	71 09       	sbc	r23, r1
    56b2:	75 95       	asr	r23
    56b4:	77 1f       	adc	r23, r23
    56b6:	88 0b       	sbc	r24, r24
    56b8:	99 0b       	sbc	r25, r25
    56ba:	2a dd       	rcall	.-1452   	; 0x5110 <__floatsisf>
    56bc:	28 e1       	ldi	r18, 0x18	; 24
    56be:	32 e7       	ldi	r19, 0x72	; 114
    56c0:	41 e3       	ldi	r20, 0x31	; 49
    56c2:	5f e3       	ldi	r21, 0x3F	; 63
    56c4:	4a de       	rcall	.-876    	; 0x535a <__mulsf3x>
    56c6:	af 2d       	mov	r26, r15
    56c8:	98 01       	movw	r18, r16
    56ca:	ae 01       	movw	r20, r28
    56cc:	ff 90       	pop	r15
    56ce:	0f 91       	pop	r16
    56d0:	1f 91       	pop	r17
    56d2:	cf 91       	pop	r28
    56d4:	df 91       	pop	r29
    56d6:	c5 db       	rcall	.-2166   	; 0x4e62 <__addsf3x>
    56d8:	de cd       	rjmp	.-1092   	; 0x5296 <__fp_round>

000056da <modf>:
    56da:	fa 01       	movw	r30, r20
    56dc:	dc 01       	movw	r26, r24
    56de:	aa 0f       	add	r26, r26
    56e0:	bb 1f       	adc	r27, r27
    56e2:	9b 01       	movw	r18, r22
    56e4:	ac 01       	movw	r20, r24
    56e6:	bf 57       	subi	r27, 0x7F	; 127
    56e8:	28 f4       	brcc	.+10     	; 0x56f4 <modf+0x1a>
    56ea:	22 27       	eor	r18, r18
    56ec:	33 27       	eor	r19, r19
    56ee:	44 27       	eor	r20, r20
    56f0:	50 78       	andi	r21, 0x80	; 128
    56f2:	1f c0       	rjmp	.+62     	; 0x5732 <modf+0x58>
    56f4:	b7 51       	subi	r27, 0x17	; 23
    56f6:	88 f4       	brcc	.+34     	; 0x571a <modf+0x40>
    56f8:	ab 2f       	mov	r26, r27
    56fa:	00 24       	eor	r0, r0
    56fc:	46 95       	lsr	r20
    56fe:	37 95       	ror	r19
    5700:	27 95       	ror	r18
    5702:	01 1c       	adc	r0, r1
    5704:	a3 95       	inc	r26
    5706:	d2 f3       	brmi	.-12     	; 0x56fc <modf+0x22>
    5708:	00 20       	and	r0, r0
    570a:	69 f0       	breq	.+26     	; 0x5726 <modf+0x4c>
    570c:	22 0f       	add	r18, r18
    570e:	33 1f       	adc	r19, r19
    5710:	44 1f       	adc	r20, r20
    5712:	b3 95       	inc	r27
    5714:	da f3       	brmi	.-10     	; 0x570c <modf+0x32>
    5716:	0d d0       	rcall	.+26     	; 0x5732 <modf+0x58>
    5718:	92 cb       	rjmp	.-2268   	; 0x4e3e <__subsf3>
    571a:	61 30       	cpi	r22, 0x01	; 1
    571c:	71 05       	cpc	r23, r1
    571e:	a0 e8       	ldi	r26, 0x80	; 128
    5720:	8a 07       	cpc	r24, r26
    5722:	b9 46       	sbci	r27, 0x69	; 105
    5724:	30 f4       	brcc	.+12     	; 0x5732 <modf+0x58>
    5726:	9b 01       	movw	r18, r22
    5728:	ac 01       	movw	r20, r24
    572a:	66 27       	eor	r22, r22
    572c:	77 27       	eor	r23, r23
    572e:	88 27       	eor	r24, r24
    5730:	90 78       	andi	r25, 0x80	; 128
    5732:	30 96       	adiw	r30, 0x00	; 0
    5734:	21 f0       	breq	.+8      	; 0x573e <modf+0x64>
    5736:	20 83       	st	Z, r18
    5738:	31 83       	std	Z+1, r19	; 0x01
    573a:	42 83       	std	Z+2, r20	; 0x02
    573c:	53 83       	std	Z+3, r21	; 0x03
    573e:	08 95       	ret

00005740 <__mulsi3>:
    5740:	62 9f       	mul	r22, r18
    5742:	d0 01       	movw	r26, r0
    5744:	73 9f       	mul	r23, r19
    5746:	f0 01       	movw	r30, r0
    5748:	82 9f       	mul	r24, r18
    574a:	e0 0d       	add	r30, r0
    574c:	f1 1d       	adc	r31, r1
    574e:	64 9f       	mul	r22, r20
    5750:	e0 0d       	add	r30, r0
    5752:	f1 1d       	adc	r31, r1
    5754:	92 9f       	mul	r25, r18
    5756:	f0 0d       	add	r31, r0
    5758:	83 9f       	mul	r24, r19
    575a:	f0 0d       	add	r31, r0
    575c:	74 9f       	mul	r23, r20
    575e:	f0 0d       	add	r31, r0
    5760:	65 9f       	mul	r22, r21
    5762:	f0 0d       	add	r31, r0
    5764:	99 27       	eor	r25, r25
    5766:	72 9f       	mul	r23, r18
    5768:	b0 0d       	add	r27, r0
    576a:	e1 1d       	adc	r30, r1
    576c:	f9 1f       	adc	r31, r25
    576e:	63 9f       	mul	r22, r19
    5770:	b0 0d       	add	r27, r0
    5772:	e1 1d       	adc	r30, r1
    5774:	f9 1f       	adc	r31, r25
    5776:	bd 01       	movw	r22, r26
    5778:	cf 01       	movw	r24, r30
    577a:	11 24       	eor	r1, r1
    577c:	08 95       	ret

0000577e <__divmodhi4>:
    577e:	97 fb       	bst	r25, 7
    5780:	09 2e       	mov	r0, r25
    5782:	07 26       	eor	r0, r23
    5784:	0a d0       	rcall	.+20     	; 0x579a <__divmodhi4_neg1>
    5786:	77 fd       	sbrc	r23, 7
    5788:	04 d0       	rcall	.+8      	; 0x5792 <__divmodhi4_neg2>
    578a:	49 d0       	rcall	.+146    	; 0x581e <__udivmodhi4>
    578c:	06 d0       	rcall	.+12     	; 0x579a <__divmodhi4_neg1>
    578e:	00 20       	and	r0, r0
    5790:	1a f4       	brpl	.+6      	; 0x5798 <__divmodhi4_exit>

00005792 <__divmodhi4_neg2>:
    5792:	70 95       	com	r23
    5794:	61 95       	neg	r22
    5796:	7f 4f       	sbci	r23, 0xFF	; 255

00005798 <__divmodhi4_exit>:
    5798:	08 95       	ret

0000579a <__divmodhi4_neg1>:
    579a:	f6 f7       	brtc	.-4      	; 0x5798 <__divmodhi4_exit>
    579c:	90 95       	com	r25
    579e:	81 95       	neg	r24
    57a0:	9f 4f       	sbci	r25, 0xFF	; 255
    57a2:	08 95       	ret

000057a4 <__udivmodsi4>:
    57a4:	a1 e2       	ldi	r26, 0x21	; 33
    57a6:	1a 2e       	mov	r1, r26
    57a8:	aa 1b       	sub	r26, r26
    57aa:	bb 1b       	sub	r27, r27
    57ac:	fd 01       	movw	r30, r26
    57ae:	0d c0       	rjmp	.+26     	; 0x57ca <__udivmodsi4_ep>

000057b0 <__udivmodsi4_loop>:
    57b0:	aa 1f       	adc	r26, r26
    57b2:	bb 1f       	adc	r27, r27
    57b4:	ee 1f       	adc	r30, r30
    57b6:	ff 1f       	adc	r31, r31
    57b8:	a2 17       	cp	r26, r18
    57ba:	b3 07       	cpc	r27, r19
    57bc:	e4 07       	cpc	r30, r20
    57be:	f5 07       	cpc	r31, r21
    57c0:	20 f0       	brcs	.+8      	; 0x57ca <__udivmodsi4_ep>
    57c2:	a2 1b       	sub	r26, r18
    57c4:	b3 0b       	sbc	r27, r19
    57c6:	e4 0b       	sbc	r30, r20
    57c8:	f5 0b       	sbc	r31, r21

000057ca <__udivmodsi4_ep>:
    57ca:	66 1f       	adc	r22, r22
    57cc:	77 1f       	adc	r23, r23
    57ce:	88 1f       	adc	r24, r24
    57d0:	99 1f       	adc	r25, r25
    57d2:	1a 94       	dec	r1
    57d4:	69 f7       	brne	.-38     	; 0x57b0 <__udivmodsi4_loop>
    57d6:	60 95       	com	r22
    57d8:	70 95       	com	r23
    57da:	80 95       	com	r24
    57dc:	90 95       	com	r25
    57de:	9b 01       	movw	r18, r22
    57e0:	ac 01       	movw	r20, r24
    57e2:	bd 01       	movw	r22, r26
    57e4:	cf 01       	movw	r24, r30
    57e6:	08 95       	ret

000057e8 <__divmodsi4>:
    57e8:	97 fb       	bst	r25, 7
    57ea:	09 2e       	mov	r0, r25
    57ec:	05 26       	eor	r0, r21
    57ee:	0e d0       	rcall	.+28     	; 0x580c <__divmodsi4_neg1>
    57f0:	57 fd       	sbrc	r21, 7
    57f2:	04 d0       	rcall	.+8      	; 0x57fc <__divmodsi4_neg2>
    57f4:	d7 df       	rcall	.-82     	; 0x57a4 <__udivmodsi4>
    57f6:	0a d0       	rcall	.+20     	; 0x580c <__divmodsi4_neg1>
    57f8:	00 1c       	adc	r0, r0
    57fa:	38 f4       	brcc	.+14     	; 0x580a <__divmodsi4_exit>

000057fc <__divmodsi4_neg2>:
    57fc:	50 95       	com	r21
    57fe:	40 95       	com	r20
    5800:	30 95       	com	r19
    5802:	21 95       	neg	r18
    5804:	3f 4f       	sbci	r19, 0xFF	; 255
    5806:	4f 4f       	sbci	r20, 0xFF	; 255
    5808:	5f 4f       	sbci	r21, 0xFF	; 255

0000580a <__divmodsi4_exit>:
    580a:	08 95       	ret

0000580c <__divmodsi4_neg1>:
    580c:	f6 f7       	brtc	.-4      	; 0x580a <__divmodsi4_exit>
    580e:	90 95       	com	r25
    5810:	80 95       	com	r24
    5812:	70 95       	com	r23
    5814:	61 95       	neg	r22
    5816:	7f 4f       	sbci	r23, 0xFF	; 255
    5818:	8f 4f       	sbci	r24, 0xFF	; 255
    581a:	9f 4f       	sbci	r25, 0xFF	; 255
    581c:	08 95       	ret

0000581e <__udivmodhi4>:
    581e:	aa 1b       	sub	r26, r26
    5820:	bb 1b       	sub	r27, r27
    5822:	51 e1       	ldi	r21, 0x11	; 17
    5824:	07 c0       	rjmp	.+14     	; 0x5834 <__udivmodhi4_ep>

00005826 <__udivmodhi4_loop>:
    5826:	aa 1f       	adc	r26, r26
    5828:	bb 1f       	adc	r27, r27
    582a:	a6 17       	cp	r26, r22
    582c:	b7 07       	cpc	r27, r23
    582e:	10 f0       	brcs	.+4      	; 0x5834 <__udivmodhi4_ep>
    5830:	a6 1b       	sub	r26, r22
    5832:	b7 0b       	sbc	r27, r23

00005834 <__udivmodhi4_ep>:
    5834:	88 1f       	adc	r24, r24
    5836:	99 1f       	adc	r25, r25
    5838:	5a 95       	dec	r21
    583a:	a9 f7       	brne	.-22     	; 0x5826 <__udivmodhi4_loop>
    583c:	80 95       	com	r24
    583e:	90 95       	com	r25
    5840:	bc 01       	movw	r22, r24
    5842:	cd 01       	movw	r24, r26
    5844:	08 95       	ret

00005846 <sprintf>:
    5846:	ae e0       	ldi	r26, 0x0E	; 14
    5848:	b0 e0       	ldi	r27, 0x00	; 0
    584a:	e9 e2       	ldi	r30, 0x29	; 41
    584c:	fc e2       	ldi	r31, 0x2C	; 44
    584e:	0c 94 0a 2f 	jmp	0x5e14	; 0x5e14 <__prologue_saves__+0x1c>
    5852:	0d 89       	ldd	r16, Y+21	; 0x15
    5854:	1e 89       	ldd	r17, Y+22	; 0x16
    5856:	86 e0       	ldi	r24, 0x06	; 6
    5858:	8c 83       	std	Y+4, r24	; 0x04
    585a:	1a 83       	std	Y+2, r17	; 0x02
    585c:	09 83       	std	Y+1, r16	; 0x01
    585e:	8f ef       	ldi	r24, 0xFF	; 255
    5860:	9f e7       	ldi	r25, 0x7F	; 127
    5862:	9e 83       	std	Y+6, r25	; 0x06
    5864:	8d 83       	std	Y+5, r24	; 0x05
    5866:	ae 01       	movw	r20, r28
    5868:	47 5e       	subi	r20, 0xE7	; 231
    586a:	5f 4f       	sbci	r21, 0xFF	; 255
    586c:	ce 01       	movw	r24, r28
    586e:	01 96       	adiw	r24, 0x01	; 1
    5870:	6f 89       	ldd	r22, Y+23	; 0x17
    5872:	78 8d       	ldd	r23, Y+24	; 0x18
    5874:	0e 94 45 2c 	call	0x588a	; 0x588a <vfprintf>
    5878:	ef 81       	ldd	r30, Y+7	; 0x07
    587a:	f8 85       	ldd	r31, Y+8	; 0x08
    587c:	e0 0f       	add	r30, r16
    587e:	f1 1f       	adc	r31, r17
    5880:	10 82       	st	Z, r1
    5882:	2e 96       	adiw	r28, 0x0e	; 14
    5884:	e4 e0       	ldi	r30, 0x04	; 4
    5886:	0c 94 26 2f 	jmp	0x5e4c	; 0x5e4c <__epilogue_restores__+0x1c>

0000588a <vfprintf>:
    588a:	ad e0       	ldi	r26, 0x0D	; 13
    588c:	b0 e0       	ldi	r27, 0x00	; 0
    588e:	eb e4       	ldi	r30, 0x4B	; 75
    5890:	fc e2       	ldi	r31, 0x2C	; 44
    5892:	0c 94 fc 2e 	jmp	0x5df8	; 0x5df8 <__prologue_saves__>
    5896:	3c 01       	movw	r6, r24
    5898:	7d 87       	std	Y+13, r23	; 0x0d
    589a:	6c 87       	std	Y+12, r22	; 0x0c
    589c:	5a 01       	movw	r10, r20
    589e:	fc 01       	movw	r30, r24
    58a0:	17 82       	std	Z+7, r1	; 0x07
    58a2:	16 82       	std	Z+6, r1	; 0x06
    58a4:	83 81       	ldd	r24, Z+3	; 0x03
    58a6:	81 ff       	sbrs	r24, 1
    58a8:	c8 c1       	rjmp	.+912    	; 0x5c3a <vfprintf+0x3b0>
    58aa:	2e 01       	movw	r4, r28
    58ac:	08 94       	sec
    58ae:	41 1c       	adc	r4, r1
    58b0:	51 1c       	adc	r5, r1
    58b2:	f3 01       	movw	r30, r6
    58b4:	93 81       	ldd	r25, Z+3	; 0x03
    58b6:	ec 85       	ldd	r30, Y+12	; 0x0c
    58b8:	fd 85       	ldd	r31, Y+13	; 0x0d
    58ba:	93 fd       	sbrc	r25, 3
    58bc:	85 91       	lpm	r24, Z+
    58be:	93 ff       	sbrs	r25, 3
    58c0:	81 91       	ld	r24, Z+
    58c2:	fd 87       	std	Y+13, r31	; 0x0d
    58c4:	ec 87       	std	Y+12, r30	; 0x0c
    58c6:	88 23       	and	r24, r24
    58c8:	09 f4       	brne	.+2      	; 0x58cc <vfprintf+0x42>
    58ca:	b3 c1       	rjmp	.+870    	; 0x5c32 <vfprintf+0x3a8>
    58cc:	85 32       	cpi	r24, 0x25	; 37
    58ce:	41 f4       	brne	.+16     	; 0x58e0 <vfprintf+0x56>
    58d0:	93 fd       	sbrc	r25, 3
    58d2:	85 91       	lpm	r24, Z+
    58d4:	93 ff       	sbrs	r25, 3
    58d6:	81 91       	ld	r24, Z+
    58d8:	fd 87       	std	Y+13, r31	; 0x0d
    58da:	ec 87       	std	Y+12, r30	; 0x0c
    58dc:	85 32       	cpi	r24, 0x25	; 37
    58de:	29 f4       	brne	.+10     	; 0x58ea <vfprintf+0x60>
    58e0:	90 e0       	ldi	r25, 0x00	; 0
    58e2:	b3 01       	movw	r22, r6
    58e4:	0e 94 62 2e 	call	0x5cc4	; 0x5cc4 <fputc>
    58e8:	e4 cf       	rjmp	.-56     	; 0x58b2 <vfprintf+0x28>
    58ea:	ff 24       	eor	r15, r15
    58ec:	ee 24       	eor	r14, r14
    58ee:	10 e0       	ldi	r17, 0x00	; 0
    58f0:	10 32       	cpi	r17, 0x20	; 32
    58f2:	b0 f4       	brcc	.+44     	; 0x5920 <vfprintf+0x96>
    58f4:	8b 32       	cpi	r24, 0x2B	; 43
    58f6:	69 f0       	breq	.+26     	; 0x5912 <vfprintf+0x88>
    58f8:	8c 32       	cpi	r24, 0x2C	; 44
    58fa:	28 f4       	brcc	.+10     	; 0x5906 <vfprintf+0x7c>
    58fc:	80 32       	cpi	r24, 0x20	; 32
    58fe:	51 f0       	breq	.+20     	; 0x5914 <vfprintf+0x8a>
    5900:	83 32       	cpi	r24, 0x23	; 35
    5902:	71 f4       	brne	.+28     	; 0x5920 <vfprintf+0x96>
    5904:	0b c0       	rjmp	.+22     	; 0x591c <vfprintf+0x92>
    5906:	8d 32       	cpi	r24, 0x2D	; 45
    5908:	39 f0       	breq	.+14     	; 0x5918 <vfprintf+0x8e>
    590a:	80 33       	cpi	r24, 0x30	; 48
    590c:	49 f4       	brne	.+18     	; 0x5920 <vfprintf+0x96>
    590e:	11 60       	ori	r17, 0x01	; 1
    5910:	2c c0       	rjmp	.+88     	; 0x596a <vfprintf+0xe0>
    5912:	12 60       	ori	r17, 0x02	; 2
    5914:	14 60       	ori	r17, 0x04	; 4
    5916:	29 c0       	rjmp	.+82     	; 0x596a <vfprintf+0xe0>
    5918:	18 60       	ori	r17, 0x08	; 8
    591a:	27 c0       	rjmp	.+78     	; 0x596a <vfprintf+0xe0>
    591c:	10 61       	ori	r17, 0x10	; 16
    591e:	25 c0       	rjmp	.+74     	; 0x596a <vfprintf+0xe0>
    5920:	17 fd       	sbrc	r17, 7
    5922:	2e c0       	rjmp	.+92     	; 0x5980 <vfprintf+0xf6>
    5924:	28 2f       	mov	r18, r24
    5926:	20 53       	subi	r18, 0x30	; 48
    5928:	2a 30       	cpi	r18, 0x0A	; 10
    592a:	98 f4       	brcc	.+38     	; 0x5952 <vfprintf+0xc8>
    592c:	16 ff       	sbrs	r17, 6
    592e:	08 c0       	rjmp	.+16     	; 0x5940 <vfprintf+0xb6>
    5930:	8f 2d       	mov	r24, r15
    5932:	88 0f       	add	r24, r24
    5934:	f8 2e       	mov	r15, r24
    5936:	ff 0c       	add	r15, r15
    5938:	ff 0c       	add	r15, r15
    593a:	f8 0e       	add	r15, r24
    593c:	f2 0e       	add	r15, r18
    593e:	15 c0       	rjmp	.+42     	; 0x596a <vfprintf+0xe0>
    5940:	8e 2d       	mov	r24, r14
    5942:	88 0f       	add	r24, r24
    5944:	e8 2e       	mov	r14, r24
    5946:	ee 0c       	add	r14, r14
    5948:	ee 0c       	add	r14, r14
    594a:	e8 0e       	add	r14, r24
    594c:	e2 0e       	add	r14, r18
    594e:	10 62       	ori	r17, 0x20	; 32
    5950:	0c c0       	rjmp	.+24     	; 0x596a <vfprintf+0xe0>
    5952:	8e 32       	cpi	r24, 0x2E	; 46
    5954:	21 f4       	brne	.+8      	; 0x595e <vfprintf+0xd4>
    5956:	16 fd       	sbrc	r17, 6
    5958:	6c c1       	rjmp	.+728    	; 0x5c32 <vfprintf+0x3a8>
    595a:	10 64       	ori	r17, 0x40	; 64
    595c:	06 c0       	rjmp	.+12     	; 0x596a <vfprintf+0xe0>
    595e:	8c 36       	cpi	r24, 0x6C	; 108
    5960:	11 f4       	brne	.+4      	; 0x5966 <vfprintf+0xdc>
    5962:	10 68       	ori	r17, 0x80	; 128
    5964:	02 c0       	rjmp	.+4      	; 0x596a <vfprintf+0xe0>
    5966:	88 36       	cpi	r24, 0x68	; 104
    5968:	59 f4       	brne	.+22     	; 0x5980 <vfprintf+0xf6>
    596a:	ec 85       	ldd	r30, Y+12	; 0x0c
    596c:	fd 85       	ldd	r31, Y+13	; 0x0d
    596e:	93 fd       	sbrc	r25, 3
    5970:	85 91       	lpm	r24, Z+
    5972:	93 ff       	sbrs	r25, 3
    5974:	81 91       	ld	r24, Z+
    5976:	fd 87       	std	Y+13, r31	; 0x0d
    5978:	ec 87       	std	Y+12, r30	; 0x0c
    597a:	88 23       	and	r24, r24
    597c:	09 f0       	breq	.+2      	; 0x5980 <vfprintf+0xf6>
    597e:	b8 cf       	rjmp	.-144    	; 0x58f0 <vfprintf+0x66>
    5980:	98 2f       	mov	r25, r24
    5982:	95 54       	subi	r25, 0x45	; 69
    5984:	93 30       	cpi	r25, 0x03	; 3
    5986:	18 f0       	brcs	.+6      	; 0x598e <vfprintf+0x104>
    5988:	90 52       	subi	r25, 0x20	; 32
    598a:	93 30       	cpi	r25, 0x03	; 3
    598c:	38 f4       	brcc	.+14     	; 0x599c <vfprintf+0x112>
    598e:	24 e0       	ldi	r18, 0x04	; 4
    5990:	30 e0       	ldi	r19, 0x00	; 0
    5992:	a2 0e       	add	r10, r18
    5994:	b3 1e       	adc	r11, r19
    5996:	3f e3       	ldi	r19, 0x3F	; 63
    5998:	39 83       	std	Y+1, r19	; 0x01
    599a:	0f c0       	rjmp	.+30     	; 0x59ba <vfprintf+0x130>
    599c:	83 36       	cpi	r24, 0x63	; 99
    599e:	31 f0       	breq	.+12     	; 0x59ac <vfprintf+0x122>
    59a0:	83 37       	cpi	r24, 0x73	; 115
    59a2:	81 f0       	breq	.+32     	; 0x59c4 <vfprintf+0x13a>
    59a4:	83 35       	cpi	r24, 0x53	; 83
    59a6:	09 f0       	breq	.+2      	; 0x59aa <vfprintf+0x120>
    59a8:	5a c0       	rjmp	.+180    	; 0x5a5e <vfprintf+0x1d4>
    59aa:	22 c0       	rjmp	.+68     	; 0x59f0 <vfprintf+0x166>
    59ac:	f5 01       	movw	r30, r10
    59ae:	80 81       	ld	r24, Z
    59b0:	89 83       	std	Y+1, r24	; 0x01
    59b2:	22 e0       	ldi	r18, 0x02	; 2
    59b4:	30 e0       	ldi	r19, 0x00	; 0
    59b6:	a2 0e       	add	r10, r18
    59b8:	b3 1e       	adc	r11, r19
    59ba:	21 e0       	ldi	r18, 0x01	; 1
    59bc:	c2 2e       	mov	r12, r18
    59be:	d1 2c       	mov	r13, r1
    59c0:	42 01       	movw	r8, r4
    59c2:	14 c0       	rjmp	.+40     	; 0x59ec <vfprintf+0x162>
    59c4:	92 e0       	ldi	r25, 0x02	; 2
    59c6:	29 2e       	mov	r2, r25
    59c8:	31 2c       	mov	r3, r1
    59ca:	2a 0c       	add	r2, r10
    59cc:	3b 1c       	adc	r3, r11
    59ce:	f5 01       	movw	r30, r10
    59d0:	80 80       	ld	r8, Z
    59d2:	91 80       	ldd	r9, Z+1	; 0x01
    59d4:	16 ff       	sbrs	r17, 6
    59d6:	03 c0       	rjmp	.+6      	; 0x59de <vfprintf+0x154>
    59d8:	6f 2d       	mov	r22, r15
    59da:	70 e0       	ldi	r23, 0x00	; 0
    59dc:	02 c0       	rjmp	.+4      	; 0x59e2 <vfprintf+0x158>
    59de:	6f ef       	ldi	r22, 0xFF	; 255
    59e0:	7f ef       	ldi	r23, 0xFF	; 255
    59e2:	c4 01       	movw	r24, r8
    59e4:	0e 94 57 2e 	call	0x5cae	; 0x5cae <strnlen>
    59e8:	6c 01       	movw	r12, r24
    59ea:	51 01       	movw	r10, r2
    59ec:	1f 77       	andi	r17, 0x7F	; 127
    59ee:	15 c0       	rjmp	.+42     	; 0x5a1a <vfprintf+0x190>
    59f0:	82 e0       	ldi	r24, 0x02	; 2
    59f2:	28 2e       	mov	r2, r24
    59f4:	31 2c       	mov	r3, r1
    59f6:	2a 0c       	add	r2, r10
    59f8:	3b 1c       	adc	r3, r11
    59fa:	f5 01       	movw	r30, r10
    59fc:	80 80       	ld	r8, Z
    59fe:	91 80       	ldd	r9, Z+1	; 0x01
    5a00:	16 ff       	sbrs	r17, 6
    5a02:	03 c0       	rjmp	.+6      	; 0x5a0a <vfprintf+0x180>
    5a04:	6f 2d       	mov	r22, r15
    5a06:	70 e0       	ldi	r23, 0x00	; 0
    5a08:	02 c0       	rjmp	.+4      	; 0x5a0e <vfprintf+0x184>
    5a0a:	6f ef       	ldi	r22, 0xFF	; 255
    5a0c:	7f ef       	ldi	r23, 0xFF	; 255
    5a0e:	c4 01       	movw	r24, r8
    5a10:	0e 94 4c 2e 	call	0x5c98	; 0x5c98 <strnlen_P>
    5a14:	6c 01       	movw	r12, r24
    5a16:	10 68       	ori	r17, 0x80	; 128
    5a18:	51 01       	movw	r10, r2
    5a1a:	13 fd       	sbrc	r17, 3
    5a1c:	1c c0       	rjmp	.+56     	; 0x5a56 <vfprintf+0x1cc>
    5a1e:	06 c0       	rjmp	.+12     	; 0x5a2c <vfprintf+0x1a2>
    5a20:	80 e2       	ldi	r24, 0x20	; 32
    5a22:	90 e0       	ldi	r25, 0x00	; 0
    5a24:	b3 01       	movw	r22, r6
    5a26:	0e 94 62 2e 	call	0x5cc4	; 0x5cc4 <fputc>
    5a2a:	ea 94       	dec	r14
    5a2c:	8e 2d       	mov	r24, r14
    5a2e:	90 e0       	ldi	r25, 0x00	; 0
    5a30:	c8 16       	cp	r12, r24
    5a32:	d9 06       	cpc	r13, r25
    5a34:	a8 f3       	brcs	.-22     	; 0x5a20 <vfprintf+0x196>
    5a36:	0f c0       	rjmp	.+30     	; 0x5a56 <vfprintf+0x1cc>
    5a38:	f4 01       	movw	r30, r8
    5a3a:	17 fd       	sbrc	r17, 7
    5a3c:	85 91       	lpm	r24, Z+
    5a3e:	17 ff       	sbrs	r17, 7
    5a40:	81 91       	ld	r24, Z+
    5a42:	4f 01       	movw	r8, r30
    5a44:	90 e0       	ldi	r25, 0x00	; 0
    5a46:	b3 01       	movw	r22, r6
    5a48:	0e 94 62 2e 	call	0x5cc4	; 0x5cc4 <fputc>
    5a4c:	e1 10       	cpse	r14, r1
    5a4e:	ea 94       	dec	r14
    5a50:	08 94       	sec
    5a52:	c1 08       	sbc	r12, r1
    5a54:	d1 08       	sbc	r13, r1
    5a56:	c1 14       	cp	r12, r1
    5a58:	d1 04       	cpc	r13, r1
    5a5a:	71 f7       	brne	.-36     	; 0x5a38 <vfprintf+0x1ae>
    5a5c:	e7 c0       	rjmp	.+462    	; 0x5c2c <vfprintf+0x3a2>
    5a5e:	84 36       	cpi	r24, 0x64	; 100
    5a60:	11 f0       	breq	.+4      	; 0x5a66 <vfprintf+0x1dc>
    5a62:	89 36       	cpi	r24, 0x69	; 105
    5a64:	51 f5       	brne	.+84     	; 0x5aba <vfprintf+0x230>
    5a66:	f5 01       	movw	r30, r10
    5a68:	17 ff       	sbrs	r17, 7
    5a6a:	07 c0       	rjmp	.+14     	; 0x5a7a <vfprintf+0x1f0>
    5a6c:	80 81       	ld	r24, Z
    5a6e:	91 81       	ldd	r25, Z+1	; 0x01
    5a70:	a2 81       	ldd	r26, Z+2	; 0x02
    5a72:	b3 81       	ldd	r27, Z+3	; 0x03
    5a74:	24 e0       	ldi	r18, 0x04	; 4
    5a76:	30 e0       	ldi	r19, 0x00	; 0
    5a78:	08 c0       	rjmp	.+16     	; 0x5a8a <vfprintf+0x200>
    5a7a:	80 81       	ld	r24, Z
    5a7c:	91 81       	ldd	r25, Z+1	; 0x01
    5a7e:	aa 27       	eor	r26, r26
    5a80:	97 fd       	sbrc	r25, 7
    5a82:	a0 95       	com	r26
    5a84:	ba 2f       	mov	r27, r26
    5a86:	22 e0       	ldi	r18, 0x02	; 2
    5a88:	30 e0       	ldi	r19, 0x00	; 0
    5a8a:	a2 0e       	add	r10, r18
    5a8c:	b3 1e       	adc	r11, r19
    5a8e:	01 2f       	mov	r16, r17
    5a90:	0f 76       	andi	r16, 0x6F	; 111
    5a92:	b7 ff       	sbrs	r27, 7
    5a94:	08 c0       	rjmp	.+16     	; 0x5aa6 <vfprintf+0x21c>
    5a96:	b0 95       	com	r27
    5a98:	a0 95       	com	r26
    5a9a:	90 95       	com	r25
    5a9c:	81 95       	neg	r24
    5a9e:	9f 4f       	sbci	r25, 0xFF	; 255
    5aa0:	af 4f       	sbci	r26, 0xFF	; 255
    5aa2:	bf 4f       	sbci	r27, 0xFF	; 255
    5aa4:	00 68       	ori	r16, 0x80	; 128
    5aa6:	bc 01       	movw	r22, r24
    5aa8:	cd 01       	movw	r24, r26
    5aaa:	a2 01       	movw	r20, r4
    5aac:	2a e0       	ldi	r18, 0x0A	; 10
    5aae:	30 e0       	ldi	r19, 0x00	; 0
    5ab0:	0e 94 8e 2e 	call	0x5d1c	; 0x5d1c <__ultoa_invert>
    5ab4:	d8 2e       	mov	r13, r24
    5ab6:	d4 18       	sub	r13, r4
    5ab8:	3f c0       	rjmp	.+126    	; 0x5b38 <vfprintf+0x2ae>
    5aba:	85 37       	cpi	r24, 0x75	; 117
    5abc:	21 f4       	brne	.+8      	; 0x5ac6 <vfprintf+0x23c>
    5abe:	1f 7e       	andi	r17, 0xEF	; 239
    5ac0:	2a e0       	ldi	r18, 0x0A	; 10
    5ac2:	30 e0       	ldi	r19, 0x00	; 0
    5ac4:	20 c0       	rjmp	.+64     	; 0x5b06 <vfprintf+0x27c>
    5ac6:	19 7f       	andi	r17, 0xF9	; 249
    5ac8:	8f 36       	cpi	r24, 0x6F	; 111
    5aca:	a9 f0       	breq	.+42     	; 0x5af6 <vfprintf+0x26c>
    5acc:	80 37       	cpi	r24, 0x70	; 112
    5ace:	20 f4       	brcc	.+8      	; 0x5ad8 <vfprintf+0x24e>
    5ad0:	88 35       	cpi	r24, 0x58	; 88
    5ad2:	09 f0       	breq	.+2      	; 0x5ad6 <vfprintf+0x24c>
    5ad4:	ae c0       	rjmp	.+348    	; 0x5c32 <vfprintf+0x3a8>
    5ad6:	0b c0       	rjmp	.+22     	; 0x5aee <vfprintf+0x264>
    5ad8:	80 37       	cpi	r24, 0x70	; 112
    5ada:	21 f0       	breq	.+8      	; 0x5ae4 <vfprintf+0x25a>
    5adc:	88 37       	cpi	r24, 0x78	; 120
    5ade:	09 f0       	breq	.+2      	; 0x5ae2 <vfprintf+0x258>
    5ae0:	a8 c0       	rjmp	.+336    	; 0x5c32 <vfprintf+0x3a8>
    5ae2:	01 c0       	rjmp	.+2      	; 0x5ae6 <vfprintf+0x25c>
    5ae4:	10 61       	ori	r17, 0x10	; 16
    5ae6:	14 ff       	sbrs	r17, 4
    5ae8:	09 c0       	rjmp	.+18     	; 0x5afc <vfprintf+0x272>
    5aea:	14 60       	ori	r17, 0x04	; 4
    5aec:	07 c0       	rjmp	.+14     	; 0x5afc <vfprintf+0x272>
    5aee:	14 ff       	sbrs	r17, 4
    5af0:	08 c0       	rjmp	.+16     	; 0x5b02 <vfprintf+0x278>
    5af2:	16 60       	ori	r17, 0x06	; 6
    5af4:	06 c0       	rjmp	.+12     	; 0x5b02 <vfprintf+0x278>
    5af6:	28 e0       	ldi	r18, 0x08	; 8
    5af8:	30 e0       	ldi	r19, 0x00	; 0
    5afa:	05 c0       	rjmp	.+10     	; 0x5b06 <vfprintf+0x27c>
    5afc:	20 e1       	ldi	r18, 0x10	; 16
    5afe:	30 e0       	ldi	r19, 0x00	; 0
    5b00:	02 c0       	rjmp	.+4      	; 0x5b06 <vfprintf+0x27c>
    5b02:	20 e1       	ldi	r18, 0x10	; 16
    5b04:	32 e0       	ldi	r19, 0x02	; 2
    5b06:	f5 01       	movw	r30, r10
    5b08:	17 ff       	sbrs	r17, 7
    5b0a:	07 c0       	rjmp	.+14     	; 0x5b1a <vfprintf+0x290>
    5b0c:	60 81       	ld	r22, Z
    5b0e:	71 81       	ldd	r23, Z+1	; 0x01
    5b10:	82 81       	ldd	r24, Z+2	; 0x02
    5b12:	93 81       	ldd	r25, Z+3	; 0x03
    5b14:	44 e0       	ldi	r20, 0x04	; 4
    5b16:	50 e0       	ldi	r21, 0x00	; 0
    5b18:	06 c0       	rjmp	.+12     	; 0x5b26 <vfprintf+0x29c>
    5b1a:	60 81       	ld	r22, Z
    5b1c:	71 81       	ldd	r23, Z+1	; 0x01
    5b1e:	80 e0       	ldi	r24, 0x00	; 0
    5b20:	90 e0       	ldi	r25, 0x00	; 0
    5b22:	42 e0       	ldi	r20, 0x02	; 2
    5b24:	50 e0       	ldi	r21, 0x00	; 0
    5b26:	a4 0e       	add	r10, r20
    5b28:	b5 1e       	adc	r11, r21
    5b2a:	a2 01       	movw	r20, r4
    5b2c:	0e 94 8e 2e 	call	0x5d1c	; 0x5d1c <__ultoa_invert>
    5b30:	d8 2e       	mov	r13, r24
    5b32:	d4 18       	sub	r13, r4
    5b34:	01 2f       	mov	r16, r17
    5b36:	0f 77       	andi	r16, 0x7F	; 127
    5b38:	06 ff       	sbrs	r16, 6
    5b3a:	09 c0       	rjmp	.+18     	; 0x5b4e <vfprintf+0x2c4>
    5b3c:	0e 7f       	andi	r16, 0xFE	; 254
    5b3e:	df 14       	cp	r13, r15
    5b40:	30 f4       	brcc	.+12     	; 0x5b4e <vfprintf+0x2c4>
    5b42:	04 ff       	sbrs	r16, 4
    5b44:	06 c0       	rjmp	.+12     	; 0x5b52 <vfprintf+0x2c8>
    5b46:	02 fd       	sbrc	r16, 2
    5b48:	04 c0       	rjmp	.+8      	; 0x5b52 <vfprintf+0x2c8>
    5b4a:	0f 7e       	andi	r16, 0xEF	; 239
    5b4c:	02 c0       	rjmp	.+4      	; 0x5b52 <vfprintf+0x2c8>
    5b4e:	1d 2d       	mov	r17, r13
    5b50:	01 c0       	rjmp	.+2      	; 0x5b54 <vfprintf+0x2ca>
    5b52:	1f 2d       	mov	r17, r15
    5b54:	80 2f       	mov	r24, r16
    5b56:	90 e0       	ldi	r25, 0x00	; 0
    5b58:	04 ff       	sbrs	r16, 4
    5b5a:	0c c0       	rjmp	.+24     	; 0x5b74 <vfprintf+0x2ea>
    5b5c:	fe 01       	movw	r30, r28
    5b5e:	ed 0d       	add	r30, r13
    5b60:	f1 1d       	adc	r31, r1
    5b62:	20 81       	ld	r18, Z
    5b64:	20 33       	cpi	r18, 0x30	; 48
    5b66:	11 f4       	brne	.+4      	; 0x5b6c <vfprintf+0x2e2>
    5b68:	09 7e       	andi	r16, 0xE9	; 233
    5b6a:	09 c0       	rjmp	.+18     	; 0x5b7e <vfprintf+0x2f4>
    5b6c:	02 ff       	sbrs	r16, 2
    5b6e:	06 c0       	rjmp	.+12     	; 0x5b7c <vfprintf+0x2f2>
    5b70:	1e 5f       	subi	r17, 0xFE	; 254
    5b72:	05 c0       	rjmp	.+10     	; 0x5b7e <vfprintf+0x2f4>
    5b74:	86 78       	andi	r24, 0x86	; 134
    5b76:	90 70       	andi	r25, 0x00	; 0
    5b78:	00 97       	sbiw	r24, 0x00	; 0
    5b7a:	09 f0       	breq	.+2      	; 0x5b7e <vfprintf+0x2f4>
    5b7c:	1f 5f       	subi	r17, 0xFF	; 255
    5b7e:	80 2e       	mov	r8, r16
    5b80:	99 24       	eor	r9, r9
    5b82:	03 fd       	sbrc	r16, 3
    5b84:	12 c0       	rjmp	.+36     	; 0x5baa <vfprintf+0x320>
    5b86:	00 ff       	sbrs	r16, 0
    5b88:	0d c0       	rjmp	.+26     	; 0x5ba4 <vfprintf+0x31a>
    5b8a:	fd 2c       	mov	r15, r13
    5b8c:	1e 15       	cp	r17, r14
    5b8e:	50 f4       	brcc	.+20     	; 0x5ba4 <vfprintf+0x31a>
    5b90:	fe 0c       	add	r15, r14
    5b92:	f1 1a       	sub	r15, r17
    5b94:	1e 2d       	mov	r17, r14
    5b96:	06 c0       	rjmp	.+12     	; 0x5ba4 <vfprintf+0x31a>
    5b98:	80 e2       	ldi	r24, 0x20	; 32
    5b9a:	90 e0       	ldi	r25, 0x00	; 0
    5b9c:	b3 01       	movw	r22, r6
    5b9e:	0e 94 62 2e 	call	0x5cc4	; 0x5cc4 <fputc>
    5ba2:	1f 5f       	subi	r17, 0xFF	; 255
    5ba4:	1e 15       	cp	r17, r14
    5ba6:	c0 f3       	brcs	.-16     	; 0x5b98 <vfprintf+0x30e>
    5ba8:	04 c0       	rjmp	.+8      	; 0x5bb2 <vfprintf+0x328>
    5baa:	1e 15       	cp	r17, r14
    5bac:	10 f4       	brcc	.+4      	; 0x5bb2 <vfprintf+0x328>
    5bae:	e1 1a       	sub	r14, r17
    5bb0:	01 c0       	rjmp	.+2      	; 0x5bb4 <vfprintf+0x32a>
    5bb2:	ee 24       	eor	r14, r14
    5bb4:	84 fe       	sbrs	r8, 4
    5bb6:	0f c0       	rjmp	.+30     	; 0x5bd6 <vfprintf+0x34c>
    5bb8:	80 e3       	ldi	r24, 0x30	; 48
    5bba:	90 e0       	ldi	r25, 0x00	; 0
    5bbc:	b3 01       	movw	r22, r6
    5bbe:	0e 94 62 2e 	call	0x5cc4	; 0x5cc4 <fputc>
    5bc2:	82 fe       	sbrs	r8, 2
    5bc4:	1f c0       	rjmp	.+62     	; 0x5c04 <vfprintf+0x37a>
    5bc6:	81 fe       	sbrs	r8, 1
    5bc8:	03 c0       	rjmp	.+6      	; 0x5bd0 <vfprintf+0x346>
    5bca:	88 e5       	ldi	r24, 0x58	; 88
    5bcc:	90 e0       	ldi	r25, 0x00	; 0
    5bce:	10 c0       	rjmp	.+32     	; 0x5bf0 <vfprintf+0x366>
    5bd0:	88 e7       	ldi	r24, 0x78	; 120
    5bd2:	90 e0       	ldi	r25, 0x00	; 0
    5bd4:	0d c0       	rjmp	.+26     	; 0x5bf0 <vfprintf+0x366>
    5bd6:	c4 01       	movw	r24, r8
    5bd8:	86 78       	andi	r24, 0x86	; 134
    5bda:	90 70       	andi	r25, 0x00	; 0
    5bdc:	00 97       	sbiw	r24, 0x00	; 0
    5bde:	91 f0       	breq	.+36     	; 0x5c04 <vfprintf+0x37a>
    5be0:	81 fc       	sbrc	r8, 1
    5be2:	02 c0       	rjmp	.+4      	; 0x5be8 <vfprintf+0x35e>
    5be4:	80 e2       	ldi	r24, 0x20	; 32
    5be6:	01 c0       	rjmp	.+2      	; 0x5bea <vfprintf+0x360>
    5be8:	8b e2       	ldi	r24, 0x2B	; 43
    5bea:	07 fd       	sbrc	r16, 7
    5bec:	8d e2       	ldi	r24, 0x2D	; 45
    5bee:	90 e0       	ldi	r25, 0x00	; 0
    5bf0:	b3 01       	movw	r22, r6
    5bf2:	0e 94 62 2e 	call	0x5cc4	; 0x5cc4 <fputc>
    5bf6:	06 c0       	rjmp	.+12     	; 0x5c04 <vfprintf+0x37a>
    5bf8:	80 e3       	ldi	r24, 0x30	; 48
    5bfa:	90 e0       	ldi	r25, 0x00	; 0
    5bfc:	b3 01       	movw	r22, r6
    5bfe:	0e 94 62 2e 	call	0x5cc4	; 0x5cc4 <fputc>
    5c02:	fa 94       	dec	r15
    5c04:	df 14       	cp	r13, r15
    5c06:	c0 f3       	brcs	.-16     	; 0x5bf8 <vfprintf+0x36e>
    5c08:	da 94       	dec	r13
    5c0a:	f2 01       	movw	r30, r4
    5c0c:	ed 0d       	add	r30, r13
    5c0e:	f1 1d       	adc	r31, r1
    5c10:	80 81       	ld	r24, Z
    5c12:	90 e0       	ldi	r25, 0x00	; 0
    5c14:	b3 01       	movw	r22, r6
    5c16:	0e 94 62 2e 	call	0x5cc4	; 0x5cc4 <fputc>
    5c1a:	dd 20       	and	r13, r13
    5c1c:	a9 f7       	brne	.-22     	; 0x5c08 <vfprintf+0x37e>
    5c1e:	06 c0       	rjmp	.+12     	; 0x5c2c <vfprintf+0x3a2>
    5c20:	80 e2       	ldi	r24, 0x20	; 32
    5c22:	90 e0       	ldi	r25, 0x00	; 0
    5c24:	b3 01       	movw	r22, r6
    5c26:	0e 94 62 2e 	call	0x5cc4	; 0x5cc4 <fputc>
    5c2a:	ea 94       	dec	r14
    5c2c:	ee 20       	and	r14, r14
    5c2e:	c1 f7       	brne	.-16     	; 0x5c20 <vfprintf+0x396>
    5c30:	40 ce       	rjmp	.-896    	; 0x58b2 <vfprintf+0x28>
    5c32:	f3 01       	movw	r30, r6
    5c34:	86 81       	ldd	r24, Z+6	; 0x06
    5c36:	97 81       	ldd	r25, Z+7	; 0x07
    5c38:	02 c0       	rjmp	.+4      	; 0x5c3e <vfprintf+0x3b4>
    5c3a:	8f ef       	ldi	r24, 0xFF	; 255
    5c3c:	9f ef       	ldi	r25, 0xFF	; 255
    5c3e:	2d 96       	adiw	r28, 0x0d	; 13
    5c40:	e2 e1       	ldi	r30, 0x12	; 18
    5c42:	0c 94 18 2f 	jmp	0x5e30	; 0x5e30 <__epilogue_restores__>

00005c46 <__eerd_byte_m328p>:
    5c46:	f9 99       	sbic	0x1f, 1	; 31
    5c48:	fe cf       	rjmp	.-4      	; 0x5c46 <__eerd_byte_m328p>
    5c4a:	92 bd       	out	0x22, r25	; 34
    5c4c:	81 bd       	out	0x21, r24	; 33
    5c4e:	f8 9a       	sbi	0x1f, 0	; 31
    5c50:	99 27       	eor	r25, r25
    5c52:	80 b5       	in	r24, 0x20	; 32
    5c54:	08 95       	ret

00005c56 <__eerd_dword_m328p>:
    5c56:	a6 e1       	ldi	r26, 0x16	; 22
    5c58:	b0 e0       	ldi	r27, 0x00	; 0
    5c5a:	44 e0       	ldi	r20, 0x04	; 4
    5c5c:	50 e0       	ldi	r21, 0x00	; 0
    5c5e:	0c 94 ee 2e 	jmp	0x5ddc	; 0x5ddc <__eerd_blraw_m328p>

00005c62 <__eewr_byte_m328p>:
    5c62:	26 2f       	mov	r18, r22

00005c64 <__eewr_r18_m328p>:
    5c64:	f9 99       	sbic	0x1f, 1	; 31
    5c66:	fe cf       	rjmp	.-4      	; 0x5c64 <__eewr_r18_m328p>
    5c68:	1f ba       	out	0x1f, r1	; 31
    5c6a:	92 bd       	out	0x22, r25	; 34
    5c6c:	81 bd       	out	0x21, r24	; 33
    5c6e:	20 bd       	out	0x20, r18	; 32
    5c70:	0f b6       	in	r0, 0x3f	; 63
    5c72:	f8 94       	cli
    5c74:	fa 9a       	sbi	0x1f, 2	; 31
    5c76:	f9 9a       	sbi	0x1f, 1	; 31
    5c78:	0f be       	out	0x3f, r0	; 63
    5c7a:	01 96       	adiw	r24, 0x01	; 1
    5c7c:	08 95       	ret

00005c7e <__eewr_dword_m328p>:
    5c7e:	24 2f       	mov	r18, r20
    5c80:	0e 94 32 2e 	call	0x5c64	; 0x5c64 <__eewr_r18_m328p>
    5c84:	25 2f       	mov	r18, r21
    5c86:	0e 94 32 2e 	call	0x5c64	; 0x5c64 <__eewr_r18_m328p>
    5c8a:	0c 94 47 2e 	jmp	0x5c8e	; 0x5c8e <__eewr_word_m328p>

00005c8e <__eewr_word_m328p>:
    5c8e:	0e 94 31 2e 	call	0x5c62	; 0x5c62 <__eewr_byte_m328p>
    5c92:	27 2f       	mov	r18, r23
    5c94:	0c 94 32 2e 	jmp	0x5c64	; 0x5c64 <__eewr_r18_m328p>

00005c98 <strnlen_P>:
    5c98:	fc 01       	movw	r30, r24
    5c9a:	05 90       	lpm	r0, Z+
    5c9c:	61 50       	subi	r22, 0x01	; 1
    5c9e:	70 40       	sbci	r23, 0x00	; 0
    5ca0:	01 10       	cpse	r0, r1
    5ca2:	d8 f7       	brcc	.-10     	; 0x5c9a <strnlen_P+0x2>
    5ca4:	80 95       	com	r24
    5ca6:	90 95       	com	r25
    5ca8:	8e 0f       	add	r24, r30
    5caa:	9f 1f       	adc	r25, r31
    5cac:	08 95       	ret

00005cae <strnlen>:
    5cae:	fc 01       	movw	r30, r24
    5cb0:	61 50       	subi	r22, 0x01	; 1
    5cb2:	70 40       	sbci	r23, 0x00	; 0
    5cb4:	01 90       	ld	r0, Z+
    5cb6:	01 10       	cpse	r0, r1
    5cb8:	d8 f7       	brcc	.-10     	; 0x5cb0 <strnlen+0x2>
    5cba:	80 95       	com	r24
    5cbc:	90 95       	com	r25
    5cbe:	8e 0f       	add	r24, r30
    5cc0:	9f 1f       	adc	r25, r31
    5cc2:	08 95       	ret

00005cc4 <fputc>:
    5cc4:	0f 93       	push	r16
    5cc6:	1f 93       	push	r17
    5cc8:	cf 93       	push	r28
    5cca:	df 93       	push	r29
    5ccc:	8c 01       	movw	r16, r24
    5cce:	eb 01       	movw	r28, r22
    5cd0:	8b 81       	ldd	r24, Y+3	; 0x03
    5cd2:	81 ff       	sbrs	r24, 1
    5cd4:	1b c0       	rjmp	.+54     	; 0x5d0c <fputc+0x48>
    5cd6:	82 ff       	sbrs	r24, 2
    5cd8:	0d c0       	rjmp	.+26     	; 0x5cf4 <fputc+0x30>
    5cda:	2e 81       	ldd	r18, Y+6	; 0x06
    5cdc:	3f 81       	ldd	r19, Y+7	; 0x07
    5cde:	8c 81       	ldd	r24, Y+4	; 0x04
    5ce0:	9d 81       	ldd	r25, Y+5	; 0x05
    5ce2:	28 17       	cp	r18, r24
    5ce4:	39 07       	cpc	r19, r25
    5ce6:	64 f4       	brge	.+24     	; 0x5d00 <fputc+0x3c>
    5ce8:	e8 81       	ld	r30, Y
    5cea:	f9 81       	ldd	r31, Y+1	; 0x01
    5cec:	01 93       	st	Z+, r16
    5cee:	f9 83       	std	Y+1, r31	; 0x01
    5cf0:	e8 83       	st	Y, r30
    5cf2:	06 c0       	rjmp	.+12     	; 0x5d00 <fputc+0x3c>
    5cf4:	e8 85       	ldd	r30, Y+8	; 0x08
    5cf6:	f9 85       	ldd	r31, Y+9	; 0x09
    5cf8:	80 2f       	mov	r24, r16
    5cfa:	09 95       	icall
    5cfc:	00 97       	sbiw	r24, 0x00	; 0
    5cfe:	31 f4       	brne	.+12     	; 0x5d0c <fputc+0x48>
    5d00:	8e 81       	ldd	r24, Y+6	; 0x06
    5d02:	9f 81       	ldd	r25, Y+7	; 0x07
    5d04:	01 96       	adiw	r24, 0x01	; 1
    5d06:	9f 83       	std	Y+7, r25	; 0x07
    5d08:	8e 83       	std	Y+6, r24	; 0x06
    5d0a:	02 c0       	rjmp	.+4      	; 0x5d10 <fputc+0x4c>
    5d0c:	0f ef       	ldi	r16, 0xFF	; 255
    5d0e:	1f ef       	ldi	r17, 0xFF	; 255
    5d10:	c8 01       	movw	r24, r16
    5d12:	df 91       	pop	r29
    5d14:	cf 91       	pop	r28
    5d16:	1f 91       	pop	r17
    5d18:	0f 91       	pop	r16
    5d1a:	08 95       	ret

00005d1c <__ultoa_invert>:
    5d1c:	fa 01       	movw	r30, r20
    5d1e:	aa 27       	eor	r26, r26
    5d20:	28 30       	cpi	r18, 0x08	; 8
    5d22:	51 f1       	breq	.+84     	; 0x5d78 <__ultoa_invert+0x5c>
    5d24:	20 31       	cpi	r18, 0x10	; 16
    5d26:	81 f1       	breq	.+96     	; 0x5d88 <__ultoa_invert+0x6c>
    5d28:	e8 94       	clt
    5d2a:	6f 93       	push	r22
    5d2c:	6e 7f       	andi	r22, 0xFE	; 254
    5d2e:	6e 5f       	subi	r22, 0xFE	; 254
    5d30:	7f 4f       	sbci	r23, 0xFF	; 255
    5d32:	8f 4f       	sbci	r24, 0xFF	; 255
    5d34:	9f 4f       	sbci	r25, 0xFF	; 255
    5d36:	af 4f       	sbci	r26, 0xFF	; 255
    5d38:	b1 e0       	ldi	r27, 0x01	; 1
    5d3a:	3e d0       	rcall	.+124    	; 0x5db8 <__ultoa_invert+0x9c>
    5d3c:	b4 e0       	ldi	r27, 0x04	; 4
    5d3e:	3c d0       	rcall	.+120    	; 0x5db8 <__ultoa_invert+0x9c>
    5d40:	67 0f       	add	r22, r23
    5d42:	78 1f       	adc	r23, r24
    5d44:	89 1f       	adc	r24, r25
    5d46:	9a 1f       	adc	r25, r26
    5d48:	a1 1d       	adc	r26, r1
    5d4a:	68 0f       	add	r22, r24
    5d4c:	79 1f       	adc	r23, r25
    5d4e:	8a 1f       	adc	r24, r26
    5d50:	91 1d       	adc	r25, r1
    5d52:	a1 1d       	adc	r26, r1
    5d54:	6a 0f       	add	r22, r26
    5d56:	71 1d       	adc	r23, r1
    5d58:	81 1d       	adc	r24, r1
    5d5a:	91 1d       	adc	r25, r1
    5d5c:	a1 1d       	adc	r26, r1
    5d5e:	20 d0       	rcall	.+64     	; 0x5da0 <__ultoa_invert+0x84>
    5d60:	09 f4       	brne	.+2      	; 0x5d64 <__ultoa_invert+0x48>
    5d62:	68 94       	set
    5d64:	3f 91       	pop	r19
    5d66:	2a e0       	ldi	r18, 0x0A	; 10
    5d68:	26 9f       	mul	r18, r22
    5d6a:	11 24       	eor	r1, r1
    5d6c:	30 19       	sub	r19, r0
    5d6e:	30 5d       	subi	r19, 0xD0	; 208
    5d70:	31 93       	st	Z+, r19
    5d72:	de f6       	brtc	.-74     	; 0x5d2a <__ultoa_invert+0xe>
    5d74:	cf 01       	movw	r24, r30
    5d76:	08 95       	ret
    5d78:	46 2f       	mov	r20, r22
    5d7a:	47 70       	andi	r20, 0x07	; 7
    5d7c:	40 5d       	subi	r20, 0xD0	; 208
    5d7e:	41 93       	st	Z+, r20
    5d80:	b3 e0       	ldi	r27, 0x03	; 3
    5d82:	0f d0       	rcall	.+30     	; 0x5da2 <__ultoa_invert+0x86>
    5d84:	c9 f7       	brne	.-14     	; 0x5d78 <__ultoa_invert+0x5c>
    5d86:	f6 cf       	rjmp	.-20     	; 0x5d74 <__ultoa_invert+0x58>
    5d88:	46 2f       	mov	r20, r22
    5d8a:	4f 70       	andi	r20, 0x0F	; 15
    5d8c:	40 5d       	subi	r20, 0xD0	; 208
    5d8e:	4a 33       	cpi	r20, 0x3A	; 58
    5d90:	18 f0       	brcs	.+6      	; 0x5d98 <__ultoa_invert+0x7c>
    5d92:	49 5d       	subi	r20, 0xD9	; 217
    5d94:	31 fd       	sbrc	r19, 1
    5d96:	40 52       	subi	r20, 0x20	; 32
    5d98:	41 93       	st	Z+, r20
    5d9a:	02 d0       	rcall	.+4      	; 0x5da0 <__ultoa_invert+0x84>
    5d9c:	a9 f7       	brne	.-22     	; 0x5d88 <__ultoa_invert+0x6c>
    5d9e:	ea cf       	rjmp	.-44     	; 0x5d74 <__ultoa_invert+0x58>
    5da0:	b4 e0       	ldi	r27, 0x04	; 4
    5da2:	a6 95       	lsr	r26
    5da4:	97 95       	ror	r25
    5da6:	87 95       	ror	r24
    5da8:	77 95       	ror	r23
    5daa:	67 95       	ror	r22
    5dac:	ba 95       	dec	r27
    5dae:	c9 f7       	brne	.-14     	; 0x5da2 <__ultoa_invert+0x86>
    5db0:	00 97       	sbiw	r24, 0x00	; 0
    5db2:	61 05       	cpc	r22, r1
    5db4:	71 05       	cpc	r23, r1
    5db6:	08 95       	ret
    5db8:	9b 01       	movw	r18, r22
    5dba:	ac 01       	movw	r20, r24
    5dbc:	0a 2e       	mov	r0, r26
    5dbe:	06 94       	lsr	r0
    5dc0:	57 95       	ror	r21
    5dc2:	47 95       	ror	r20
    5dc4:	37 95       	ror	r19
    5dc6:	27 95       	ror	r18
    5dc8:	ba 95       	dec	r27
    5dca:	c9 f7       	brne	.-14     	; 0x5dbe <__ultoa_invert+0xa2>
    5dcc:	62 0f       	add	r22, r18
    5dce:	73 1f       	adc	r23, r19
    5dd0:	84 1f       	adc	r24, r20
    5dd2:	95 1f       	adc	r25, r21
    5dd4:	a0 1d       	adc	r26, r0
    5dd6:	08 95       	ret

00005dd8 <__eerd_block_m328p>:
    5dd8:	dc 01       	movw	r26, r24
    5dda:	cb 01       	movw	r24, r22

00005ddc <__eerd_blraw_m328p>:
    5ddc:	fc 01       	movw	r30, r24
    5dde:	f9 99       	sbic	0x1f, 1	; 31
    5de0:	fe cf       	rjmp	.-4      	; 0x5dde <__eerd_blraw_m328p+0x2>
    5de2:	06 c0       	rjmp	.+12     	; 0x5df0 <__eerd_blraw_m328p+0x14>
    5de4:	f2 bd       	out	0x22, r31	; 34
    5de6:	e1 bd       	out	0x21, r30	; 33
    5de8:	f8 9a       	sbi	0x1f, 0	; 31
    5dea:	31 96       	adiw	r30, 0x01	; 1
    5dec:	00 b4       	in	r0, 0x20	; 32
    5dee:	0d 92       	st	X+, r0
    5df0:	41 50       	subi	r20, 0x01	; 1
    5df2:	50 40       	sbci	r21, 0x00	; 0
    5df4:	b8 f7       	brcc	.-18     	; 0x5de4 <__eerd_blraw_m328p+0x8>
    5df6:	08 95       	ret

00005df8 <__prologue_saves__>:
    5df8:	2f 92       	push	r2
    5dfa:	3f 92       	push	r3
    5dfc:	4f 92       	push	r4
    5dfe:	5f 92       	push	r5
    5e00:	6f 92       	push	r6
    5e02:	7f 92       	push	r7
    5e04:	8f 92       	push	r8
    5e06:	9f 92       	push	r9
    5e08:	af 92       	push	r10
    5e0a:	bf 92       	push	r11
    5e0c:	cf 92       	push	r12
    5e0e:	df 92       	push	r13
    5e10:	ef 92       	push	r14
    5e12:	ff 92       	push	r15
    5e14:	0f 93       	push	r16
    5e16:	1f 93       	push	r17
    5e18:	cf 93       	push	r28
    5e1a:	df 93       	push	r29
    5e1c:	cd b7       	in	r28, 0x3d	; 61
    5e1e:	de b7       	in	r29, 0x3e	; 62
    5e20:	ca 1b       	sub	r28, r26
    5e22:	db 0b       	sbc	r29, r27
    5e24:	0f b6       	in	r0, 0x3f	; 63
    5e26:	f8 94       	cli
    5e28:	de bf       	out	0x3e, r29	; 62
    5e2a:	0f be       	out	0x3f, r0	; 63
    5e2c:	cd bf       	out	0x3d, r28	; 61
    5e2e:	09 94       	ijmp

00005e30 <__epilogue_restores__>:
    5e30:	2a 88       	ldd	r2, Y+18	; 0x12
    5e32:	39 88       	ldd	r3, Y+17	; 0x11
    5e34:	48 88       	ldd	r4, Y+16	; 0x10
    5e36:	5f 84       	ldd	r5, Y+15	; 0x0f
    5e38:	6e 84       	ldd	r6, Y+14	; 0x0e
    5e3a:	7d 84       	ldd	r7, Y+13	; 0x0d
    5e3c:	8c 84       	ldd	r8, Y+12	; 0x0c
    5e3e:	9b 84       	ldd	r9, Y+11	; 0x0b
    5e40:	aa 84       	ldd	r10, Y+10	; 0x0a
    5e42:	b9 84       	ldd	r11, Y+9	; 0x09
    5e44:	c8 84       	ldd	r12, Y+8	; 0x08
    5e46:	df 80       	ldd	r13, Y+7	; 0x07
    5e48:	ee 80       	ldd	r14, Y+6	; 0x06
    5e4a:	fd 80       	ldd	r15, Y+5	; 0x05
    5e4c:	0c 81       	ldd	r16, Y+4	; 0x04
    5e4e:	1b 81       	ldd	r17, Y+3	; 0x03
    5e50:	aa 81       	ldd	r26, Y+2	; 0x02
    5e52:	b9 81       	ldd	r27, Y+1	; 0x01
    5e54:	ce 0f       	add	r28, r30
    5e56:	d1 1d       	adc	r29, r1
    5e58:	0f b6       	in	r0, 0x3f	; 63
    5e5a:	f8 94       	cli
    5e5c:	de bf       	out	0x3e, r29	; 62
    5e5e:	0f be       	out	0x3f, r0	; 63
    5e60:	cd bf       	out	0x3d, r28	; 61
    5e62:	ed 01       	movw	r28, r26
    5e64:	08 95       	ret

00005e66 <_exit>:
    5e66:	f8 94       	cli

00005e68 <__stop_program>:
    5e68:	ff cf       	rjmp	.-2      	; 0x5e68 <__stop_program>
