
Drone.elf:     file format elf32-avr

Sections:
Idx Name          Size      VMA       LMA       File off  Algn
  0 .data         00000056  00800100  00005b70  00005c04  2**0
                  CONTENTS, ALLOC, LOAD, DATA
  1 .text         00005b70  00000000  00000000  00000094  2**1
                  CONTENTS, ALLOC, LOAD, READONLY, CODE
  2 .bss          00000280  00800156  00800156  00005c5a  2**0
                  ALLOC
  3 .stab         00004e48  00000000  00000000  00005c5c  2**2
                  CONTENTS, READONLY, DEBUGGING
  4 .stabstr      0000156b  00000000  00000000  0000aaa4  2**0
                  CONTENTS, READONLY, DEBUGGING
  5 .debug_aranges 000002e0  00000000  00000000  0000c00f  2**0
                  CONTENTS, READONLY, DEBUGGING
  6 .debug_pubnames 00000e94  00000000  00000000  0000c2ef  2**0
                  CONTENTS, READONLY, DEBUGGING
  7 .debug_info   00004cc7  00000000  00000000  0000d183  2**0
                  CONTENTS, READONLY, DEBUGGING
  8 .debug_abbrev 000018a9  00000000  00000000  00011e4a  2**0
                  CONTENTS, READONLY, DEBUGGING
  9 .debug_line   00008308  00000000  00000000  000136f3  2**0
                  CONTENTS, READONLY, DEBUGGING
 10 .debug_frame  00000740  00000000  00000000  0001b9fc  2**2
                  CONTENTS, READONLY, DEBUGGING
 11 .debug_str    00001344  00000000  00000000  0001c13c  2**0
                  CONTENTS, READONLY, DEBUGGING
 12 .debug_loc    00002bc4  00000000  00000000  0001d480  2**0
                  CONTENTS, READONLY, DEBUGGING
 13 .debug_macinfo 000aae1d  00000000  00000000  00020044  2**0
                  CONTENTS, READONLY, DEBUGGING
 14 .debug_pubtypes 00000757  00000000  00000000  000cae61  2**0
                  CONTENTS, READONLY, DEBUGGING
 15 .debug_ranges 00000a40  00000000  00000000  000cb5b8  2**0
                  CONTENTS, READONLY, DEBUGGING

Disassembly of section .text:

00000000 <__vectors>:
       0:	0c 94 9b 00 	jmp	0x136	; 0x136 <__ctors_end>
       4:	0c 94 b8 00 	jmp	0x170	; 0x170 <__bad_interrupt>
       8:	0c 94 b8 00 	jmp	0x170	; 0x170 <__bad_interrupt>
       c:	0c 94 b8 00 	jmp	0x170	; 0x170 <__bad_interrupt>
      10:	0c 94 b8 00 	jmp	0x170	; 0x170 <__bad_interrupt>
      14:	0c 94 b8 00 	jmp	0x170	; 0x170 <__bad_interrupt>
      18:	0c 94 b8 00 	jmp	0x170	; 0x170 <__bad_interrupt>
      1c:	0c 94 21 25 	jmp	0x4a42	; 0x4a42 <__vector_7>
      20:	0c 94 ae 23 	jmp	0x475c	; 0x475c <__vector_8>
      24:	0c 94 b8 00 	jmp	0x170	; 0x170 <__bad_interrupt>
      28:	0c 94 b8 00 	jmp	0x170	; 0x170 <__bad_interrupt>
      2c:	0c 94 4c 09 	jmp	0x1298	; 0x1298 <__vector_11>
      30:	0c 94 b8 00 	jmp	0x170	; 0x170 <__bad_interrupt>
      34:	0c 94 b8 00 	jmp	0x170	; 0x170 <__bad_interrupt>
      38:	0c 94 b8 00 	jmp	0x170	; 0x170 <__bad_interrupt>
      3c:	0c 94 b8 00 	jmp	0x170	; 0x170 <__bad_interrupt>
      40:	0c 94 b1 0b 	jmp	0x1762	; 0x1762 <__vector_16>
      44:	0c 94 b8 00 	jmp	0x170	; 0x170 <__bad_interrupt>
      48:	0c 94 a8 0e 	jmp	0x1d50	; 0x1d50 <__vector_18>
      4c:	0c 94 b8 00 	jmp	0x170	; 0x170 <__bad_interrupt>
      50:	0c 94 51 0f 	jmp	0x1ea2	; 0x1ea2 <__vector_20>
      54:	0c 94 c0 06 	jmp	0xd80	; 0xd80 <__vector_21>
      58:	0c 94 b8 00 	jmp	0x170	; 0x170 <__bad_interrupt>
      5c:	0c 94 b8 00 	jmp	0x170	; 0x170 <__bad_interrupt>
      60:	0c 94 b8 00 	jmp	0x170	; 0x170 <__bad_interrupt>
      64:	0c 94 b8 00 	jmp	0x170	; 0x170 <__bad_interrupt>
      68:	08 4a       	sbci	r16, 0xA8	; 168
      6a:	d7 3b       	cpi	r29, 0xB7	; 183
      6c:	3b ce       	rjmp	.-906    	; 0xfffffce4 <__eeprom_end+0xff7efce4>
      6e:	01 6e       	ori	r16, 0xE1	; 225
      70:	84 bc       	out	0x24, r8	; 36
      72:	bf fd       	.word	0xfdbf	; ????
      74:	c1 2f       	mov	r28, r17
      76:	3d 6c       	ori	r19, 0xCD	; 205
      78:	74 31       	cpi	r23, 0x14	; 20
      7a:	9a bd       	out	0x2a, r25	; 42
      7c:	56 83       	std	Z+6, r21	; 0x06
      7e:	3d da       	rcall	.-2950   	; 0xfffff4fa <__eeprom_end+0xff7ef4fa>
      80:	3d 00       	.word	0x003d	; ????
      82:	c7 7f       	andi	r28, 0xF7	; 247
      84:	11 be       	out	0x31, r1	; 49
      86:	d9 e4       	ldi	r29, 0x49	; 73
      88:	bb 4c       	sbci	r27, 0xCB	; 203
      8a:	3e 91       	ld	r19, -X
      8c:	6b aa       	std	Y+51, r6	; 0x33
      8e:	aa be       	out	0x3a, r10	; 58
      90:	00 00       	nop
      92:	00 80       	ld	r0, Z
      94:	3f 05       	cpc	r19, r15
      96:	a8 4c       	sbci	r26, 0xC8	; 200
      98:	cd b2       	in	r12, 0x1d	; 29
      9a:	d4 4e       	sbci	r29, 0xE4	; 228
      9c:	b9 38       	cpi	r27, 0x89	; 137
      9e:	36 a9       	ldd	r19, Z+54	; 0x36
      a0:	02 0c       	add	r0, r2
      a2:	50 b9       	out	0x00, r21	; 0
      a4:	91 86       	std	Z+9, r9	; 0x09
      a6:	88 08       	sbc	r8, r8
      a8:	3c a6       	std	Y+44, r3	; 0x2c
      aa:	aa aa       	std	Y+50, r10	; 0x32
      ac:	2a be       	out	0x3a, r2	; 58
      ae:	00 00       	nop
      b0:	00 80       	ld	r0, Z
      b2:	3f 07       	cpc	r19, r31
      b4:	63 42       	sbci	r22, 0x23	; 35
      b6:	36 b7       	in	r19, 0x36	; 54
      b8:	9b d8       	rcall	.-3786   	; 0xfffff1f0 <__eeprom_end+0xff7ef1f0>
      ba:	a7 1a       	sub	r10, r23
      bc:	39 68       	ori	r19, 0x89	; 137
      be:	56 18       	sub	r5, r6
      c0:	ae ba       	out	0x1e, r10	; 30
      c2:	ab 55       	subi	r26, 0x5B	; 91
      c4:	8c 1d       	adc	r24, r12
      c6:	3c b7       	in	r19, 0x3c	; 60
      c8:	cc 57       	subi	r28, 0x7C	; 124
      ca:	63 bd       	out	0x23, r22	; 35
      cc:	6d ed       	ldi	r22, 0xDD	; 221
      ce:	fd 75       	andi	r31, 0x5D	; 93
      d0:	3e f6       	brtc	.-114    	; 0x60 <__SREG__+0x21>
      d2:	17 72       	andi	r17, 0x27	; 39
      d4:	31 bf       	out	0x31, r19	; 49
      d6:	00 00       	nop
      d8:	00 80       	ld	r0, Z
      da:	3f 08       	sbc	r3, r15
      dc:	00 00       	nop
      de:	00 be       	out	0x30, r0	; 48
      e0:	92 24       	eor	r9, r2
      e2:	49 12       	cpse	r4, r25
      e4:	3e ab       	std	Y+54, r19	; 0x36
      e6:	aa aa       	std	Y+50, r10	; 0x32
      e8:	2a be       	out	0x3a, r2	; 58
      ea:	cd cc       	rjmp	.-1638   	; 0xfffffa86 <__eeprom_end+0xff7efa86>
      ec:	cc 4c       	sbci	r28, 0xCC	; 204
      ee:	3e 00       	.word	0x003e	; ????
      f0:	00 00       	nop
      f2:	80 be       	out	0x30, r8	; 48
      f4:	ab aa       	std	Y+51, r10	; 0x33
      f6:	aa aa       	std	Y+50, r10	; 0x32
      f8:	3e 00       	.word	0x003e	; ????
      fa:	00 00       	nop
      fc:	00 bf       	out	0x30, r16	; 48
      fe:	00 00       	nop
     100:	00 80       	ld	r0, Z
     102:	3f 00       	.word	0x003f	; ????
     104:	00 00       	nop
     106:	00 00       	nop
     108:	08 41       	sbci	r16, 0x18	; 24
     10a:	78 d3       	rcall	.+1776   	; 0x7fc <CmpBMP085GetAltitude+0x3a6>
     10c:	bb 43       	sbci	r27, 0x3B	; 59
     10e:	87 d1       	rcall	.+782    	; 0x41e <CmpBMP085Init+0x10>
     110:	13 3d       	cpi	r17, 0xD3	; 211
     112:	19 0e       	add	r1, r25
     114:	3c c3       	rjmp	.+1656   	; 0x78e <CmpBMP085GetAltitude+0x338>
     116:	bd 42       	sbci	r27, 0x2D	; 45
     118:	82 ad       	ldd	r24, Z+58	; 0x3a
     11a:	2b 3e       	cpi	r18, 0xEB	; 235
     11c:	68 ec       	ldi	r22, 0xC8	; 200
     11e:	82 76       	andi	r24, 0x62	; 98
     120:	be d9       	rcall	.-3204   	; 0xfffff49e <__eeprom_end+0xff7ef49e>
     122:	8f e1       	ldi	r24, 0x1F	; 31
     124:	a9 3e       	cpi	r26, 0xE9	; 233
     126:	4c 80       	ldd	r4, Y+4	; 0x04
     128:	ef ff       	.word	0xffef	; ????
     12a:	be 01       	movw	r22, r28
     12c:	c4 ff       	sbrs	r28, 4
     12e:	7f 3f       	cpi	r23, 0xFF	; 255
     130:	00 00       	nop
     132:	00 00       	nop
	...

00000136 <__ctors_end>:
     136:	11 24       	eor	r1, r1
     138:	1f be       	out	0x3f, r1	; 63
     13a:	cf ef       	ldi	r28, 0xFF	; 255
     13c:	d8 e0       	ldi	r29, 0x08	; 8
     13e:	de bf       	out	0x3e, r29	; 62
     140:	cd bf       	out	0x3d, r28	; 61

00000142 <__do_copy_data>:
     142:	11 e0       	ldi	r17, 0x01	; 1
     144:	a0 e0       	ldi	r26, 0x00	; 0
     146:	b1 e0       	ldi	r27, 0x01	; 1
     148:	e0 e7       	ldi	r30, 0x70	; 112
     14a:	fb e5       	ldi	r31, 0x5B	; 91
     14c:	02 c0       	rjmp	.+4      	; 0x152 <__do_copy_data+0x10>
     14e:	05 90       	lpm	r0, Z+
     150:	0d 92       	st	X+, r0
     152:	a6 35       	cpi	r26, 0x56	; 86
     154:	b1 07       	cpc	r27, r17
     156:	d9 f7       	brne	.-10     	; 0x14e <__do_copy_data+0xc>

00000158 <__do_clear_bss>:
     158:	13 e0       	ldi	r17, 0x03	; 3
     15a:	a6 e5       	ldi	r26, 0x56	; 86
     15c:	b1 e0       	ldi	r27, 0x01	; 1
     15e:	01 c0       	rjmp	.+2      	; 0x162 <.do_clear_bss_start>

00000160 <.do_clear_bss_loop>:
     160:	1d 92       	st	X+, r1

00000162 <.do_clear_bss_start>:
     162:	a6 3d       	cpi	r26, 0xD6	; 214
     164:	b1 07       	cpc	r27, r17
     166:	e1 f7       	brne	.-8      	; 0x160 <.do_clear_bss_loop>
     168:	0e 94 e8 05 	call	0xbd0	; 0xbd0 <main>
     16c:	0c 94 b6 2d 	jmp	0x5b6c	; 0x5b6c <_exit>

00000170 <__bad_interrupt>:
     170:	0c 94 00 00 	jmp	0	; 0x0 <__vectors>

00000174 <CmpBMA180Init>:
Boolean CmpBMA180Init(void)
{
	Int8U control;
	Boolean conf;
	Boolean o_success = FALSE;
	if(BMA180_CHIP_ID == DrvTwiReadReg(BMA180_ADDRESS, BMA180_REG_CHIP_ID))
     174:	80 e4       	ldi	r24, 0x40	; 64
     176:	60 e0       	ldi	r22, 0x00	; 0
     178:	0e 94 91 0d 	call	0x1b22	; 0x1b22 <DrvTwiReadReg>
     17c:	83 30       	cpi	r24, 0x03	; 3
     17e:	11 f0       	breq	.+4      	; 0x184 <CmpBMA180Init+0x10>
//fonction init du capteur
Boolean CmpBMA180Init(void)
{
	Int8U control;
	Boolean conf;
	Boolean o_success = FALSE;
     180:	80 e0       	ldi	r24, 0x00	; 0
			DrvEepromReadAcc(accel_calib);
		}	
		o_success = TRUE;
	}
	return o_success;
}
     182:	08 95       	ret
	Int8U control;
	Boolean conf;
	Boolean o_success = FALSE;
	if(BMA180_CHIP_ID == DrvTwiReadReg(BMA180_ADDRESS, BMA180_REG_CHIP_ID))
	{
		DrvTimerDelayUs(200);
     184:	88 ec       	ldi	r24, 0xC8	; 200
     186:	90 e0       	ldi	r25, 0x00	; 0
     188:	0e 94 f5 0a 	call	0x15ea	; 0x15ea <DrvTimerDelayUs>
		//Write on EEPROM enable
		DrvTwiWriteReg(BMA180_ADDRESS,BMA180_REG_CTRL_REG0, 1U<<4U );
     18c:	80 e4       	ldi	r24, 0x40	; 64
     18e:	6d e0       	ldi	r22, 0x0D	; 13
     190:	40 e1       	ldi	r20, 0x10	; 16
     192:	0e 94 46 0d 	call	0x1a8c	; 0x1a8c <DrvTwiWriteReg>
		DrvTimerDelayUs(200);
     196:	88 ec       	ldi	r24, 0xC8	; 200
     198:	90 e0       	ldi	r25, 0x00	; 0
     19a:	0e 94 f5 0a 	call	0x15ea	; 0x15ea <DrvTimerDelayUs>
		//Bandwidth filters: 20Hz
		control = DrvTwiReadReg(BMA180_ADDRESS, BMA180_REG_BW_TCS);
     19e:	80 e4       	ldi	r24, 0x40	; 64
     1a0:	60 e2       	ldi	r22, 0x20	; 32
     1a2:	0e 94 91 0d 	call	0x1b22	; 0x1b22 <DrvTwiReadReg>
		control = control & 0x0F;        
     1a6:	48 2f       	mov	r20, r24
     1a8:	4f 70       	andi	r20, 0x0F	; 15
		control = control | (0x01 << 4); 
     1aa:	40 61       	ori	r20, 0x10	; 16
		DrvTwiWriteReg(BMA180_ADDRESS, BMA180_REG_BW_TCS, control);
     1ac:	80 e4       	ldi	r24, 0x40	; 64
     1ae:	60 e2       	ldi	r22, 0x20	; 32
     1b0:	0e 94 46 0d 	call	0x1a8c	; 0x1a8c <DrvTwiWriteReg>
		DrvTimerDelayUs(200);
     1b4:	88 ec       	ldi	r24, 0xC8	; 200
     1b6:	90 e0       	ldi	r25, 0x00	; 0
     1b8:	0e 94 f5 0a 	call	0x15ea	; 0x15ea <DrvTimerDelayUs>
		//Mode: Low-Noise
		control = DrvTwiReadReg(BMA180_ADDRESS, BMA180_REG_TC0_Z);
     1bc:	80 e4       	ldi	r24, 0x40	; 64
     1be:	60 e3       	ldi	r22, 0x30	; 48
     1c0:	0e 94 91 0d 	call	0x1b22	; 0x1b22 <DrvTwiReadReg>
		control = control & 0xFC;
     1c4:	48 2f       	mov	r20, r24
     1c6:	4c 7f       	andi	r20, 0xFC	; 252
		control = control | 0x00; 
		DrvTwiWriteReg(BMA180_ADDRESS, BMA180_REG_TC0_Z, control);
     1c8:	80 e4       	ldi	r24, 0x40	; 64
     1ca:	60 e3       	ldi	r22, 0x30	; 48
     1cc:	0e 94 46 0d 	call	0x1a8c	; 0x1a8c <DrvTwiWriteReg>
		DrvTimerDelayUs(200);
     1d0:	88 ec       	ldi	r24, 0xC8	; 200
     1d2:	90 e0       	ldi	r25, 0x00	; 0
     1d4:	0e 94 f5 0a 	call	0x15ea	; 0x15ea <DrvTimerDelayUs>
		//Range: +-8G
		control = DrvTwiReadReg(BMA180_ADDRESS, BMA180_REG_OFFSET_LSB1);
     1d8:	80 e4       	ldi	r24, 0x40	; 64
     1da:	65 e3       	ldi	r22, 0x35	; 53
     1dc:	0e 94 91 0d 	call	0x1b22	; 0x1b22 <DrvTwiReadReg>
		control = control & 0xF1;
     1e0:	48 2f       	mov	r20, r24
     1e2:	41 7f       	andi	r20, 0xF1	; 241
		control = control | (0x05 << 1); 
     1e4:	4a 60       	ori	r20, 0x0A	; 10
		DrvTwiWriteReg(BMA180_ADDRESS, BMA180_REG_OFFSET_LSB1, control);
     1e6:	80 e4       	ldi	r24, 0x40	; 64
     1e8:	65 e3       	ldi	r22, 0x35	; 53
     1ea:	0e 94 46 0d 	call	0x1a8c	; 0x1a8c <DrvTwiWriteReg>
		DrvTimerDelayUs(200);
     1ee:	88 ec       	ldi	r24, 0xC8	; 200
     1f0:	90 e0       	ldi	r25, 0x00	; 0
     1f2:	0e 94 f5 0a 	call	0x15ea	; 0x15ea <DrvTimerDelayUs>
		
		//Calibration du capteur
		//si l'eeprom est configué
		conf = DrvEepromIsConfigured();
     1f6:	0e 94 f6 06 	call	0xdec	; 0xdec <DrvEepromIsConfigured>
		if(conf == FALSE)	
     1fa:	88 23       	and	r24, r24
     1fc:	89 f4       	brne	.+34     	; 0x220 <CmpBMA180Init+0xac>
		{
			loop_calibration_bma180 = NB_SAMPLE_TO_CALIB_BMA180;
     1fe:	84 e6       	ldi	r24, 0x64	; 100
     200:	80 93 56 01 	sts	0x0156, r24
			accel_calib[0U] = 0;
     204:	10 92 58 01 	sts	0x0158, r1
     208:	10 92 57 01 	sts	0x0157, r1
			accel_calib[1U] = 0;
     20c:	10 92 5a 01 	sts	0x015A, r1
     210:	10 92 59 01 	sts	0x0159, r1
			accel_calib[2U] = 0;
     214:	10 92 5c 01 	sts	0x015C, r1
     218:	10 92 5b 01 	sts	0x015B, r1
		else
		{
			loop_calibration_bma180 = 0;
			DrvEepromReadAcc(accel_calib);
		}	
		o_success = TRUE;
     21c:	81 e0       	ldi	r24, 0x01	; 1
     21e:	08 95       	ret
			accel_calib[1U] = 0;
			accel_calib[2U] = 0;
		}	
		else
		{
			loop_calibration_bma180 = 0;
     220:	10 92 56 01 	sts	0x0156, r1
			DrvEepromReadAcc(accel_calib);
     224:	87 e5       	ldi	r24, 0x57	; 87
     226:	91 e0       	ldi	r25, 0x01	; 1
     228:	0e 94 f9 06 	call	0xdf2	; 0xdf2 <DrvEepromReadAcc>
		}	
		o_success = TRUE;
     22c:	81 e0       	ldi	r24, 0x01	; 1
     22e:	08 95       	ret

00000230 <CmpBMA180IsCalibrate>:
	return o_success;
}

Boolean CmpBMA180IsCalibrate(void)
{
	if(loop_calibration_bma180 == 0)
     230:	80 91 56 01 	lds	r24, 0x0156
     234:	88 23       	and	r24, r24
     236:	11 f0       	breq	.+4      	; 0x23c <CmpBMA180IsCalibrate+0xc>
	{
		DrvEepromWriteAcc(accel_calib);
		return TRUE;
	}
	return FALSE;
     238:	80 e0       	ldi	r24, 0x00	; 0
}
     23a:	08 95       	ret

Boolean CmpBMA180IsCalibrate(void)
{
	if(loop_calibration_bma180 == 0)
	{
		DrvEepromWriteAcc(accel_calib);
     23c:	87 e5       	ldi	r24, 0x57	; 87
     23e:	91 e0       	ldi	r25, 0x01	; 1
     240:	0e 94 30 07 	call	0xe60	; 0xe60 <DrvEepromWriteAcc>
		return TRUE;
     244:	81 e0       	ldi	r24, 0x01	; 1
     246:	08 95       	ret

00000248 <CmpBMA180GetAcceleration>:
}


//Rotation X Y Z
Boolean CmpBMA180GetAcceleration(S_Acc_Angle *acc)
{
     248:	0f 93       	push	r16
     24a:	1f 93       	push	r17
     24c:	df 93       	push	r29
     24e:	cf 93       	push	r28
     250:	00 d0       	rcall	.+0      	; 0x252 <CmpBMA180GetAcceleration+0xa>
     252:	00 d0       	rcall	.+0      	; 0x254 <CmpBMA180GetAcceleration+0xc>
     254:	00 d0       	rcall	.+0      	; 0x256 <CmpBMA180GetAcceleration+0xe>
     256:	cd b7       	in	r28, 0x3d	; 61
     258:	de b7       	in	r29, 0x3e	; 62
     25a:	8c 01       	movw	r16, r24
	Int8U buffer[ 6U ] = { 0, 0, 0, 0, 0, 0 };
     25c:	ae 01       	movw	r20, r28
     25e:	4f 5f       	subi	r20, 0xFF	; 255
     260:	5f 4f       	sbci	r21, 0xFF	; 255
     262:	86 e0       	ldi	r24, 0x06	; 6
     264:	fa 01       	movw	r30, r20
     266:	11 92       	st	Z+, r1
     268:	8a 95       	dec	r24
     26a:	e9 f7       	brne	.-6      	; 0x266 <CmpBMA180GetAcceleration+0x1e>

	if( DrvTwiReadRegBuf( BMA180_ADDRESS, BMA180_REG_ACC_X_LSB, buffer, 6U ) != 6U )
     26c:	80 e4       	ldi	r24, 0x40	; 64
     26e:	62 e0       	ldi	r22, 0x02	; 2
     270:	26 e0       	ldi	r18, 0x06	; 6
     272:	0e 94 c0 0c 	call	0x1980	; 0x1980 <DrvTwiReadRegBuf>
     276:	86 30       	cpi	r24, 0x06	; 6
     278:	61 f0       	breq	.+24     	; 0x292 <CmpBMA180GetAcceleration+0x4a>
	{
		return FALSE;
     27a:	80 e0       	ldi	r24, 0x00	; 0
			acc->y  -= accel_calib[1U];
			acc->z  -= accel_calib[2U];
		}
		return TRUE;
	}
}
     27c:	26 96       	adiw	r28, 0x06	; 6
     27e:	0f b6       	in	r0, 0x3f	; 63
     280:	f8 94       	cli
     282:	de bf       	out	0x3e, r29	; 62
     284:	0f be       	out	0x3f, r0	; 63
     286:	cd bf       	out	0x3d, r28	; 61
     288:	cf 91       	pop	r28
     28a:	df 91       	pop	r29
     28c:	1f 91       	pop	r17
     28e:	0f 91       	pop	r16
     290:	08 95       	ret
	{
		return FALSE;
	}
	else
	{
		acc->x = (Int16S)(((buffer[1U]<<8) | buffer[0U])/16);
     292:	3a 81       	ldd	r19, Y+2	; 0x02
     294:	20 e0       	ldi	r18, 0x00	; 0
     296:	89 81       	ldd	r24, Y+1	; 0x01
     298:	90 e0       	ldi	r25, 0x00	; 0
     29a:	82 2b       	or	r24, r18
     29c:	93 2b       	or	r25, r19
     29e:	97 fd       	sbrc	r25, 7
     2a0:	7d c0       	rjmp	.+250    	; 0x39c <CmpBMA180GetAcceleration+0x154>
     2a2:	ac 01       	movw	r20, r24
     2a4:	55 95       	asr	r21
     2a6:	47 95       	ror	r20
     2a8:	55 95       	asr	r21
     2aa:	47 95       	ror	r20
     2ac:	55 95       	asr	r21
     2ae:	47 95       	ror	r20
     2b0:	55 95       	asr	r21
     2b2:	47 95       	ror	r20
     2b4:	f8 01       	movw	r30, r16
     2b6:	51 83       	std	Z+1, r21	; 0x01
     2b8:	40 83       	st	Z, r20
		acc->y = (Int16S)(((buffer[3U]<<8) | buffer[2U])/16);
     2ba:	3c 81       	ldd	r19, Y+4	; 0x04
     2bc:	20 e0       	ldi	r18, 0x00	; 0
     2be:	8b 81       	ldd	r24, Y+3	; 0x03
     2c0:	90 e0       	ldi	r25, 0x00	; 0
     2c2:	82 2b       	or	r24, r18
     2c4:	93 2b       	or	r25, r19
     2c6:	97 fd       	sbrc	r25, 7
     2c8:	67 c0       	rjmp	.+206    	; 0x398 <CmpBMA180GetAcceleration+0x150>
     2ca:	bc 01       	movw	r22, r24
     2cc:	75 95       	asr	r23
     2ce:	67 95       	ror	r22
     2d0:	75 95       	asr	r23
     2d2:	67 95       	ror	r22
     2d4:	75 95       	asr	r23
     2d6:	67 95       	ror	r22
     2d8:	75 95       	asr	r23
     2da:	67 95       	ror	r22
     2dc:	f8 01       	movw	r30, r16
     2de:	73 83       	std	Z+3, r23	; 0x03
     2e0:	62 83       	std	Z+2, r22	; 0x02
		acc->z = (Int16S)(((buffer[5U]<<8) | buffer[4U])/16);
     2e2:	3e 81       	ldd	r19, Y+6	; 0x06
     2e4:	20 e0       	ldi	r18, 0x00	; 0
     2e6:	8d 81       	ldd	r24, Y+5	; 0x05
     2e8:	90 e0       	ldi	r25, 0x00	; 0
     2ea:	82 2b       	or	r24, r18
     2ec:	93 2b       	or	r25, r19
     2ee:	97 fd       	sbrc	r25, 7
     2f0:	51 c0       	rjmp	.+162    	; 0x394 <CmpBMA180GetAcceleration+0x14c>
     2f2:	9c 01       	movw	r18, r24
     2f4:	35 95       	asr	r19
     2f6:	27 95       	ror	r18
     2f8:	35 95       	asr	r19
     2fa:	27 95       	ror	r18
     2fc:	35 95       	asr	r19
     2fe:	27 95       	ror	r18
     300:	35 95       	asr	r19
     302:	27 95       	ror	r18
     304:	f8 01       	movw	r30, r16
     306:	35 83       	std	Z+5, r19	; 0x05
     308:	24 83       	std	Z+4, r18	; 0x04
		
		if(loop_calibration_bma180 > 0U)
     30a:	e0 91 56 01 	lds	r30, 0x0156
     30e:	ee 23       	and	r30, r30
     310:	31 f1       	breq	.+76     	; 0x35e <CmpBMA180GetAcceleration+0x116>
		{
			if( loop_calibration_bma180 == 1U )
     312:	e1 30       	cpi	r30, 0x01	; 1
     314:	09 f4       	brne	.+2      	; 0x318 <CmpBMA180GetAcceleration+0xd0>
     316:	44 c0       	rjmp	.+136    	; 0x3a0 <CmpBMA180GetAcceleration+0x158>
				accel_calib[2U] = accel_calib[2U] / (NB_SAMPLE_TO_CALIB_BMA180 - 1);
				accel_calib[2U] -= BMA180_ACC_1G;
			}
			else
			{
				accel_calib[0U] += acc->x;
     318:	80 91 57 01 	lds	r24, 0x0157
     31c:	90 91 58 01 	lds	r25, 0x0158
     320:	84 0f       	add	r24, r20
     322:	95 1f       	adc	r25, r21
     324:	90 93 58 01 	sts	0x0158, r25
     328:	80 93 57 01 	sts	0x0157, r24
				accel_calib[1U] += acc->y;
     32c:	80 91 59 01 	lds	r24, 0x0159
     330:	90 91 5a 01 	lds	r25, 0x015A
     334:	86 0f       	add	r24, r22
     336:	97 1f       	adc	r25, r23
     338:	90 93 5a 01 	sts	0x015A, r25
     33c:	80 93 59 01 	sts	0x0159, r24
				accel_calib[2U] += acc->z;
     340:	80 91 5b 01 	lds	r24, 0x015B
     344:	90 91 5c 01 	lds	r25, 0x015C
     348:	82 0f       	add	r24, r18
     34a:	93 1f       	adc	r25, r19
     34c:	90 93 5c 01 	sts	0x015C, r25
     350:	80 93 5b 01 	sts	0x015B, r24
			}
			loop_calibration_bma180--;
     354:	e1 50       	subi	r30, 0x01	; 1
     356:	e0 93 56 01 	sts	0x0156, r30
		{
			acc->x  -= accel_calib[0U];
			acc->y  -= accel_calib[1U];
			acc->z  -= accel_calib[2U];
		}
		return TRUE;
     35a:	81 e0       	ldi	r24, 0x01	; 1
     35c:	8f cf       	rjmp	.-226    	; 0x27c <CmpBMA180GetAcceleration+0x34>
			}
			loop_calibration_bma180--;
		}
		else
		{
			acc->x  -= accel_calib[0U];
     35e:	80 91 57 01 	lds	r24, 0x0157
     362:	90 91 58 01 	lds	r25, 0x0158
     366:	48 1b       	sub	r20, r24
     368:	59 0b       	sbc	r21, r25
     36a:	f8 01       	movw	r30, r16
     36c:	51 83       	std	Z+1, r21	; 0x01
     36e:	40 83       	st	Z, r20
			acc->y  -= accel_calib[1U];
     370:	80 91 59 01 	lds	r24, 0x0159
     374:	90 91 5a 01 	lds	r25, 0x015A
     378:	68 1b       	sub	r22, r24
     37a:	79 0b       	sbc	r23, r25
     37c:	73 83       	std	Z+3, r23	; 0x03
     37e:	62 83       	std	Z+2, r22	; 0x02
			acc->z  -= accel_calib[2U];
     380:	80 91 5b 01 	lds	r24, 0x015B
     384:	90 91 5c 01 	lds	r25, 0x015C
     388:	28 1b       	sub	r18, r24
     38a:	39 0b       	sbc	r19, r25
     38c:	35 83       	std	Z+5, r19	; 0x05
     38e:	24 83       	std	Z+4, r18	; 0x04
		}
		return TRUE;
     390:	81 e0       	ldi	r24, 0x01	; 1
     392:	74 cf       	rjmp	.-280    	; 0x27c <CmpBMA180GetAcceleration+0x34>
	}
	else
	{
		acc->x = (Int16S)(((buffer[1U]<<8) | buffer[0U])/16);
		acc->y = (Int16S)(((buffer[3U]<<8) | buffer[2U])/16);
		acc->z = (Int16S)(((buffer[5U]<<8) | buffer[4U])/16);
     394:	0f 96       	adiw	r24, 0x0f	; 15
     396:	ad cf       	rjmp	.-166    	; 0x2f2 <CmpBMA180GetAcceleration+0xaa>
		return FALSE;
	}
	else
	{
		acc->x = (Int16S)(((buffer[1U]<<8) | buffer[0U])/16);
		acc->y = (Int16S)(((buffer[3U]<<8) | buffer[2U])/16);
     398:	0f 96       	adiw	r24, 0x0f	; 15
     39a:	97 cf       	rjmp	.-210    	; 0x2ca <CmpBMA180GetAcceleration+0x82>
	{
		return FALSE;
	}
	else
	{
		acc->x = (Int16S)(((buffer[1U]<<8) | buffer[0U])/16);
     39c:	0f 96       	adiw	r24, 0x0f	; 15
     39e:	81 cf       	rjmp	.-254    	; 0x2a2 <CmpBMA180GetAcceleration+0x5a>
		
		if(loop_calibration_bma180 > 0U)
		{
			if( loop_calibration_bma180 == 1U )
			{
				accel_calib[0U] = accel_calib[0U] / (NB_SAMPLE_TO_CALIB_BMA180 - 1);
     3a0:	80 91 57 01 	lds	r24, 0x0157
     3a4:	90 91 58 01 	lds	r25, 0x0158
     3a8:	23 e6       	ldi	r18, 0x63	; 99
     3aa:	30 e0       	ldi	r19, 0x00	; 0
     3ac:	b9 01       	movw	r22, r18
     3ae:	0e 94 38 2a 	call	0x5470	; 0x5470 <__divmodhi4>
     3b2:	70 93 58 01 	sts	0x0158, r23
     3b6:	60 93 57 01 	sts	0x0157, r22
				accel_calib[1U] = accel_calib[1U] / (NB_SAMPLE_TO_CALIB_BMA180 - 1);
     3ba:	80 91 59 01 	lds	r24, 0x0159
     3be:	90 91 5a 01 	lds	r25, 0x015A
     3c2:	b9 01       	movw	r22, r18
     3c4:	0e 94 38 2a 	call	0x5470	; 0x5470 <__divmodhi4>
     3c8:	70 93 5a 01 	sts	0x015A, r23
     3cc:	60 93 59 01 	sts	0x0159, r22
				accel_calib[2U] = accel_calib[2U] / (NB_SAMPLE_TO_CALIB_BMA180 - 1);
     3d0:	80 91 5b 01 	lds	r24, 0x015B
     3d4:	90 91 5c 01 	lds	r25, 0x015C
     3d8:	b9 01       	movw	r22, r18
     3da:	0e 94 38 2a 	call	0x5470	; 0x5470 <__divmodhi4>
				accel_calib[2U] -= BMA180_ACC_1G;
     3de:	60 50       	subi	r22, 0x00	; 0
     3e0:	71 40       	sbci	r23, 0x01	; 1
     3e2:	70 93 5c 01 	sts	0x015C, r23
     3e6:	60 93 5b 01 	sts	0x015B, r22
     3ea:	b4 cf       	rjmp	.-152    	; 0x354 <CmpBMA180GetAcceleration+0x10c>

000003ec <CmpBMP085CallbackUT>:
}

//callback timer 
static void CmpBMP085CallbackUT( void ) 
{
	step_baro = STEP_READ_UT;
     3ec:	10 92 00 01 	sts	0x0100, r1
	SrvTimerAddTimer( CONF_TIMER_BMP085 , 15U, E_TIMER_MODE_ONE_SHOT, CmpBMP085CallbackUP);
     3f0:	81 e0       	ldi	r24, 0x01	; 1
     3f2:	6f e0       	ldi	r22, 0x0F	; 15
     3f4:	70 e0       	ldi	r23, 0x00	; 0
     3f6:	40 e0       	ldi	r20, 0x00	; 0
     3f8:	21 e0       	ldi	r18, 0x01	; 1
     3fa:	32 e0       	ldi	r19, 0x02	; 2
     3fc:	0e 94 20 23 	call	0x4640	; 0x4640 <SrvTimerAddTimer>
}
     400:	08 95       	ret

00000402 <CmpBMP085CallbackUP>:

//callback timer
static void CmpBMP085CallbackUP( void )
{
	step_baro = STEP_READ_UP;
     402:	81 e0       	ldi	r24, 0x01	; 1
     404:	80 93 00 01 	sts	0x0100, r24
	SrvTimerStopTimer( CONF_TIMER_BMP085 );
     408:	0e 94 44 23 	call	0x4688	; 0x4688 <SrvTimerStopTimer>
}
     40c:	08 95       	ret

0000040e <CmpBMP085Init>:

//Initialisation du barometre
Boolean CmpBMP085Init( void )
{
	Boolean o_success = FALSE;
	pressure = 0U;
     40e:	10 92 5d 01 	sts	0x015D, r1
     412:	10 92 5e 01 	sts	0x015E, r1
     416:	10 92 5f 01 	sts	0x015F, r1
     41a:	10 92 60 01 	sts	0x0160, r1
//read all value
static void CmpBMP085ReadCalibration( void )
{
  //read calibration data in one go
  size_t s_bytes = (Int8U*)&s_barometer.md - (Int8U*)&s_barometer.ac1 + sizeof(s_barometer.ac1);
  DrvTwiReadRegBuf(BMP085_ADDRESS, CAL_AC1, &s_barometer.ac1, s_bytes);
     41e:	87 e7       	ldi	r24, 0x77	; 119
     420:	6a ea       	ldi	r22, 0xAA	; 170
     422:	4b e9       	ldi	r20, 0x9B	; 155
     424:	52 e0       	ldi	r21, 0x02	; 2
     426:	26 e1       	ldi	r18, 0x16	; 22
     428:	0e 94 c0 0c 	call	0x1980	; 0x1980 <DrvTwiReadRegBuf>
  // now fix endianness
  Int16S *p;
  for (p = &s_barometer.ac1; p <= &s_barometer.md; p++)
     42c:	2b e9       	ldi	r18, 0x9B	; 155
     42e:	32 e0       	ldi	r19, 0x02	; 2

static Int8U step_baro = STEP_NONE;


//Initialisation du barometre
Boolean CmpBMP085Init( void )
     430:	d9 01       	movw	r26, r18
  //read calibration data in one go
  size_t s_bytes = (Int8U*)&s_barometer.md - (Int8U*)&s_barometer.ac1 + sizeof(s_barometer.ac1);
  DrvTwiReadRegBuf(BMP085_ADDRESS, CAL_AC1, &s_barometer.ac1, s_bytes);
  // now fix endianness
  Int16S *p;
  for (p = &s_barometer.ac1; p <= &s_barometer.md; p++)
     432:	f9 01       	movw	r30, r18
  uint8_t tray;
  uint8_t *from;
  uint8_t *to;
  /* keep swapping until the pointers have assed each other */
  for (from = (uint8_t*)buf, to = &from[size-1]; from < to; from++, to--) {
    tray = *from;
     434:	4c 91       	ld	r20, X

static Int8U step_baro = STEP_NONE;


//Initialisation du barometre
Boolean CmpBMP085Init( void )
     436:	cf 01       	movw	r24, r30
    *from = *to;
     438:	51 81       	ldd	r21, Z+1	; 0x01
     43a:	5d 93       	st	X+, r21
    *to = tray;
     43c:	41 83       	std	Z+1, r20	; 0x01
     43e:	31 97       	sbiw	r30, 0x01	; 1
  */
  uint8_t tray;
  uint8_t *from;
  uint8_t *to;
  /* keep swapping until the pointers have assed each other */
  for (from = (uint8_t*)buf, to = &from[size-1]; from < to; from++, to--) {
     440:	a8 17       	cp	r26, r24
     442:	b9 07       	cpc	r27, r25
     444:	b8 f3       	brcs	.-18     	; 0x434 <CmpBMP085Init+0x26>
  //read calibration data in one go
  size_t s_bytes = (Int8U*)&s_barometer.md - (Int8U*)&s_barometer.ac1 + sizeof(s_barometer.ac1);
  DrvTwiReadRegBuf(BMP085_ADDRESS, CAL_AC1, &s_barometer.ac1, s_bytes);
  // now fix endianness
  Int16S *p;
  for (p = &s_barometer.ac1; p <= &s_barometer.md; p++)
     446:	2e 5f       	subi	r18, 0xFE	; 254
     448:	3f 4f       	sbci	r19, 0xFF	; 255
     44a:	82 e0       	ldi	r24, 0x02	; 2
     44c:	21 3b       	cpi	r18, 0xB1	; 177
     44e:	38 07       	cpc	r19, r24
     450:	79 f7       	brne	.-34     	; 0x430 <CmpBMP085Init+0x22>
	Boolean o_success = FALSE;
	pressure = 0U;
	CmpBMP085ReadCalibration();
	o_success = TRUE;
	return o_success;
}
     452:	81 e0       	ldi	r24, 0x01	; 1
     454:	08 95       	ret

00000456 <CmpBMP085GetAltitude>:

//Get altitude du barometre
Int32U CmpBMP085GetAltitude( void )
{	
     456:	6f 92       	push	r6
     458:	7f 92       	push	r7
     45a:	8f 92       	push	r8
     45c:	9f 92       	push	r9
     45e:	af 92       	push	r10
     460:	bf 92       	push	r11
     462:	cf 92       	push	r12
     464:	df 92       	push	r13
     466:	ef 92       	push	r14
     468:	ff 92       	push	r15
     46a:	0f 93       	push	r16
     46c:	1f 93       	push	r17
     46e:	df 93       	push	r29
     470:	cf 93       	push	r28
     472:	00 d0       	rcall	.+0      	; 0x474 <CmpBMP085GetAltitude+0x1e>
     474:	0f 92       	push	r0
     476:	cd b7       	in	r28, 0x3d	; 61
     478:	de b7       	in	r29, 0x3e	; 62
	if( step_baro == STEP_READ_UT )
     47a:	80 91 00 01 	lds	r24, 0x0100
     47e:	88 23       	and	r24, r24
     480:	f9 f0       	breq	.+62     	; 0x4c0 <CmpBMP085GetAltitude+0x6a>
	{
		CmpBMP085ReadUT();
		CmpBMP085StartUP();		
		step_baro = STEP_NONE;
	}
	else if( step_baro == STEP_READ_UP )
     482:	81 30       	cpi	r24, 0x01	; 1
     484:	09 f4       	brne	.+2      	; 0x488 <CmpBMP085GetAltitude+0x32>
     486:	ef c1       	rjmp	.+990    	; 0x866 <CmpBMP085GetAltitude+0x410>
	{
		CmpBMP085ReadUP();
		step_baro = STEP_COMPUTE;
	}
	else if( step_baro == STEP_COMPUTE )
     488:	82 30       	cpi	r24, 0x02	; 2
     48a:	99 f1       	breq	.+102    	; 0x4f2 <CmpBMP085GetAltitude+0x9c>
		step_baro = STEP_NONE;
	}
	else if( step_baro == STEP_READ_UP )
	{
		CmpBMP085ReadUP();
		step_baro = STEP_COMPUTE;
     48c:	60 91 61 01 	lds	r22, 0x0161
     490:	70 91 62 01 	lds	r23, 0x0162
     494:	80 91 63 01 	lds	r24, 0x0163
     498:	90 91 64 01 	lds	r25, 0x0164
	else
	{
		//		
	}		
	return BaroAlt;
}
     49c:	0f 90       	pop	r0
     49e:	0f 90       	pop	r0
     4a0:	0f 90       	pop	r0
     4a2:	cf 91       	pop	r28
     4a4:	df 91       	pop	r29
     4a6:	1f 91       	pop	r17
     4a8:	0f 91       	pop	r16
     4aa:	ff 90       	pop	r15
     4ac:	ef 90       	pop	r14
     4ae:	df 90       	pop	r13
     4b0:	cf 90       	pop	r12
     4b2:	bf 90       	pop	r11
     4b4:	af 90       	pop	r10
     4b6:	9f 90       	pop	r9
     4b8:	8f 90       	pop	r8
     4ba:	7f 90       	pop	r7
     4bc:	6f 90       	pop	r6
     4be:	08 95       	ret
}	

// read uncompensated temperature value: read result bytes
static void CmpBMP085ReadUT( void )
{
	Int8U buffer[ 2U ] = {0U, 0U};
     4c0:	19 82       	std	Y+1, r1	; 0x01
     4c2:	1a 82       	std	Y+2, r1	; 0x02
	DrvTwiReadRegBuf(BMP085_ADDRESS, CONTROL_OUTPUT, buffer, 2U);
     4c4:	87 e7       	ldi	r24, 0x77	; 119
     4c6:	66 ef       	ldi	r22, 0xF6	; 246
     4c8:	ae 01       	movw	r20, r28
     4ca:	4f 5f       	subi	r20, 0xFF	; 255
     4cc:	5f 4f       	sbci	r21, 0xFF	; 255
     4ce:	22 e0       	ldi	r18, 0x02	; 2
     4d0:	0e 94 c0 0c 	call	0x1980	; 0x1980 <DrvTwiReadRegBuf>
	s_barometer.ut.raw[1] = buffer[ 0U ];
     4d4:	89 81       	ldd	r24, Y+1	; 0x01
     4d6:	80 93 b2 02 	sts	0x02B2, r24
	s_barometer.ut.raw[0] = buffer[ 1U ];
     4da:	8a 81       	ldd	r24, Y+2	; 0x02
     4dc:	80 93 b1 02 	sts	0x02B1, r24
}

// read uncompensated pressure value: send command first
static void CmpBMP085StartUP( void ) 
{
	DrvTwiWriteReg(BMP085_ADDRESS, CONTROL, READ_PRESSURE + ( OSS << 6U ) );
     4e0:	87 e7       	ldi	r24, 0x77	; 119
     4e2:	64 ef       	ldi	r22, 0xF4	; 244
     4e4:	44 eb       	ldi	r20, 0xB4	; 180
     4e6:	0e 94 46 0d 	call	0x1a8c	; 0x1a8c <DrvTwiWriteReg>
{	
	if( step_baro == STEP_READ_UT )
	{
		CmpBMP085ReadUT();
		CmpBMP085StartUP();		
		step_baro = STEP_NONE;
     4ea:	83 e0       	ldi	r24, 0x03	; 3
	}
	else if( step_baro == STEP_READ_UP )
	{
		CmpBMP085ReadUP();
		step_baro = STEP_COMPUTE;
     4ec:	80 93 00 01 	sts	0x0100, r24
     4f0:	cd cf       	rjmp	.-102    	; 0x48c <CmpBMP085GetAltitude+0x36>
static void CmpBMP085Compute( void ) 
{
  Int32S  x1, x2, x3, b3, b5, b6, p, tmp;
  Int32U b4, b7;
  // Temperature calculations
  x1 = ((Int32S)s_barometer.ut.val - s_barometer.ac6) * s_barometer.ac5 >> 15U;
     4f2:	60 91 b1 02 	lds	r22, 0x02B1
     4f6:	70 91 b2 02 	lds	r23, 0x02B2
     4fa:	80 e0       	ldi	r24, 0x00	; 0
     4fc:	90 e0       	ldi	r25, 0x00	; 0
     4fe:	20 91 a5 02 	lds	r18, 0x02A5
     502:	30 91 a6 02 	lds	r19, 0x02A6
     506:	40 e0       	ldi	r20, 0x00	; 0
     508:	50 e0       	ldi	r21, 0x00	; 0
     50a:	62 1b       	sub	r22, r18
     50c:	73 0b       	sbc	r23, r19
     50e:	84 0b       	sbc	r24, r20
     510:	95 0b       	sbc	r25, r21
     512:	20 91 a3 02 	lds	r18, 0x02A3
     516:	30 91 a4 02 	lds	r19, 0x02A4
     51a:	40 e0       	ldi	r20, 0x00	; 0
     51c:	50 e0       	ldi	r21, 0x00	; 0
     51e:	0e 94 19 2a 	call	0x5432	; 0x5432 <__mulsi3>
     522:	7b 01       	movw	r14, r22
     524:	8c 01       	movw	r16, r24
     526:	bf e0       	ldi	r27, 0x0F	; 15
     528:	15 95       	asr	r17
     52a:	07 95       	ror	r16
     52c:	f7 94       	ror	r15
     52e:	e7 94       	ror	r14
     530:	ba 95       	dec	r27
     532:	d1 f7       	brne	.-12     	; 0x528 <CmpBMP085GetAltitude+0xd2>
  x2 = ((Int32S)s_barometer.mc << 11U) / (x1 + s_barometer.md);
     534:	60 91 ad 02 	lds	r22, 0x02AD
     538:	70 91 ae 02 	lds	r23, 0x02AE
     53c:	88 27       	eor	r24, r24
     53e:	77 fd       	sbrc	r23, 7
     540:	80 95       	com	r24
     542:	98 2f       	mov	r25, r24
     544:	ab e0       	ldi	r26, 0x0B	; 11
     546:	66 0f       	add	r22, r22
     548:	77 1f       	adc	r23, r23
     54a:	88 1f       	adc	r24, r24
     54c:	99 1f       	adc	r25, r25
     54e:	aa 95       	dec	r26
     550:	d1 f7       	brne	.-12     	; 0x546 <CmpBMP085GetAltitude+0xf0>
     552:	20 91 af 02 	lds	r18, 0x02AF
     556:	30 91 b0 02 	lds	r19, 0x02B0
     55a:	44 27       	eor	r20, r20
     55c:	37 fd       	sbrc	r19, 7
     55e:	40 95       	com	r20
     560:	54 2f       	mov	r21, r20
     562:	2e 0d       	add	r18, r14
     564:	3f 1d       	adc	r19, r15
     566:	40 1f       	adc	r20, r16
     568:	51 1f       	adc	r21, r17
     56a:	0e 94 6d 2a 	call	0x54da	; 0x54da <__divmodsi4>
  b5 = x1 + x2;
     56e:	2e 0d       	add	r18, r14
     570:	3f 1d       	adc	r19, r15
     572:	40 1f       	adc	r20, r16
     574:	51 1f       	adc	r21, r17
  temperature = (b5 + 8U)>>4U;
     576:	da 01       	movw	r26, r20
     578:	c9 01       	movw	r24, r18
     57a:	08 96       	adiw	r24, 0x08	; 8
     57c:	a1 1d       	adc	r26, r1
     57e:	b1 1d       	adc	r27, r1
     580:	f4 e0       	ldi	r31, 0x04	; 4
     582:	b5 95       	asr	r27
     584:	a7 95       	ror	r26
     586:	97 95       	ror	r25
     588:	87 95       	ror	r24
     58a:	fa 95       	dec	r31
     58c:	d1 f7       	brne	.-12     	; 0x582 <CmpBMP085GetAltitude+0x12c>
     58e:	90 93 cb 02 	sts	0x02CB, r25
     592:	80 93 ca 02 	sts	0x02CA, r24
  // Pressure calculations
  b6 = b5 - 4000U;
     596:	e0 e6       	ldi	r30, 0x60	; 96
     598:	ee 2e       	mov	r14, r30
     59a:	e0 ef       	ldi	r30, 0xF0	; 240
     59c:	fe 2e       	mov	r15, r30
     59e:	ef ef       	ldi	r30, 0xFF	; 255
     5a0:	0e 2f       	mov	r16, r30
     5a2:	ef ef       	ldi	r30, 0xFF	; 255
     5a4:	1e 2f       	mov	r17, r30
     5a6:	e2 0e       	add	r14, r18
     5a8:	f3 1e       	adc	r15, r19
     5aa:	04 1f       	adc	r16, r20
     5ac:	15 1f       	adc	r17, r21
  x1 = (s_barometer.b2 * (b6 * b6 >> 12)) >> 11U; 
     5ae:	c8 01       	movw	r24, r16
     5b0:	b7 01       	movw	r22, r14
     5b2:	a8 01       	movw	r20, r16
     5b4:	97 01       	movw	r18, r14
     5b6:	0e 94 19 2a 	call	0x5432	; 0x5432 <__mulsi3>
     5ba:	3b 01       	movw	r6, r22
     5bc:	4c 01       	movw	r8, r24
     5be:	7c e0       	ldi	r23, 0x0C	; 12
     5c0:	95 94       	asr	r9
     5c2:	87 94       	ror	r8
     5c4:	77 94       	ror	r7
     5c6:	67 94       	ror	r6
     5c8:	7a 95       	dec	r23
     5ca:	d1 f7       	brne	.-12     	; 0x5c0 <CmpBMP085GetAltitude+0x16a>
  x2 = s_barometer.ac2 * b6 >> 11U;
     5cc:	20 91 9d 02 	lds	r18, 0x029D
     5d0:	30 91 9e 02 	lds	r19, 0x029E
     5d4:	44 27       	eor	r20, r20
     5d6:	37 fd       	sbrc	r19, 7
     5d8:	40 95       	com	r20
     5da:	54 2f       	mov	r21, r20
     5dc:	c8 01       	movw	r24, r16
     5de:	b7 01       	movw	r22, r14
     5e0:	0e 94 19 2a 	call	0x5432	; 0x5432 <__mulsi3>
     5e4:	5b 01       	movw	r10, r22
     5e6:	6c 01       	movw	r12, r24
     5e8:	6b e0       	ldi	r22, 0x0B	; 11
     5ea:	d5 94       	asr	r13
     5ec:	c7 94       	ror	r12
     5ee:	b7 94       	ror	r11
     5f0:	a7 94       	ror	r10
     5f2:	6a 95       	dec	r22
     5f4:	d1 f7       	brne	.-12     	; 0x5ea <CmpBMP085GetAltitude+0x194>
  x3 = x1 + x2;
  tmp = s_barometer.ac1;
     5f6:	80 91 9b 02 	lds	r24, 0x029B
     5fa:	90 91 9c 02 	lds	r25, 0x029C
     5fe:	aa 27       	eor	r26, r26
     600:	97 fd       	sbrc	r25, 7
     602:	a0 95       	com	r26
     604:	ba 2f       	mov	r27, r26
  tmp = (tmp*4U + x3) << OSS;
     606:	88 0f       	add	r24, r24
     608:	99 1f       	adc	r25, r25
     60a:	aa 1f       	adc	r26, r26
     60c:	bb 1f       	adc	r27, r27
     60e:	88 0f       	add	r24, r24
     610:	99 1f       	adc	r25, r25
     612:	aa 1f       	adc	r26, r26
     614:	bb 1f       	adc	r27, r27
  temperature = (b5 + 8U)>>4U;
  // Pressure calculations
  b6 = b5 - 4000U;
  x1 = (s_barometer.b2 * (b6 * b6 >> 12)) >> 11U; 
  x2 = s_barometer.ac2 * b6 >> 11U;
  x3 = x1 + x2;
     616:	a8 0e       	add	r10, r24
     618:	b9 1e       	adc	r11, r25
     61a:	ca 1e       	adc	r12, r26
     61c:	db 1e       	adc	r13, r27
  x2 = ((Int32S)s_barometer.mc << 11U) / (x1 + s_barometer.md);
  b5 = x1 + x2;
  temperature = (b5 + 8U)>>4U;
  // Pressure calculations
  b6 = b5 - 4000U;
  x1 = (s_barometer.b2 * (b6 * b6 >> 12)) >> 11U; 
     61e:	20 91 a9 02 	lds	r18, 0x02A9
     622:	30 91 aa 02 	lds	r19, 0x02AA
     626:	44 27       	eor	r20, r20
     628:	37 fd       	sbrc	r19, 7
     62a:	40 95       	com	r20
     62c:	54 2f       	mov	r21, r20
     62e:	c4 01       	movw	r24, r8
     630:	b3 01       	movw	r22, r6
     632:	0e 94 19 2a 	call	0x5432	; 0x5432 <__mulsi3>
     636:	4b e0       	ldi	r20, 0x0B	; 11
     638:	95 95       	asr	r25
     63a:	87 95       	ror	r24
     63c:	77 95       	ror	r23
     63e:	67 95       	ror	r22
     640:	4a 95       	dec	r20
     642:	d1 f7       	brne	.-12     	; 0x638 <CmpBMP085GetAltitude+0x1e2>
  x2 = s_barometer.ac2 * b6 >> 11U;
  x3 = x1 + x2;
  tmp = s_barometer.ac1;
  tmp = (tmp*4U + x3) << OSS;
     644:	a6 0e       	add	r10, r22
     646:	b7 1e       	adc	r11, r23
     648:	c8 1e       	adc	r12, r24
     64a:	d9 1e       	adc	r13, r25
  b3 = (tmp+2U)/4U;
  x1 = s_barometer.ac3 * b6 >> 13U;
     64c:	20 91 9f 02 	lds	r18, 0x029F
     650:	30 91 a0 02 	lds	r19, 0x02A0
     654:	44 27       	eor	r20, r20
     656:	37 fd       	sbrc	r19, 7
     658:	40 95       	com	r20
     65a:	54 2f       	mov	r21, r20
     65c:	c8 01       	movw	r24, r16
     65e:	b7 01       	movw	r22, r14
     660:	0e 94 19 2a 	call	0x5432	; 0x5432 <__mulsi3>
     664:	7b 01       	movw	r14, r22
     666:	8c 01       	movw	r16, r24
     668:	3d e0       	ldi	r19, 0x0D	; 13
     66a:	15 95       	asr	r17
     66c:	07 95       	ror	r16
     66e:	f7 94       	ror	r15
     670:	e7 94       	ror	r14
     672:	3a 95       	dec	r19
     674:	d1 f7       	brne	.-12     	; 0x66a <CmpBMP085GetAltitude+0x214>
  x2 = (s_barometer.b1 * (b6 * b6 >> 12U)) >> 16U;
  x3 = ((x1 + x2) + 2U) >> 2U;
     676:	82 e0       	ldi	r24, 0x02	; 2
     678:	90 e0       	ldi	r25, 0x00	; 0
     67a:	a0 e0       	ldi	r26, 0x00	; 0
     67c:	b0 e0       	ldi	r27, 0x00	; 0
     67e:	e8 0e       	add	r14, r24
     680:	f9 1e       	adc	r15, r25
     682:	0a 1f       	adc	r16, r26
     684:	1b 1f       	adc	r17, r27
  x3 = x1 + x2;
  tmp = s_barometer.ac1;
  tmp = (tmp*4U + x3) << OSS;
  b3 = (tmp+2U)/4U;
  x1 = s_barometer.ac3 * b6 >> 13U;
  x2 = (s_barometer.b1 * (b6 * b6 >> 12U)) >> 16U;
     686:	20 91 a7 02 	lds	r18, 0x02A7
     68a:	30 91 a8 02 	lds	r19, 0x02A8
     68e:	44 27       	eor	r20, r20
     690:	37 fd       	sbrc	r19, 7
     692:	40 95       	com	r20
     694:	54 2f       	mov	r21, r20
     696:	c4 01       	movw	r24, r8
     698:	b3 01       	movw	r22, r6
     69a:	0e 94 19 2a 	call	0x5432	; 0x5432 <__mulsi3>
     69e:	bc 01       	movw	r22, r24
     6a0:	99 27       	eor	r25, r25
     6a2:	77 fd       	sbrc	r23, 7
     6a4:	90 95       	com	r25
     6a6:	89 2f       	mov	r24, r25
  x3 = ((x1 + x2) + 2U) >> 2U;
     6a8:	e6 0e       	add	r14, r22
     6aa:	f7 1e       	adc	r15, r23
     6ac:	08 1f       	adc	r16, r24
     6ae:	19 1f       	adc	r17, r25
     6b0:	15 95       	asr	r17
     6b2:	07 95       	ror	r16
     6b4:	f7 94       	ror	r15
     6b6:	e7 94       	ror	r14
     6b8:	15 95       	asr	r17
     6ba:	07 95       	ror	r16
     6bc:	f7 94       	ror	r15
     6be:	e7 94       	ror	r14
  b4 = (s_barometer.ac4 * (Int32U)(x3 + 32768U)) >> 15U;
     6c0:	80 e0       	ldi	r24, 0x00	; 0
     6c2:	90 e8       	ldi	r25, 0x80	; 128
     6c4:	a0 e0       	ldi	r26, 0x00	; 0
     6c6:	b0 e0       	ldi	r27, 0x00	; 0
     6c8:	e8 0e       	add	r14, r24
     6ca:	f9 1e       	adc	r15, r25
     6cc:	0a 1f       	adc	r16, r26
     6ce:	1b 1f       	adc	r17, r27
     6d0:	20 91 a1 02 	lds	r18, 0x02A1
     6d4:	30 91 a2 02 	lds	r19, 0x02A2
     6d8:	40 e0       	ldi	r20, 0x00	; 0
     6da:	50 e0       	ldi	r21, 0x00	; 0
     6dc:	c8 01       	movw	r24, r16
     6de:	b7 01       	movw	r22, r14
     6e0:	0e 94 19 2a 	call	0x5432	; 0x5432 <__mulsi3>
     6e4:	3b 01       	movw	r6, r22
     6e6:	4c 01       	movw	r8, r24
     6e8:	bf e0       	ldi	r27, 0x0F	; 15
     6ea:	96 94       	lsr	r9
     6ec:	87 94       	ror	r8
     6ee:	77 94       	ror	r7
     6f0:	67 94       	ror	r6
     6f2:	ba 95       	dec	r27
     6f4:	d1 f7       	brne	.-12     	; 0x6ea <CmpBMP085GetAltitude+0x294>
  b7 = ((Int32U) (s_barometer.up.val >> (8U-OSS)) - b3) * (50000U >> OSS);
     6f6:	e0 90 b3 02 	lds	r14, 0x02B3
     6fa:	f0 90 b4 02 	lds	r15, 0x02B4
     6fe:	00 91 b5 02 	lds	r16, 0x02B5
     702:	10 91 b6 02 	lds	r17, 0x02B6
     706:	a6 e0       	ldi	r26, 0x06	; 6
     708:	16 95       	lsr	r17
     70a:	07 95       	ror	r16
     70c:	f7 94       	ror	r15
     70e:	e7 94       	ror	r14
     710:	aa 95       	dec	r26
     712:	d1 f7       	brne	.-12     	; 0x708 <CmpBMP085GetAltitude+0x2b2>
  b6 = b5 - 4000U;
  x1 = (s_barometer.b2 * (b6 * b6 >> 12)) >> 11U; 
  x2 = s_barometer.ac2 * b6 >> 11U;
  x3 = x1 + x2;
  tmp = s_barometer.ac1;
  tmp = (tmp*4U + x3) << OSS;
     714:	aa 0c       	add	r10, r10
     716:	bb 1c       	adc	r11, r11
     718:	cc 1c       	adc	r12, r12
     71a:	dd 1c       	adc	r13, r13
     71c:	aa 0c       	add	r10, r10
     71e:	bb 1c       	adc	r11, r11
     720:	cc 1c       	adc	r12, r12
     722:	dd 1c       	adc	r13, r13
  b3 = (tmp+2U)/4U;
     724:	82 e0       	ldi	r24, 0x02	; 2
     726:	90 e0       	ldi	r25, 0x00	; 0
     728:	a0 e0       	ldi	r26, 0x00	; 0
     72a:	b0 e0       	ldi	r27, 0x00	; 0
     72c:	a8 0e       	add	r10, r24
     72e:	b9 1e       	adc	r11, r25
     730:	ca 1e       	adc	r12, r26
     732:	db 1e       	adc	r13, r27
     734:	c6 01       	movw	r24, r12
     736:	b5 01       	movw	r22, r10
     738:	24 e0       	ldi	r18, 0x04	; 4
     73a:	30 e0       	ldi	r19, 0x00	; 0
     73c:	40 e0       	ldi	r20, 0x00	; 0
     73e:	50 e0       	ldi	r21, 0x00	; 0
     740:	0e 94 6d 2a 	call	0x54da	; 0x54da <__divmodsi4>
  x1 = s_barometer.ac3 * b6 >> 13U;
  x2 = (s_barometer.b1 * (b6 * b6 >> 12U)) >> 16U;
  x3 = ((x1 + x2) + 2U) >> 2U;
  b4 = (s_barometer.ac4 * (Int32U)(x3 + 32768U)) >> 15U;
  b7 = ((Int32U) (s_barometer.up.val >> (8U-OSS)) - b3) * (50000U >> OSS);
     744:	e2 1a       	sub	r14, r18
     746:	f3 0a       	sbc	r15, r19
     748:	04 0b       	sbc	r16, r20
     74a:	15 0b       	sbc	r17, r21
     74c:	c8 01       	movw	r24, r16
     74e:	b7 01       	movw	r22, r14
     750:	24 ed       	ldi	r18, 0xD4	; 212
     752:	30 e3       	ldi	r19, 0x30	; 48
     754:	40 e0       	ldi	r20, 0x00	; 0
     756:	50 e0       	ldi	r21, 0x00	; 0
     758:	0e 94 19 2a 	call	0x5432	; 0x5432 <__mulsi3>
  p = b7 < 0x80000000 ? (b7 * 2U) / b4 : (b7 / b4) * 2U;
     75c:	97 fd       	sbrc	r25, 7
     75e:	99 c0       	rjmp	.+306    	; 0x892 <CmpBMP085GetAltitude+0x43c>
     760:	66 0f       	add	r22, r22
     762:	77 1f       	adc	r23, r23
     764:	88 1f       	adc	r24, r24
     766:	99 1f       	adc	r25, r25
     768:	a4 01       	movw	r20, r8
     76a:	93 01       	movw	r18, r6
     76c:	0e 94 4b 2a 	call	0x5496	; 0x5496 <__udivmodsi4>
     770:	79 01       	movw	r14, r18
     772:	8a 01       	movw	r16, r20
  x1 = (p >> 8U) * (p >> 8U);
     774:	55 27       	eor	r21, r21
     776:	17 fd       	sbrc	r17, 7
     778:	5a 95       	dec	r21
     77a:	41 2f       	mov	r20, r17
     77c:	30 2f       	mov	r19, r16
     77e:	2f 2d       	mov	r18, r15
     780:	ca 01       	movw	r24, r20
     782:	b9 01       	movw	r22, r18
     784:	0e 94 19 2a 	call	0x5432	; 0x5432 <__mulsi3>
  x1 = (x1 * 3038U) >> 16U;
     788:	2e ed       	ldi	r18, 0xDE	; 222
     78a:	3b e0       	ldi	r19, 0x0B	; 11
     78c:	40 e0       	ldi	r20, 0x00	; 0
     78e:	50 e0       	ldi	r21, 0x00	; 0
     790:	0e 94 19 2a 	call	0x5432	; 0x5432 <__mulsi3>
     794:	5b 01       	movw	r10, r22
     796:	6c 01       	movw	r12, r24
  x2 = (-7357 * p) >> 16U;
     798:	c8 01       	movw	r24, r16
     79a:	b7 01       	movw	r22, r14
     79c:	23 e4       	ldi	r18, 0x43	; 67
     79e:	33 ee       	ldi	r19, 0xE3	; 227
     7a0:	4f ef       	ldi	r20, 0xFF	; 255
     7a2:	5f ef       	ldi	r21, 0xFF	; 255
     7a4:	0e 94 19 2a 	call	0x5432	; 0x5432 <__mulsi3>
     7a8:	bc 01       	movw	r22, r24
     7aa:	99 27       	eor	r25, r25
     7ac:	77 fd       	sbrc	r23, 7
     7ae:	90 95       	com	r25
     7b0:	89 2f       	mov	r24, r25
  pressure = p + ((x1 + x2 + 3791U) >> 4U);
     7b2:	61 53       	subi	r22, 0x31	; 49
     7b4:	71 4f       	sbci	r23, 0xF1	; 241
     7b6:	8f 4f       	sbci	r24, 0xFF	; 255
     7b8:	9f 4f       	sbci	r25, 0xFF	; 255
  x3 = ((x1 + x2) + 2U) >> 2U;
  b4 = (s_barometer.ac4 * (Int32U)(x3 + 32768U)) >> 15U;
  b7 = ((Int32U) (s_barometer.up.val >> (8U-OSS)) - b3) * (50000U >> OSS);
  p = b7 < 0x80000000 ? (b7 * 2U) / b4 : (b7 / b4) * 2U;
  x1 = (p >> 8U) * (p >> 8U);
  x1 = (x1 * 3038U) >> 16U;
     7ba:	56 01       	movw	r10, r12
     7bc:	dd 24       	eor	r13, r13
     7be:	b7 fc       	sbrc	r11, 7
     7c0:	d0 94       	com	r13
     7c2:	cd 2c       	mov	r12, r13
  x2 = (-7357 * p) >> 16U;
  pressure = p + ((x1 + x2 + 3791U) >> 4U);
     7c4:	6a 0d       	add	r22, r10
     7c6:	7b 1d       	adc	r23, r11
     7c8:	8c 1d       	adc	r24, r12
     7ca:	9d 1d       	adc	r25, r13
     7cc:	24 e0       	ldi	r18, 0x04	; 4
     7ce:	95 95       	asr	r25
     7d0:	87 95       	ror	r24
     7d2:	77 95       	ror	r23
     7d4:	67 95       	ror	r22
     7d6:	2a 95       	dec	r18
     7d8:	d1 f7       	brne	.-12     	; 0x7ce <CmpBMP085GetAltitude+0x378>
     7da:	6e 0d       	add	r22, r14
     7dc:	7f 1d       	adc	r23, r15
     7de:	80 1f       	adc	r24, r16
     7e0:	91 1f       	adc	r25, r17
     7e2:	60 93 5d 01 	sts	0x015D, r22
     7e6:	70 93 5e 01 	sts	0x015E, r23
     7ea:	80 93 5f 01 	sts	0x015F, r24
     7ee:	90 93 60 01 	sts	0x0160, r25
		step_baro = STEP_COMPUTE;
	}
	else if( step_baro == STEP_COMPUTE )
	{
		CmpBMP085Compute();
		pression = pressure;
     7f2:	60 93 d4 02 	sts	0x02D4, r22
     7f6:	70 93 d5 02 	sts	0x02D5, r23
     7fa:	80 93 d6 02 	sts	0x02D6, r24
     7fe:	90 93 d7 02 	sts	0x02D7, r25
		BaroAlt = (Int32U)((1.0f - pow(pressure/101325.0f, 0.190295f)) * 443300.0f);
     802:	0e 94 ff 26 	call	0x4dfe	; 0x4dfe <__floatunsisf>
     806:	20 e8       	ldi	r18, 0x80	; 128
     808:	36 ee       	ldi	r19, 0xE6	; 230
     80a:	45 ec       	ldi	r20, 0xC5	; 197
     80c:	57 e4       	ldi	r21, 0x47	; 71
     80e:	0e 94 66 26 	call	0x4ccc	; 0x4ccc <__divsf3>
     812:	21 eb       	ldi	r18, 0xB1	; 177
     814:	3c ed       	ldi	r19, 0xDC	; 220
     816:	42 e4       	ldi	r20, 0x42	; 66
     818:	5e e3       	ldi	r21, 0x3E	; 62
     81a:	0e 94 7d 28 	call	0x50fa	; 0x50fa <pow>
     81e:	56 2f       	mov	r21, r22
     820:	47 2f       	mov	r20, r23
     822:	38 2f       	mov	r19, r24
     824:	29 2f       	mov	r18, r25
     826:	60 e0       	ldi	r22, 0x00	; 0
     828:	70 e0       	ldi	r23, 0x00	; 0
     82a:	80 e8       	ldi	r24, 0x80	; 128
     82c:	9f e3       	ldi	r25, 0x3F	; 63
     82e:	da 01       	movw	r26, r20
     830:	f9 01       	movw	r30, r18
     832:	2b 2f       	mov	r18, r27
     834:	3a 2f       	mov	r19, r26
     836:	4f 2f       	mov	r20, r31
     838:	5e 2f       	mov	r21, r30
     83a:	0e 94 98 25 	call	0x4b30	; 0x4b30 <__subsf3>
     83e:	20 e8       	ldi	r18, 0x80	; 128
     840:	34 e7       	ldi	r19, 0x74	; 116
     842:	48 ed       	ldi	r20, 0xD8	; 216
     844:	58 e4       	ldi	r21, 0x48	; 72
     846:	0e 94 1a 28 	call	0x5034	; 0x5034 <__mulsf3>
     84a:	0e 94 d3 26 	call	0x4da6	; 0x4da6 <__fixunssfsi>
     84e:	60 93 61 01 	sts	0x0161, r22
     852:	70 93 62 01 	sts	0x0162, r23
     856:	80 93 63 01 	sts	0x0163, r24
     85a:	90 93 64 01 	sts	0x0164, r25
		step_baro = STEP_NONE;
     85e:	23 e0       	ldi	r18, 0x03	; 3
     860:	20 93 00 01 	sts	0x0100, r18
     864:	1b ce       	rjmp	.-970    	; 0x49c <CmpBMP085GetAltitude+0x46>
}

// read uncompensated pressure value: read result bytes
static void CmpBMP085ReadUP( void ) 
{
	Int8U buffer[ 3U ] = {0U, 0U, 0U};
     866:	19 82       	std	Y+1, r1	; 0x01
     868:	1a 82       	std	Y+2, r1	; 0x02
     86a:	1b 82       	std	Y+3, r1	; 0x03
	DrvTwiReadRegBuf(BMP085_ADDRESS, CONTROL_OUTPUT, buffer, 3U);
     86c:	87 e7       	ldi	r24, 0x77	; 119
     86e:	66 ef       	ldi	r22, 0xF6	; 246
     870:	ae 01       	movw	r20, r28
     872:	4f 5f       	subi	r20, 0xFF	; 255
     874:	5f 4f       	sbci	r21, 0xFF	; 255
     876:	23 e0       	ldi	r18, 0x03	; 3
     878:	0e 94 c0 0c 	call	0x1980	; 0x1980 <DrvTwiReadRegBuf>
	s_barometer.up.raw[2] = buffer[ 0U ];
     87c:	89 81       	ldd	r24, Y+1	; 0x01
     87e:	80 93 b5 02 	sts	0x02B5, r24
	s_barometer.up.raw[1] = buffer[ 1U ];
     882:	8a 81       	ldd	r24, Y+2	; 0x02
     884:	80 93 b4 02 	sts	0x02B4, r24
	s_barometer.up.raw[0] = buffer[ 2U ];
     888:	8b 81       	ldd	r24, Y+3	; 0x03
     88a:	80 93 b3 02 	sts	0x02B3, r24
		step_baro = STEP_NONE;
	}
	else if( step_baro == STEP_READ_UP )
	{
		CmpBMP085ReadUP();
		step_baro = STEP_COMPUTE;
     88e:	82 e0       	ldi	r24, 0x02	; 2
     890:	2d ce       	rjmp	.-934    	; 0x4ec <CmpBMP085GetAltitude+0x96>
  x1 = s_barometer.ac3 * b6 >> 13U;
  x2 = (s_barometer.b1 * (b6 * b6 >> 12U)) >> 16U;
  x3 = ((x1 + x2) + 2U) >> 2U;
  b4 = (s_barometer.ac4 * (Int32U)(x3 + 32768U)) >> 15U;
  b7 = ((Int32U) (s_barometer.up.val >> (8U-OSS)) - b3) * (50000U >> OSS);
  p = b7 < 0x80000000 ? (b7 * 2U) / b4 : (b7 / b4) * 2U;
     892:	a4 01       	movw	r20, r8
     894:	93 01       	movw	r18, r6
     896:	0e 94 4b 2a 	call	0x5496	; 0x5496 <__udivmodsi4>
     89a:	79 01       	movw	r14, r18
     89c:	8a 01       	movw	r16, r20
     89e:	ee 0c       	add	r14, r14
     8a0:	ff 1c       	adc	r15, r15
     8a2:	00 1f       	adc	r16, r16
     8a4:	11 1f       	adc	r17, r17
     8a6:	66 cf       	rjmp	.-308    	; 0x774 <CmpBMP085GetAltitude+0x31e>

000008a8 <CmpBMP085StartCapture>:

// read uncompensated temperature value: send command first
static void CmpBMP085StartUT( void ) 
{
	//read uncompensated temperature      
	DrvTwiWriteReg(BMP085_ADDRESS, CONTROL, READ_TEMPERATURE);
     8a8:	87 e7       	ldi	r24, 0x77	; 119
     8aa:	64 ef       	ldi	r22, 0xF4	; 244
     8ac:	4e e2       	ldi	r20, 0x2E	; 46
     8ae:	0e 94 46 0d 	call	0x1a8c	; 0x1a8c <DrvTwiWriteReg>

//on start la capture du baro
void CmpBMP085StartCapture( void )
{ 
	CmpBMP085StartUT();
	SrvTimerAddTimer( CONF_TIMER_BMP085 , 5U, E_TIMER_MODE_ONE_SHOT, CmpBMP085CallbackUT);
     8b2:	81 e0       	ldi	r24, 0x01	; 1
     8b4:	65 e0       	ldi	r22, 0x05	; 5
     8b6:	70 e0       	ldi	r23, 0x00	; 0
     8b8:	40 e0       	ldi	r20, 0x00	; 0
     8ba:	26 ef       	ldi	r18, 0xF6	; 246
     8bc:	31 e0       	ldi	r19, 0x01	; 1
     8be:	0e 94 20 23 	call	0x4640	; 0x4640 <SrvTimerAddTimer>
}
     8c2:	08 95       	ret

000008c4 <CmpHMC5883Init>:

//fonction init du capteur
Boolean CmpHMC5883Init(void)
{
	Boolean o_success = FALSE;
	DrvTwiWriteReg(HMC5883_ADDRESS,HMC5883_CONFIG_A,HMC5883_15HZ);
     8c4:	8e e1       	ldi	r24, 0x1E	; 30
     8c6:	60 e0       	ldi	r22, 0x00	; 0
     8c8:	40 e7       	ldi	r20, 0x70	; 112
     8ca:	0e 94 46 0d 	call	0x1a8c	; 0x1a8c <DrvTwiWriteReg>
	DrvTimerDelayUs(200);
     8ce:	88 ec       	ldi	r24, 0xC8	; 200
     8d0:	90 e0       	ldi	r25, 0x00	; 0
     8d2:	0e 94 f5 0a 	call	0x15ea	; 0x15ea <DrvTimerDelayUs>
	DrvTwiWriteReg(HMC5883_ADDRESS,HMC5883_CONFIG_B,HMC5883_1_3GA);
     8d6:	8e e1       	ldi	r24, 0x1E	; 30
     8d8:	61 e0       	ldi	r22, 0x01	; 1
     8da:	40 e2       	ldi	r20, 0x20	; 32
     8dc:	0e 94 46 0d 	call	0x1a8c	; 0x1a8c <DrvTwiWriteReg>
	DrvTimerDelayUs(200);
     8e0:	88 ec       	ldi	r24, 0xC8	; 200
     8e2:	90 e0       	ldi	r25, 0x00	; 0
     8e4:	0e 94 f5 0a 	call	0x15ea	; 0x15ea <DrvTimerDelayUs>
	DrvTwiWriteReg(HMC5883_ADDRESS,HMC5883_MODE,HMC5883_CONTINUOUS);
     8e8:	8e e1       	ldi	r24, 0x1E	; 30
     8ea:	62 e0       	ldi	r22, 0x02	; 2
     8ec:	40 e0       	ldi	r20, 0x00	; 0
     8ee:	0e 94 46 0d 	call	0x1a8c	; 0x1a8c <DrvTwiWriteReg>
	DrvTimerDelayUs(200);
     8f2:	88 ec       	ldi	r24, 0xC8	; 200
     8f4:	90 e0       	ldi	r25, 0x00	; 0
     8f6:	0e 94 f5 0a 	call	0x15ea	; 0x15ea <DrvTimerDelayUs>
	loop_calibration_hmc5883 = NB_SAMPLE_TO_CALIB_HMC5883;
     8fa:	81 e0       	ldi	r24, 0x01	; 1
     8fc:	80 93 65 01 	sts	0x0165, r24
	DrvTimerDelayMs(5);
     900:	85 e0       	ldi	r24, 0x05	; 5
     902:	90 e0       	ldi	r25, 0x00	; 0
     904:	0e 94 30 0a 	call	0x1460	; 0x1460 <DrvTimerDelayMs>
	o_success = TRUE;
	return o_success;
}
     908:	81 e0       	ldi	r24, 0x01	; 1
     90a:	08 95       	ret

0000090c <CmpHMC5883IsCalibrate>:

Boolean CmpHMC5883IsCalibrate(void)
{
	if(loop_calibration_hmc5883 == 0)
	{
		return TRUE;
     90c:	81 e0       	ldi	r24, 0x01	; 1
     90e:	90 91 65 01 	lds	r25, 0x0165
     912:	91 11       	cpse	r25, r1
     914:	80 e0       	ldi	r24, 0x00	; 0
	}
	return FALSE;
}
     916:	08 95       	ret

00000918 <CmpHMC5883GetHeading>:



//Mag X Y Z
Boolean CmpHMC5883GetHeading(S_Mag_Angle *mag)
{	
     918:	0f 93       	push	r16
     91a:	1f 93       	push	r17
     91c:	df 93       	push	r29
     91e:	cf 93       	push	r28
     920:	00 d0       	rcall	.+0      	; 0x922 <CmpHMC5883GetHeading+0xa>
     922:	00 d0       	rcall	.+0      	; 0x924 <CmpHMC5883GetHeading+0xc>
     924:	00 d0       	rcall	.+0      	; 0x926 <CmpHMC5883GetHeading+0xe>
     926:	cd b7       	in	r28, 0x3d	; 61
     928:	de b7       	in	r29, 0x3e	; 62
     92a:	8c 01       	movw	r16, r24
	Int8U buffer[ 6U ] = {0U, 0U, 0U, 0U, 0U, 0U};
     92c:	ae 01       	movw	r20, r28
     92e:	4f 5f       	subi	r20, 0xFF	; 255
     930:	5f 4f       	sbci	r21, 0xFF	; 255
     932:	86 e0       	ldi	r24, 0x06	; 6
     934:	fa 01       	movw	r30, r20
     936:	11 92       	st	Z+, r1
     938:	8a 95       	dec	r24
     93a:	e9 f7       	brne	.-6      	; 0x936 <CmpHMC5883GetHeading+0x1e>
	if(DrvTwiReadRegBuf(HMC5883_ADDRESS, HMC5883_X_MSB, buffer, 6U) != 6U)
     93c:	8e e1       	ldi	r24, 0x1E	; 30
     93e:	63 e0       	ldi	r22, 0x03	; 3
     940:	26 e0       	ldi	r18, 0x06	; 6
     942:	0e 94 c0 0c 	call	0x1980	; 0x1980 <DrvTwiReadRegBuf>
     946:	86 30       	cpi	r24, 0x06	; 6
     948:	61 f0       	breq	.+24     	; 0x962 <CmpHMC5883GetHeading+0x4a>
	{
		return FALSE;
     94a:	80 e0       	ldi	r24, 0x00	; 0
			mag->y -= mag_calib[1];
			mag->z -= mag_calib[2];
		}
		return TRUE;
	}
}
     94c:	26 96       	adiw	r28, 0x06	; 6
     94e:	0f b6       	in	r0, 0x3f	; 63
     950:	f8 94       	cli
     952:	de bf       	out	0x3e, r29	; 62
     954:	0f be       	out	0x3f, r0	; 63
     956:	cd bf       	out	0x3d, r28	; 61
     958:	cf 91       	pop	r28
     95a:	df 91       	pop	r29
     95c:	1f 91       	pop	r17
     95e:	0f 91       	pop	r16
     960:	08 95       	ret
	{
		return FALSE;
	}
	else
	{
		mag->x = (Int16S)((Int16U)(buffer[ 0U ] << 8U) | (Int16U)(buffer[ 1U ]));
     962:	99 81       	ldd	r25, Y+1	; 0x01
     964:	80 e0       	ldi	r24, 0x00	; 0
     966:	4a 81       	ldd	r20, Y+2	; 0x02
     968:	50 e0       	ldi	r21, 0x00	; 0
     96a:	48 2b       	or	r20, r24
     96c:	59 2b       	or	r21, r25
     96e:	f8 01       	movw	r30, r16
     970:	51 83       	std	Z+1, r21	; 0x01
     972:	40 83       	st	Z, r20
		mag->y = (Int16S)((Int16U)(buffer[ 4U ] << 8U) | (Int16U)(buffer[ 5U ]));
     974:	9d 81       	ldd	r25, Y+5	; 0x05
     976:	80 e0       	ldi	r24, 0x00	; 0
     978:	2e 81       	ldd	r18, Y+6	; 0x06
     97a:	30 e0       	ldi	r19, 0x00	; 0
     97c:	28 2b       	or	r18, r24
     97e:	39 2b       	or	r19, r25
     980:	33 83       	std	Z+3, r19	; 0x03
     982:	22 83       	std	Z+2, r18	; 0x02
		mag->z = (Int16S)((Int16U)(buffer[ 2U ] << 8U) | (Int16U)(buffer[ 3U ]));
     984:	7b 81       	ldd	r23, Y+3	; 0x03
     986:	60 e0       	ldi	r22, 0x00	; 0
     988:	8c 81       	ldd	r24, Y+4	; 0x04
     98a:	90 e0       	ldi	r25, 0x00	; 0
     98c:	86 2b       	or	r24, r22
     98e:	97 2b       	or	r25, r23
     990:	95 83       	std	Z+5, r25	; 0x05
     992:	84 83       	std	Z+4, r24	; 0x04
		
		if(loop_calibration_hmc5883 > 0)
     994:	60 91 65 01 	lds	r22, 0x0165
     998:	66 23       	and	r22, r22
     99a:	29 f0       	breq	.+10     	; 0x9a6 <CmpHMC5883GetHeading+0x8e>
			{
				mag_calib[0] = mag_calib[0] / NB_SAMPLE_TO_CALIB_HMC5883;
				mag_calib[1] = mag_calib[1] / NB_SAMPLE_TO_CALIB_HMC5883;
				mag_calib[2] = mag_calib[2] / NB_SAMPLE_TO_CALIB_HMC5883;
			}
			loop_calibration_hmc5883--;
     99c:	61 50       	subi	r22, 0x01	; 1
     99e:	60 93 65 01 	sts	0x0165, r22
		{
			mag->x -= mag_calib[0];
			mag->y -= mag_calib[1];
			mag->z -= mag_calib[2];
		}
		return TRUE;
     9a2:	81 e0       	ldi	r24, 0x01	; 1
     9a4:	d3 cf       	rjmp	.-90     	; 0x94c <CmpHMC5883GetHeading+0x34>
			}
			loop_calibration_hmc5883--;
		}
		else
		{
			mag->x -= mag_calib[0];
     9a6:	60 91 66 01 	lds	r22, 0x0166
     9aa:	46 1b       	sub	r20, r22
     9ac:	51 09       	sbc	r21, r1
     9ae:	f8 01       	movw	r30, r16
     9b0:	51 83       	std	Z+1, r21	; 0x01
     9b2:	40 83       	st	Z, r20
			mag->y -= mag_calib[1];
     9b4:	40 91 67 01 	lds	r20, 0x0167
     9b8:	24 1b       	sub	r18, r20
     9ba:	31 09       	sbc	r19, r1
     9bc:	33 83       	std	Z+3, r19	; 0x03
     9be:	22 83       	std	Z+2, r18	; 0x02
			mag->z -= mag_calib[2];
     9c0:	20 91 68 01 	lds	r18, 0x0168
     9c4:	82 1b       	sub	r24, r18
     9c6:	91 09       	sbc	r25, r1
     9c8:	95 83       	std	Z+5, r25	; 0x05
     9ca:	84 83       	std	Z+4, r24	; 0x04
		}
		return TRUE;
     9cc:	81 e0       	ldi	r24, 0x01	; 1
     9ce:	be cf       	rjmp	.-132    	; 0x94c <CmpHMC5883GetHeading+0x34>

000009d0 <CmpITG3205Init>:

//fonction init du capteur
Boolean CmpITG3205Init(void)
{
	Boolean conf;
	if (DrvTwiReadReg(ITG3205_TWI_ADDRESS,ITG3205_RA_WHO_AM_I) == ITG3205_RA_I_AM)
     9d0:	88 e6       	ldi	r24, 0x68	; 104
     9d2:	60 e0       	ldi	r22, 0x00	; 0
     9d4:	0e 94 91 0d 	call	0x1b22	; 0x1b22 <DrvTwiReadReg>
     9d8:	88 36       	cpi	r24, 0x68	; 104
     9da:	11 f0       	breq	.+4      	; 0x9e0 <CmpITG3205Init+0x10>
		}
		return TRUE;
	}		
	else
	{
		return FALSE;
     9dc:	80 e0       	ldi	r24, 0x00	; 0
	}
	
}
     9de:	08 95       	ret
Boolean CmpITG3205Init(void)
{
	Boolean conf;
	if (DrvTwiReadReg(ITG3205_TWI_ADDRESS,ITG3205_RA_WHO_AM_I) == ITG3205_RA_I_AM)
	{
		DrvTwiWriteReg(ITG3205_TWI_ADDRESS, ITG3205_RA_PWR_MGM, ITG3205_PWR_H_RESET_BIT);
     9e0:	6e e3       	ldi	r22, 0x3E	; 62
     9e2:	40 e8       	ldi	r20, 0x80	; 128
     9e4:	0e 94 46 0d 	call	0x1a8c	; 0x1a8c <DrvTwiWriteReg>
		DrvTimerDelayUs(200);
     9e8:	88 ec       	ldi	r24, 0xC8	; 200
     9ea:	90 e0       	ldi	r25, 0x00	; 0
     9ec:	0e 94 f5 0a 	call	0x15ea	; 0x15ea <DrvTimerDelayUs>
		DrvTwiWriteReg(ITG3205_TWI_ADDRESS, ITG3205_RA_DLPF_FS, FS_RANGE_2000 | LPFBW_98HZ );
     9f0:	88 e6       	ldi	r24, 0x68	; 104
     9f2:	66 e1       	ldi	r22, 0x16	; 22
     9f4:	4a e1       	ldi	r20, 0x1A	; 26
     9f6:	0e 94 46 0d 	call	0x1a8c	; 0x1a8c <DrvTwiWriteReg>
		DrvTimerDelayUs(200);
     9fa:	88 ec       	ldi	r24, 0xC8	; 200
     9fc:	90 e0       	ldi	r25, 0x00	; 0
     9fe:	0e 94 f5 0a 	call	0x15ea	; 0x15ea <DrvTimerDelayUs>
		DrvTwiWriteReg(ITG3205_TWI_ADDRESS, ITG3205_RA_PWR_MGM, PLL_ZGYRO_REF );
     a02:	88 e6       	ldi	r24, 0x68	; 104
     a04:	6e e3       	ldi	r22, 0x3E	; 62
     a06:	43 e0       	ldi	r20, 0x03	; 3
     a08:	0e 94 46 0d 	call	0x1a8c	; 0x1a8c <DrvTwiWriteReg>
		DrvTimerDelayMs(1);
     a0c:	81 e0       	ldi	r24, 0x01	; 1
     a0e:	90 e0       	ldi	r25, 0x00	; 0
     a10:	0e 94 30 0a 	call	0x1460	; 0x1460 <DrvTimerDelayMs>
		
		//Calibration du capteur
		//si l'eeprom est configué
		conf = DrvEepromIsConfigured();
     a14:	0e 94 f6 06 	call	0xdec	; 0xdec <DrvEepromIsConfigured>
		if(conf == FALSE)
     a18:	88 23       	and	r24, r24
     a1a:	89 f4       	brne	.+34     	; 0xa3e <CmpITG3205Init+0x6e>
		{
				loop_calibration_ITG3205 = NB_SAMPLE_TO_CALIB_ITG3205;
     a1c:	88 ec       	ldi	r24, 0xC8	; 200
     a1e:	80 93 69 01 	sts	0x0169, r24
				gyro_calib[0] = 0;
     a22:	10 92 6b 01 	sts	0x016B, r1
     a26:	10 92 6a 01 	sts	0x016A, r1
				gyro_calib[1] = 0;
     a2a:	10 92 6d 01 	sts	0x016D, r1
     a2e:	10 92 6c 01 	sts	0x016C, r1
				gyro_calib[2] = 0;
     a32:	10 92 6f 01 	sts	0x016F, r1
     a36:	10 92 6e 01 	sts	0x016E, r1
		else
		{
			loop_calibration_ITG3205 = 0;
			DrvEepromReadGyro(gyro_calib);
		}
		return TRUE;
     a3a:	81 e0       	ldi	r24, 0x01	; 1
     a3c:	08 95       	ret
				gyro_calib[1] = 0;
				gyro_calib[2] = 0;
		}
		else
		{
			loop_calibration_ITG3205 = 0;
     a3e:	10 92 69 01 	sts	0x0169, r1
			DrvEepromReadGyro(gyro_calib);
     a42:	8a e6       	ldi	r24, 0x6A	; 106
     a44:	91 e0       	ldi	r25, 0x01	; 1
     a46:	0e 94 59 07 	call	0xeb2	; 0xeb2 <DrvEepromReadGyro>
		}
		return TRUE;
     a4a:	81 e0       	ldi	r24, 0x01	; 1
     a4c:	08 95       	ret

00000a4e <CmpITG3205IsCalibrate>:
	
}

Boolean CmpITG3205IsCalibrate(void)
{
	if(loop_calibration_ITG3205 == 0)
     a4e:	80 91 69 01 	lds	r24, 0x0169
     a52:	88 23       	and	r24, r24
     a54:	11 f0       	breq	.+4      	; 0xa5a <CmpITG3205IsCalibrate+0xc>
	{
		DrvEepromWriteGyro(gyro_calib);
		return TRUE;
	}
	return FALSE;
     a56:	80 e0       	ldi	r24, 0x00	; 0
}
     a58:	08 95       	ret

Boolean CmpITG3205IsCalibrate(void)
{
	if(loop_calibration_ITG3205 == 0)
	{
		DrvEepromWriteGyro(gyro_calib);
     a5a:	8a e6       	ldi	r24, 0x6A	; 106
     a5c:	91 e0       	ldi	r25, 0x01	; 1
     a5e:	0e 94 90 07 	call	0xf20	; 0xf20 <DrvEepromWriteGyro>
		return TRUE;
     a62:	81 e0       	ldi	r24, 0x01	; 1
     a64:	08 95       	ret

00000a66 <CmpITG3205GetRotation>:
}


//Rotation X Y Z
Boolean CmpITG3205GetRotation(S_Gyr_Angle *rot)
{	
     a66:	0f 93       	push	r16
     a68:	1f 93       	push	r17
     a6a:	df 93       	push	r29
     a6c:	cf 93       	push	r28
     a6e:	00 d0       	rcall	.+0      	; 0xa70 <CmpITG3205GetRotation+0xa>
     a70:	00 d0       	rcall	.+0      	; 0xa72 <CmpITG3205GetRotation+0xc>
     a72:	00 d0       	rcall	.+0      	; 0xa74 <CmpITG3205GetRotation+0xe>
     a74:	cd b7       	in	r28, 0x3d	; 61
     a76:	de b7       	in	r29, 0x3e	; 62
     a78:	8c 01       	movw	r16, r24
	Int8U buffer[ 6U ] = {0U, 0U, 0U, 0U, 0U, 0U};
     a7a:	ae 01       	movw	r20, r28
     a7c:	4f 5f       	subi	r20, 0xFF	; 255
     a7e:	5f 4f       	sbci	r21, 0xFF	; 255
     a80:	86 e0       	ldi	r24, 0x06	; 6
     a82:	fa 01       	movw	r30, r20
     a84:	11 92       	st	Z+, r1
     a86:	8a 95       	dec	r24
     a88:	e9 f7       	brne	.-6      	; 0xa84 <CmpITG3205GetRotation+0x1e>
		
	if(DrvTwiReadRegBuf(ITG3205_TWI_ADDRESS, ITG3205_RA_GYRO_XOUT_H, buffer, 6U) != 6U)
     a8a:	88 e6       	ldi	r24, 0x68	; 104
     a8c:	6d e1       	ldi	r22, 0x1D	; 29
     a8e:	26 e0       	ldi	r18, 0x06	; 6
     a90:	0e 94 c0 0c 	call	0x1980	; 0x1980 <DrvTwiReadRegBuf>
     a94:	86 30       	cpi	r24, 0x06	; 6
     a96:	61 f0       	breq	.+24     	; 0xab0 <CmpITG3205GetRotation+0x4a>
	{
		return FALSE;
     a98:	80 e0       	ldi	r24, 0x00	; 0
			rot->y  -= gyro_calib[1U];
			rot->z  -= gyro_calib[2U];
		}
		return TRUE;
	}	
     a9a:	26 96       	adiw	r28, 0x06	; 6
     a9c:	0f b6       	in	r0, 0x3f	; 63
     a9e:	f8 94       	cli
     aa0:	de bf       	out	0x3e, r29	; 62
     aa2:	0f be       	out	0x3f, r0	; 63
     aa4:	cd bf       	out	0x3d, r28	; 61
     aa6:	cf 91       	pop	r28
     aa8:	df 91       	pop	r29
     aaa:	1f 91       	pop	r17
     aac:	0f 91       	pop	r16
     aae:	08 95       	ret
	{
		return FALSE;
	}
	else 
	{
		rot->x = (Int16S)((Int16U) buffer[0U] << 8U) | ((Int16U) buffer[1U]);    
     ab0:	99 81       	ldd	r25, Y+1	; 0x01
     ab2:	80 e0       	ldi	r24, 0x00	; 0
     ab4:	6a 81       	ldd	r22, Y+2	; 0x02
     ab6:	70 e0       	ldi	r23, 0x00	; 0
     ab8:	68 2b       	or	r22, r24
     aba:	79 2b       	or	r23, r25
     abc:	f8 01       	movw	r30, r16
     abe:	71 83       	std	Z+1, r23	; 0x01
     ac0:	60 83       	st	Z, r22
		rot->y = (Int16S)((Int16U) buffer[2U] << 8U) | ((Int16U) buffer[3U]);   
     ac2:	9b 81       	ldd	r25, Y+3	; 0x03
     ac4:	80 e0       	ldi	r24, 0x00	; 0
     ac6:	2c 81       	ldd	r18, Y+4	; 0x04
     ac8:	30 e0       	ldi	r19, 0x00	; 0
     aca:	28 2b       	or	r18, r24
     acc:	39 2b       	or	r19, r25
     ace:	33 83       	std	Z+3, r19	; 0x03
     ad0:	22 83       	std	Z+2, r18	; 0x02
		rot->z = (Int16S)((Int16U) buffer[4U] << 8U) | ((Int16U) buffer[5U]);  
     ad2:	5d 81       	ldd	r21, Y+5	; 0x05
     ad4:	40 e0       	ldi	r20, 0x00	; 0
     ad6:	8e 81       	ldd	r24, Y+6	; 0x06
     ad8:	90 e0       	ldi	r25, 0x00	; 0
     ada:	84 2b       	or	r24, r20
     adc:	95 2b       	or	r25, r21
     ade:	95 83       	std	Z+5, r25	; 0x05
     ae0:	84 83       	std	Z+4, r24	; 0x04
		
		if(( rot->z > -6 ) && ( rot->z < 6 ))
     ae2:	ac 01       	movw	r20, r24
     ae4:	4b 5f       	subi	r20, 0xFB	; 251
     ae6:	5f 4f       	sbci	r21, 0xFF	; 255
     ae8:	4b 30       	cpi	r20, 0x0B	; 11
     aea:	51 05       	cpc	r21, r1
     aec:	20 f4       	brcc	.+8      	; 0xaf6 <CmpITG3205GetRotation+0x90>
		{
			rot->z = 0U;
     aee:	15 82       	std	Z+5, r1	; 0x05
     af0:	14 82       	std	Z+4, r1	; 0x04
     af2:	80 e0       	ldi	r24, 0x00	; 0
     af4:	90 e0       	ldi	r25, 0x00	; 0
		}
		if(loop_calibration_ITG3205 > 0U)
     af6:	40 91 69 01 	lds	r20, 0x0169
     afa:	44 23       	and	r20, r20
     afc:	29 f1       	breq	.+74     	; 0xb48 <CmpITG3205GetRotation+0xe2>
		{
			if( loop_calibration_ITG3205 == 1U )
     afe:	41 30       	cpi	r20, 0x01	; 1
     b00:	f1 f1       	breq	.+124    	; 0xb7e <CmpITG3205GetRotation+0x118>
				gyro_calib[1U] = gyro_calib[1U] / NB_SAMPLE_TO_CALIB_ITG3205;
				gyro_calib[2U] = gyro_calib[2U] / NB_SAMPLE_TO_CALIB_ITG3205;
			}
			else
			{
				gyro_calib[0U] += rot->x;
     b02:	e0 91 6a 01 	lds	r30, 0x016A
     b06:	f0 91 6b 01 	lds	r31, 0x016B
     b0a:	e6 0f       	add	r30, r22
     b0c:	f7 1f       	adc	r31, r23
     b0e:	f0 93 6b 01 	sts	0x016B, r31
     b12:	e0 93 6a 01 	sts	0x016A, r30
				gyro_calib[1U] += rot->y;
     b16:	60 91 6c 01 	lds	r22, 0x016C
     b1a:	70 91 6d 01 	lds	r23, 0x016D
     b1e:	62 0f       	add	r22, r18
     b20:	73 1f       	adc	r23, r19
     b22:	70 93 6d 01 	sts	0x016D, r23
     b26:	60 93 6c 01 	sts	0x016C, r22
				gyro_calib[2U] += rot->z;
     b2a:	20 91 6e 01 	lds	r18, 0x016E
     b2e:	30 91 6f 01 	lds	r19, 0x016F
     b32:	28 0f       	add	r18, r24
     b34:	39 1f       	adc	r19, r25
     b36:	30 93 6f 01 	sts	0x016F, r19
     b3a:	20 93 6e 01 	sts	0x016E, r18
			}
			loop_calibration_ITG3205--;
     b3e:	41 50       	subi	r20, 0x01	; 1
     b40:	40 93 69 01 	sts	0x0169, r20
		{
			rot->x  -= gyro_calib[0U];
			rot->y  -= gyro_calib[1U];
			rot->z  -= gyro_calib[2U];
		}
		return TRUE;
     b44:	81 e0       	ldi	r24, 0x01	; 1
     b46:	a9 cf       	rjmp	.-174    	; 0xa9a <CmpITG3205GetRotation+0x34>
			}
			loop_calibration_ITG3205--;
		}
		else
		{
			rot->x  -= gyro_calib[0U];
     b48:	40 91 6a 01 	lds	r20, 0x016A
     b4c:	50 91 6b 01 	lds	r21, 0x016B
     b50:	64 1b       	sub	r22, r20
     b52:	75 0b       	sbc	r23, r21
     b54:	f8 01       	movw	r30, r16
     b56:	71 83       	std	Z+1, r23	; 0x01
     b58:	60 83       	st	Z, r22
			rot->y  -= gyro_calib[1U];
     b5a:	40 91 6c 01 	lds	r20, 0x016C
     b5e:	50 91 6d 01 	lds	r21, 0x016D
     b62:	24 1b       	sub	r18, r20
     b64:	35 0b       	sbc	r19, r21
     b66:	33 83       	std	Z+3, r19	; 0x03
     b68:	22 83       	std	Z+2, r18	; 0x02
			rot->z  -= gyro_calib[2U];
     b6a:	20 91 6e 01 	lds	r18, 0x016E
     b6e:	30 91 6f 01 	lds	r19, 0x016F
     b72:	82 1b       	sub	r24, r18
     b74:	93 0b       	sbc	r25, r19
     b76:	95 83       	std	Z+5, r25	; 0x05
     b78:	84 83       	std	Z+4, r24	; 0x04
		}
		return TRUE;
     b7a:	81 e0       	ldi	r24, 0x01	; 1
     b7c:	8e cf       	rjmp	.-228    	; 0xa9a <CmpITG3205GetRotation+0x34>
		}
		if(loop_calibration_ITG3205 > 0U)
		{
			if( loop_calibration_ITG3205 == 1U )
			{
				gyro_calib[0U] = gyro_calib[0U] / NB_SAMPLE_TO_CALIB_ITG3205;
     b7e:	80 91 6a 01 	lds	r24, 0x016A
     b82:	90 91 6b 01 	lds	r25, 0x016B
     b86:	28 ec       	ldi	r18, 0xC8	; 200
     b88:	30 e0       	ldi	r19, 0x00	; 0
     b8a:	b9 01       	movw	r22, r18
     b8c:	0e 94 38 2a 	call	0x5470	; 0x5470 <__divmodhi4>
     b90:	70 93 6b 01 	sts	0x016B, r23
     b94:	60 93 6a 01 	sts	0x016A, r22
				gyro_calib[1U] = gyro_calib[1U] / NB_SAMPLE_TO_CALIB_ITG3205;
     b98:	80 91 6c 01 	lds	r24, 0x016C
     b9c:	90 91 6d 01 	lds	r25, 0x016D
     ba0:	b9 01       	movw	r22, r18
     ba2:	0e 94 38 2a 	call	0x5470	; 0x5470 <__divmodhi4>
     ba6:	70 93 6d 01 	sts	0x016D, r23
     baa:	60 93 6c 01 	sts	0x016C, r22
				gyro_calib[2U] = gyro_calib[2U] / NB_SAMPLE_TO_CALIB_ITG3205;
     bae:	80 91 6e 01 	lds	r24, 0x016E
     bb2:	90 91 6f 01 	lds	r25, 0x016F
     bb6:	b9 01       	movw	r22, r18
     bb8:	0e 94 38 2a 	call	0x5470	; 0x5470 <__divmodhi4>
     bbc:	70 93 6f 01 	sts	0x016F, r23
     bc0:	60 93 6e 01 	sts	0x016E, r22
     bc4:	bc cf       	rjmp	.-136    	; 0xb3e <CmpITG3205GetRotation+0xd8>

00000bc6 <HeartbeatIsrCallbackTimer>:

//fct appele par le timer
void HeartbeatIsrCallbackTimer( void)
{
	//heartbeat
	LED_TOGGLE();
     bc6:	85 b1       	in	r24, 0x05	; 5
     bc8:	90 e2       	ldi	r25, 0x20	; 32
     bca:	89 27       	eor	r24, r25
     bcc:	85 b9       	out	0x05, r24	; 5
     bce:	08 95       	ret

00000bd0 <main>:
Int16U frontMotor_L	= 0U;
Int16U rearMotor_R	= 0U;
Int16U rearMotor_L	= 0U;

int main(void)
{	
     bd0:	cf 92       	push	r12
     bd2:	df 92       	push	r13
     bd4:	ef 92       	push	r14
     bd6:	ff 92       	push	r15
     bd8:	0f 93       	push	r16
     bda:	1f 93       	push	r17
	// ********************* Interrupt Disable ****************************************
	//stop timer
	TCCR0B = 0U;
     bdc:	15 bc       	out	0x25, r1	; 37
	TCCR1B = 0U;
     bde:	10 92 81 00 	sts	0x0081, r1
	TCCR2B = 0U;
     be2:	10 92 b1 00 	sts	0x00B1, r1
	DrvInterruptClearAllInterrupts();
     be6:	0e 94 dc 08 	call	0x11b8	; 0x11b8 <DrvInterruptClearAllInterrupts>
	
	// ********************* Led init *************************************************
	CONFIGURE_LED_PIN();
     bea:	25 9a       	sbi	0x04, 5	; 4
	//start Initialisation
	LED_ON();
     bec:	2d 9a       	sbi	0x05, 5	; 5
	imu_desire.roulis	= 0;
     bee:	10 92 d9 02 	sts	0x02D9, r1
     bf2:	10 92 d8 02 	sts	0x02D8, r1
	imu_desire.tangage  = 0;
     bf6:	10 92 db 02 	sts	0x02DB, r1
     bfa:	10 92 da 02 	sts	0x02DA, r1
	imu_desire.lacet	= 0;
     bfe:	10 92 dd 02 	sts	0x02DD, r1
     c02:	10 92 dc 02 	sts	0x02DC, r1
	imu_reel.altitude	= 0;
     c06:	10 92 c6 02 	sts	0x02C6, r1
     c0a:	10 92 c5 02 	sts	0x02C5, r1
	imu_reel.roulis	    = 0;
     c0e:	ed eb       	ldi	r30, 0xBD	; 189
     c10:	f2 e0       	ldi	r31, 0x02	; 2
     c12:	10 92 be 02 	sts	0x02BE, r1
     c16:	10 92 bd 02 	sts	0x02BD, r1
	imu_reel.tangage	= 0;
     c1a:	13 82       	std	Z+3, r1	; 0x03
     c1c:	12 82       	std	Z+2, r1	; 0x02
	imu_reel.lacet	    = 0;
     c1e:	15 82       	std	Z+5, r1	; 0x05
     c20:	14 82       	std	Z+4, r1	; 0x04
	imu_reel.altitude	= 0;
	speed				= 0;
     c22:	10 92 d3 02 	sts	0x02D3, r1
     c26:	10 92 d2 02 	sts	0x02D2, r1
	pression			= 0;
     c2a:	10 92 d4 02 	sts	0x02D4, r1
     c2e:	10 92 d5 02 	sts	0x02D5, r1
     c32:	10 92 d6 02 	sts	0x02D6, r1
     c36:	10 92 d7 02 	sts	0x02D7, r1
	temperature			= 0;
     c3a:	10 92 cb 02 	sts	0x02CB, r1
     c3e:	10 92 ca 02 	sts	0x02CA, r1
	
	// ********************* Drivers init *********************************************
	DrvEventInit();
     c42:	0e 94 ae 08 	call	0x115c	; 0x115c <DrvEventInit>
	DrvTickInit();
     c46:	0e 94 d0 09 	call	0x13a0	; 0x13a0 <DrvTickInit>
	DrvTwiInit();
     c4a:	0e 94 d6 0b 	call	0x17ac	; 0x17ac <DrvTwiInit>
	DrvAdcInit();
     c4e:	0e 94 98 06 	call	0xd30	; 0xd30 <DrvAdcInit>
	DrvUartInit();
     c52:	0e 94 07 0e 	call	0x1c0e	; 0x1c0e <DrvUartInit>
	DrvEepromInit();
     c56:	0e 94 da 06 	call	0xdb4	; 0xdb4 <DrvEepromInit>
	
	// ********************* PID init *************************************************
	SrvPIDInit( 0U , 1  ,0   ,-13 );  //roulis
     c5a:	80 e0       	ldi	r24, 0x00	; 0
     c5c:	40 e0       	ldi	r20, 0x00	; 0
     c5e:	50 e0       	ldi	r21, 0x00	; 0
     c60:	60 e8       	ldi	r22, 0x80	; 128
     c62:	7f e3       	ldi	r23, 0x3F	; 63
     c64:	00 e0       	ldi	r16, 0x00	; 0
     c66:	10 e0       	ldi	r17, 0x00	; 0
     c68:	98 01       	movw	r18, r16
     c6a:	0f 2e       	mov	r0, r31
     c6c:	f0 e0       	ldi	r31, 0x00	; 0
     c6e:	cf 2e       	mov	r12, r31
     c70:	f0 e0       	ldi	r31, 0x00	; 0
     c72:	df 2e       	mov	r13, r31
     c74:	f0 e5       	ldi	r31, 0x50	; 80
     c76:	ef 2e       	mov	r14, r31
     c78:	f1 ec       	ldi	r31, 0xC1	; 193
     c7a:	ff 2e       	mov	r15, r31
     c7c:	f0 2d       	mov	r31, r0
     c7e:	0e 94 e4 20 	call	0x41c8	; 0x41c8 <SrvPIDInit>
	SrvPIDInit( 1U , 1  ,0   ,-13 );  //tangage
     c82:	81 e0       	ldi	r24, 0x01	; 1
     c84:	40 e0       	ldi	r20, 0x00	; 0
     c86:	50 e0       	ldi	r21, 0x00	; 0
     c88:	60 e8       	ldi	r22, 0x80	; 128
     c8a:	7f e3       	ldi	r23, 0x3F	; 63
     c8c:	00 e0       	ldi	r16, 0x00	; 0
     c8e:	10 e0       	ldi	r17, 0x00	; 0
     c90:	98 01       	movw	r18, r16
     c92:	0e 94 e4 20 	call	0x41c8	; 0x41c8 <SrvPIDInit>
	SrvPIDInit( 2U , 1  ,0   ,0   );  //lacet
     c96:	82 e0       	ldi	r24, 0x02	; 2
     c98:	40 e0       	ldi	r20, 0x00	; 0
     c9a:	50 e0       	ldi	r21, 0x00	; 0
     c9c:	60 e8       	ldi	r22, 0x80	; 128
     c9e:	7f e3       	ldi	r23, 0x3F	; 63
     ca0:	00 e0       	ldi	r16, 0x00	; 0
     ca2:	10 e0       	ldi	r17, 0x00	; 0
     ca4:	98 01       	movw	r18, r16
     ca6:	68 01       	movw	r12, r16
     ca8:	79 01       	movw	r14, r18
     caa:	0e 94 e4 20 	call	0x41c8	; 0x41c8 <SrvPIDInit>
	SrvPIDInit( 3U , 1  ,0   ,0   );  //altitude
     cae:	83 e0       	ldi	r24, 0x03	; 3
     cb0:	40 e0       	ldi	r20, 0x00	; 0
     cb2:	50 e0       	ldi	r21, 0x00	; 0
     cb4:	60 e8       	ldi	r22, 0x80	; 128
     cb6:	7f e3       	ldi	r23, 0x3F	; 63
     cb8:	97 01       	movw	r18, r14
     cba:	86 01       	movw	r16, r12
     cbc:	0e 94 e4 20 	call	0x41c8	; 0x41c8 <SrvPIDInit>
	
	// ********************* Interrupt Enable *****************************************
	DrvInterruptSetAllInterrupts();
     cc0:	0e 94 de 08 	call	0x11bc	; 0x11bc <DrvInterruptSetAllInterrupts>
	
	// ********************* Composants init ******************************************
	SrvTimerInit();
     cc4:	0e 94 e8 22 	call	0x45d0	; 0x45d0 <SrvTimerInit>
	SrvImuInit();
     cc8:	0e 94 99 10 	call	0x2132	; 0x2132 <SrvImuInit>
	
	//Wait 2 sec for sensors init
	DrvTimerDelayMs(3000);
     ccc:	88 eb       	ldi	r24, 0xB8	; 184
     cce:	9b e0       	ldi	r25, 0x0B	; 11
     cd0:	0e 94 30 0a 	call	0x1460	; 0x1460 <DrvTimerDelayMs>
		
	// ********************* Calibration sensors **************************************
	SrvImuSensorsCalibration();
     cd4:	0e 94 ec 15 	call	0x2bd8	; 0x2bd8 <SrvImuSensorsCalibration>
	
	//Wait 2 sec for sensors
	DrvTimerDelayMs(2000);
     cd8:	80 ed       	ldi	r24, 0xD0	; 208
     cda:	97 e0       	ldi	r25, 0x07	; 7
     cdc:	0e 94 30 0a 	call	0x1460	; 0x1460 <DrvTimerDelayMs>
	
	// ********************* Initialisation services **********************************
	SrvMotorInit();
     ce0:	0e 94 5c 1f 	call	0x3eb8	; 0x3eb8 <SrvMotorInit>
	SrvStartEngineInit();
     ce4:	0e 94 b7 22 	call	0x456e	; 0x456e <SrvStartEngineInit>
	SrvCommInit();	
     ce8:	0e 94 7d 0f 	call	0x1efa	; 0x1efa <SrvCommInit>
	
	//stop Initialisation
	LED_OFF();
     cec:	2d 98       	cbi	0x05, 5	; 5
	
	// ********************* Reset time ***********************************************
	SrvTimerTickReset();
     cee:	0e 94 7a 23 	call	0x46f4	; 0x46f4 <SrvTimerTickReset>
	
	// ********************* Start Heartbeat ******************************************
	SrvTimerAddTimer(CONF_TIMER_HEARTBEAT, 500U, E_TIMER_MODE_PERIODIC, HeartbeatIsrCallbackTimer);
     cf2:	80 e0       	ldi	r24, 0x00	; 0
     cf4:	64 ef       	ldi	r22, 0xF4	; 244
     cf6:	71 e0       	ldi	r23, 0x01	; 1
     cf8:	41 e0       	ldi	r20, 0x01	; 1
     cfa:	23 ee       	ldi	r18, 0xE3	; 227
     cfc:	35 e0       	ldi	r19, 0x05	; 5
     cfe:	0e 94 20 23 	call	0x4640	; 0x4640 <SrvTimerAddTimer>
	
    while(TRUE)
    {			
		current_main_event = DrvEventGetEvent( current_main_event );
     d02:	80 91 70 01 	lds	r24, 0x0170
     d06:	90 91 71 01 	lds	r25, 0x0171
     d0a:	0e 94 b4 08 	call	0x1168	; 0x1168 <DrvEventGetEvent>
     d0e:	90 93 71 01 	sts	0x0171, r25
     d12:	80 93 70 01 	sts	0x0170, r24
		// ********************* Compute sensors **************************************
		SrvImuDispatcher(current_main_event);
     d16:	80 91 70 01 	lds	r24, 0x0170
     d1a:	90 91 71 01 	lds	r25, 0x0171
     d1e:	0e 94 1a 11 	call	0x2234	; 0x2234 <SrvImuDispatcher>
		//DrvAdcDispatcher(current_main_event);
		// ********************* Receive UART data ************************************
		SrvCommDispatcher(current_main_event);
     d22:	80 91 70 01 	lds	r24, 0x0170
     d26:	90 91 71 01 	lds	r25, 0x0171
     d2a:	0e 94 93 0f 	call	0x1f26	; 0x1f26 <SrvCommDispatcher>
     d2e:	e9 cf       	rjmp	.-46     	; 0xd02 <main+0x132>

00000d30 <DrvAdcInit>:
//Fonction d'initialisation
//return : TRUE si ok
Boolean DrvAdcInit ( void )
{
	Boolean o_success = FALSE;
	ADMUX |= (1<<REFS0);
     d30:	ec e7       	ldi	r30, 0x7C	; 124
     d32:	f0 e0       	ldi	r31, 0x00	; 0
     d34:	80 81       	ld	r24, Z
     d36:	80 64       	ori	r24, 0x40	; 64
     d38:	80 83       	st	Z, r24
	ADMUX |= (1<<MUX1);
     d3a:	80 81       	ld	r24, Z
     d3c:	82 60       	ori	r24, 0x02	; 2
     d3e:	80 83       	st	Z, r24
	ADMUX |= (1<<MUX2);
     d40:	80 81       	ld	r24, Z
     d42:	84 60       	ori	r24, 0x04	; 4
     d44:	80 83       	st	Z, r24
	ADMUX |= (1<<REFS0);
     d46:	80 81       	ld	r24, Z
     d48:	80 64       	ori	r24, 0x40	; 64
     d4a:	80 83       	st	Z, r24
	ADCSRA |= (1<<ADEN);
     d4c:	ea e7       	ldi	r30, 0x7A	; 122
     d4e:	f0 e0       	ldi	r31, 0x00	; 0
     d50:	80 81       	ld	r24, Z
     d52:	80 68       	ori	r24, 0x80	; 128
     d54:	80 83       	st	Z, r24
	ADCSRA |= (1<<ADIE);
     d56:	80 81       	ld	r24, Z
     d58:	88 60       	ori	r24, 0x08	; 8
     d5a:	80 83       	st	Z, r24
	adc_conv = 0U;
     d5c:	10 92 7b 01 	sts	0x017B, r1
     d60:	10 92 7a 01 	sts	0x017A, r1
	return o_success;
}
     d64:	80 e0       	ldi	r24, 0x00	; 0
     d66:	08 95       	ret

00000d68 <DrvAdcDispatcher>:

//Fonction de dispatching d'evenements
void DrvAdcDispatcher ( Event_t in_event )
{
	//on fais une mesure toutes les 100 ms
	if( DrvEventTestEvent( in_event, CONF_EVENT_TIMER_100MS ) == TRUE)
     d68:	62 e0       	ldi	r22, 0x02	; 2
     d6a:	0e 94 c7 08 	call	0x118e	; 0x118e <DrvEventTestEvent>
     d6e:	81 30       	cpi	r24, 0x01	; 1
     d70:	09 f0       	breq	.+2      	; 0xd74 <DrvAdcDispatcher+0xc>
     d72:	08 95       	ret
	{
		ADCSRA |= (1<<ADSC);
     d74:	80 91 7a 00 	lds	r24, 0x007A
     d78:	80 64       	ori	r24, 0x40	; 64
     d7a:	80 93 7a 00 	sts	0x007A, r24
     d7e:	08 95       	ret

00000d80 <__vector_21>:


////////////////////////////////////////PRIVATE FUNCTIONS/////////////////////////////////////////
//ISR 
ISR(ADC_vect)
{
     d80:	1f 92       	push	r1
     d82:	0f 92       	push	r0
     d84:	0f b6       	in	r0, 0x3f	; 63
     d86:	0f 92       	push	r0
     d88:	11 24       	eor	r1, r1
     d8a:	8f 93       	push	r24
     d8c:	9f 93       	push	r25
	adc_conv = ADC;
     d8e:	80 91 78 00 	lds	r24, 0x0078
     d92:	90 91 79 00 	lds	r25, 0x0079
     d96:	90 93 7b 01 	sts	0x017B, r25
     d9a:	80 93 7a 01 	sts	0x017A, r24
	imu_reel.adc_conv  = adc_conv;
     d9e:	90 93 c8 02 	sts	0x02C8, r25
     da2:	80 93 c7 02 	sts	0x02C7, r24
     da6:	9f 91       	pop	r25
     da8:	8f 91       	pop	r24
     daa:	0f 90       	pop	r0
     dac:	0f be       	out	0x3f, r0	; 63
     dae:	0f 90       	pop	r0
     db0:	1f 90       	pop	r1
     db2:	18 95       	reti

00000db4 <DrvEepromInit>:

////////////////////////////////////////PRIVATE FUNCTIONS/////////////////////////////////////////
//Fonction de lecture eeprom
static Int8U DrvEepromReadByte ( const Int8U * addr )
{
	return eeprom_read_byte(addr);
     db4:	80 e0       	ldi	r24, 0x00	; 0
     db6:	90 e0       	ldi	r25, 0x00	; 0
     db8:	0e 94 a6 2c 	call	0x594c	; 0x594c <__eerd_byte_m328p>
//Fonction d'initialisation
//return : TRUE si ok
Boolean DrvEepromInit ( void )
{
	Boolean o_success = FALSE;
	val = DrvEepromReadByte( ADDR_EEPROM_CHECK_EEPROM );
     dbc:	80 93 7d 01 	sts	0x017D, r24
	if( val == VAL_EEPROM_CHECK_OK )
     dc0:	88 23       	and	r24, r24
     dc2:	21 f0       	breq	.+8      	; 0xdcc <DrvEepromInit+0x18>
		eeprom_est_configure = TRUE;
		o_success = TRUE;	
	}
	else
	{
		eeprom_est_configure = FALSE;
     dc4:	10 92 7c 01 	sts	0x017C, r1
////////////////////////////////////////PUBILC FUNCTIONS//////////////////////////////////////////
//Fonction d'initialisation
//return : TRUE si ok
Boolean DrvEepromInit ( void )
{
	Boolean o_success = FALSE;
     dc8:	80 e0       	ldi	r24, 0x00	; 0
	else
	{
		eeprom_est_configure = FALSE;
	}
	return o_success;
}
     dca:	08 95       	ret
{
	Boolean o_success = FALSE;
	val = DrvEepromReadByte( ADDR_EEPROM_CHECK_EEPROM );
	if( val == VAL_EEPROM_CHECK_OK )
	{
		eeprom_est_configure = TRUE;
     dcc:	81 e0       	ldi	r24, 0x01	; 1
     dce:	80 93 7c 01 	sts	0x017C, r24
     dd2:	08 95       	ret

00000dd4 <DrvEepromDeconfigure>:
}

//Fonction d ecriture eeprom
static void DrvEepromWriteByte ( Int8U * addr, Int8U byte)
{
	eeprom_write_byte(addr,byte);
     dd4:	80 e0       	ldi	r24, 0x00	; 0
     dd6:	90 e0       	ldi	r25, 0x00	; 0
     dd8:	6f ef       	ldi	r22, 0xFF	; 255
     dda:	0e 94 b4 2c 	call	0x5968	; 0x5968 <__eewr_byte_m328p>

//ecrit l'etat de config de l'eeprom
void DrvEepromDeconfigure ( void )
{
	DrvEepromWriteByte(ADDR_EEPROM_CHECK_EEPROM,VAL_EEPROM_CHECK_NOK);
}
     dde:	08 95       	ret

00000de0 <DrvEepromConfigure>:
}

//Fonction d ecriture eeprom
static void DrvEepromWriteByte ( Int8U * addr, Int8U byte)
{
	eeprom_write_byte(addr,byte);
     de0:	80 e0       	ldi	r24, 0x00	; 0
     de2:	90 e0       	ldi	r25, 0x00	; 0
     de4:	60 e0       	ldi	r22, 0x00	; 0
     de6:	0e 94 b4 2c 	call	0x5968	; 0x5968 <__eewr_byte_m328p>

//ecrit l'etat de config de l'eeprom
void DrvEepromConfigure ( void )
{
	DrvEepromWriteByte(ADDR_EEPROM_CHECK_EEPROM,VAL_EEPROM_CHECK_OK);
}
     dea:	08 95       	ret

00000dec <DrvEepromIsConfigured>:

//retourne l'etat de config de l'eeprom
Boolean DrvEepromIsConfigured ( void )
{
	return eeprom_est_configure;
}
     dec:	80 91 7c 01 	lds	r24, 0x017C
     df0:	08 95       	ret

00000df2 <DrvEepromReadAcc>:

//retourne les config de l'accelerometre
void DrvEepromReadAcc ( Int16S calib[ 3U ] )
{
     df2:	0f 93       	push	r16
     df4:	1f 93       	push	r17
     df6:	cf 93       	push	r28
     df8:	df 93       	push	r29
     dfa:	ec 01       	movw	r28, r24

//Fonction de lecture eeprom
static Int16U DrvEepromReadShort( const Int8U * addr )
{
	Int16U ret = 0;
	ret = eeprom_read_byte(addr) ;
     dfc:	81 e0       	ldi	r24, 0x01	; 1
     dfe:	90 e0       	ldi	r25, 0x00	; 0
     e00:	0e 94 a6 2c 	call	0x594c	; 0x594c <__eerd_byte_m328p>
	ret = ret << 8U ;
     e04:	18 2f       	mov	r17, r24
     e06:	00 e0       	ldi	r16, 0x00	; 0
	ret |= eeprom_read_byte((addr + 1));
     e08:	82 e0       	ldi	r24, 0x02	; 2
     e0a:	90 e0       	ldi	r25, 0x00	; 0
     e0c:	0e 94 a6 2c 	call	0x594c	; 0x594c <__eerd_byte_m328p>
     e10:	90 e0       	ldi	r25, 0x00	; 0
     e12:	80 2b       	or	r24, r16
     e14:	91 2b       	or	r25, r17
}

//retourne les config de l'accelerometre
void DrvEepromReadAcc ( Int16S calib[ 3U ] )
{
	calib[ 0U ] = DrvEepromReadShort(ADDR_EEPROM_ACC_CALIB_X);
     e16:	99 83       	std	Y+1, r25	; 0x01
     e18:	88 83       	st	Y, r24

//Fonction de lecture eeprom
static Int16U DrvEepromReadShort( const Int8U * addr )
{
	Int16U ret = 0;
	ret = eeprom_read_byte(addr) ;
     e1a:	83 e0       	ldi	r24, 0x03	; 3
     e1c:	90 e0       	ldi	r25, 0x00	; 0
     e1e:	0e 94 a6 2c 	call	0x594c	; 0x594c <__eerd_byte_m328p>
	ret = ret << 8U ;
     e22:	18 2f       	mov	r17, r24
     e24:	00 e0       	ldi	r16, 0x00	; 0
	ret |= eeprom_read_byte((addr + 1));
     e26:	84 e0       	ldi	r24, 0x04	; 4
     e28:	90 e0       	ldi	r25, 0x00	; 0
     e2a:	0e 94 a6 2c 	call	0x594c	; 0x594c <__eerd_byte_m328p>
     e2e:	90 e0       	ldi	r25, 0x00	; 0
     e30:	80 2b       	or	r24, r16
     e32:	91 2b       	or	r25, r17

//retourne les config de l'accelerometre
void DrvEepromReadAcc ( Int16S calib[ 3U ] )
{
	calib[ 0U ] = DrvEepromReadShort(ADDR_EEPROM_ACC_CALIB_X);
	calib[ 1U ] = DrvEepromReadShort(ADDR_EEPROM_ACC_CALIB_Y);
     e34:	9b 83       	std	Y+3, r25	; 0x03
     e36:	8a 83       	std	Y+2, r24	; 0x02

//Fonction de lecture eeprom
static Int16U DrvEepromReadShort( const Int8U * addr )
{
	Int16U ret = 0;
	ret = eeprom_read_byte(addr) ;
     e38:	85 e0       	ldi	r24, 0x05	; 5
     e3a:	90 e0       	ldi	r25, 0x00	; 0
     e3c:	0e 94 a6 2c 	call	0x594c	; 0x594c <__eerd_byte_m328p>
	ret = ret << 8U ;
     e40:	18 2f       	mov	r17, r24
     e42:	00 e0       	ldi	r16, 0x00	; 0
	ret |= eeprom_read_byte((addr + 1));
     e44:	86 e0       	ldi	r24, 0x06	; 6
     e46:	90 e0       	ldi	r25, 0x00	; 0
     e48:	0e 94 a6 2c 	call	0x594c	; 0x594c <__eerd_byte_m328p>
     e4c:	90 e0       	ldi	r25, 0x00	; 0
     e4e:	80 2b       	or	r24, r16
     e50:	91 2b       	or	r25, r17
//retourne les config de l'accelerometre
void DrvEepromReadAcc ( Int16S calib[ 3U ] )
{
	calib[ 0U ] = DrvEepromReadShort(ADDR_EEPROM_ACC_CALIB_X);
	calib[ 1U ] = DrvEepromReadShort(ADDR_EEPROM_ACC_CALIB_Y);
	calib[ 2U ] = DrvEepromReadShort(ADDR_EEPROM_ACC_CALIB_Z);
     e52:	9d 83       	std	Y+5, r25	; 0x05
     e54:	8c 83       	std	Y+4, r24	; 0x04
}
     e56:	df 91       	pop	r29
     e58:	cf 91       	pop	r28
     e5a:	1f 91       	pop	r17
     e5c:	0f 91       	pop	r16
     e5e:	08 95       	ret

00000e60 <DrvEepromWriteAcc>:

//enregistre les config de l'accelerometre
void DrvEepromWriteAcc ( Int16S calib[ 3U ] )
{
     e60:	1f 93       	push	r17
     e62:	cf 93       	push	r28
     e64:	df 93       	push	r29
     e66:	ec 01       	movw	r28, r24
	DrvEepromWriteShort(ADDR_EEPROM_ACC_CALIB_X,calib[ 0U ]);
     e68:	18 81       	ld	r17, Y
     e6a:	69 81       	ldd	r22, Y+1	; 0x01
}
	
//Fonction d ecriture eeprom
static void DrvEepromWriteShort ( Int8U *addr, Int16U byte)
{
	eeprom_write_byte((addr), (Int8U)(byte >> 8U) );
     e6c:	81 e0       	ldi	r24, 0x01	; 1
     e6e:	90 e0       	ldi	r25, 0x00	; 0
     e70:	0e 94 b4 2c 	call	0x5968	; 0x5968 <__eewr_byte_m328p>
	eeprom_write_byte((addr + 1) ,(Int8U)(byte));
     e74:	82 e0       	ldi	r24, 0x02	; 2
     e76:	90 e0       	ldi	r25, 0x00	; 0
     e78:	61 2f       	mov	r22, r17
     e7a:	0e 94 b4 2c 	call	0x5968	; 0x5968 <__eewr_byte_m328p>

//enregistre les config de l'accelerometre
void DrvEepromWriteAcc ( Int16S calib[ 3U ] )
{
	DrvEepromWriteShort(ADDR_EEPROM_ACC_CALIB_X,calib[ 0U ]);
	DrvEepromWriteShort(ADDR_EEPROM_ACC_CALIB_Y,calib[ 1U ]);
     e7e:	1a 81       	ldd	r17, Y+2	; 0x02
     e80:	6b 81       	ldd	r22, Y+3	; 0x03
}
	
//Fonction d ecriture eeprom
static void DrvEepromWriteShort ( Int8U *addr, Int16U byte)
{
	eeprom_write_byte((addr), (Int8U)(byte >> 8U) );
     e82:	83 e0       	ldi	r24, 0x03	; 3
     e84:	90 e0       	ldi	r25, 0x00	; 0
     e86:	0e 94 b4 2c 	call	0x5968	; 0x5968 <__eewr_byte_m328p>
	eeprom_write_byte((addr + 1) ,(Int8U)(byte));
     e8a:	84 e0       	ldi	r24, 0x04	; 4
     e8c:	90 e0       	ldi	r25, 0x00	; 0
     e8e:	61 2f       	mov	r22, r17
     e90:	0e 94 b4 2c 	call	0x5968	; 0x5968 <__eewr_byte_m328p>
//enregistre les config de l'accelerometre
void DrvEepromWriteAcc ( Int16S calib[ 3U ] )
{
	DrvEepromWriteShort(ADDR_EEPROM_ACC_CALIB_X,calib[ 0U ]);
	DrvEepromWriteShort(ADDR_EEPROM_ACC_CALIB_Y,calib[ 1U ]);
	DrvEepromWriteShort(ADDR_EEPROM_ACC_CALIB_Z,calib[ 2U ]);
     e94:	1c 81       	ldd	r17, Y+4	; 0x04
     e96:	6d 81       	ldd	r22, Y+5	; 0x05
}
	
//Fonction d ecriture eeprom
static void DrvEepromWriteShort ( Int8U *addr, Int16U byte)
{
	eeprom_write_byte((addr), (Int8U)(byte >> 8U) );
     e98:	85 e0       	ldi	r24, 0x05	; 5
     e9a:	90 e0       	ldi	r25, 0x00	; 0
     e9c:	0e 94 b4 2c 	call	0x5968	; 0x5968 <__eewr_byte_m328p>
	eeprom_write_byte((addr + 1) ,(Int8U)(byte));
     ea0:	86 e0       	ldi	r24, 0x06	; 6
     ea2:	90 e0       	ldi	r25, 0x00	; 0
     ea4:	61 2f       	mov	r22, r17
     ea6:	0e 94 b4 2c 	call	0x5968	; 0x5968 <__eewr_byte_m328p>
void DrvEepromWriteAcc ( Int16S calib[ 3U ] )
{
	DrvEepromWriteShort(ADDR_EEPROM_ACC_CALIB_X,calib[ 0U ]);
	DrvEepromWriteShort(ADDR_EEPROM_ACC_CALIB_Y,calib[ 1U ]);
	DrvEepromWriteShort(ADDR_EEPROM_ACC_CALIB_Z,calib[ 2U ]);
}
     eaa:	df 91       	pop	r29
     eac:	cf 91       	pop	r28
     eae:	1f 91       	pop	r17
     eb0:	08 95       	ret

00000eb2 <DrvEepromReadGyro>:

//retourne les config du gyroscope
void DrvEepromReadGyro ( Int16S calib[ 3U ] )
{
     eb2:	0f 93       	push	r16
     eb4:	1f 93       	push	r17
     eb6:	cf 93       	push	r28
     eb8:	df 93       	push	r29
     eba:	ec 01       	movw	r28, r24

//Fonction de lecture eeprom
static Int16U DrvEepromReadShort( const Int8U * addr )
{
	Int16U ret = 0;
	ret = eeprom_read_byte(addr) ;
     ebc:	87 e0       	ldi	r24, 0x07	; 7
     ebe:	90 e0       	ldi	r25, 0x00	; 0
     ec0:	0e 94 a6 2c 	call	0x594c	; 0x594c <__eerd_byte_m328p>
	ret = ret << 8U ;
     ec4:	18 2f       	mov	r17, r24
     ec6:	00 e0       	ldi	r16, 0x00	; 0
	ret |= eeprom_read_byte((addr + 1));
     ec8:	88 e0       	ldi	r24, 0x08	; 8
     eca:	90 e0       	ldi	r25, 0x00	; 0
     ecc:	0e 94 a6 2c 	call	0x594c	; 0x594c <__eerd_byte_m328p>
     ed0:	90 e0       	ldi	r25, 0x00	; 0
     ed2:	80 2b       	or	r24, r16
     ed4:	91 2b       	or	r25, r17
}

//retourne les config du gyroscope
void DrvEepromReadGyro ( Int16S calib[ 3U ] )
{
	calib[ 0U ] = DrvEepromReadShort(ADDR_EEPROM_GYRO_CALIB_X);
     ed6:	99 83       	std	Y+1, r25	; 0x01
     ed8:	88 83       	st	Y, r24

//Fonction de lecture eeprom
static Int16U DrvEepromReadShort( const Int8U * addr )
{
	Int16U ret = 0;
	ret = eeprom_read_byte(addr) ;
     eda:	89 e0       	ldi	r24, 0x09	; 9
     edc:	90 e0       	ldi	r25, 0x00	; 0
     ede:	0e 94 a6 2c 	call	0x594c	; 0x594c <__eerd_byte_m328p>
	ret = ret << 8U ;
     ee2:	18 2f       	mov	r17, r24
     ee4:	00 e0       	ldi	r16, 0x00	; 0
	ret |= eeprom_read_byte((addr + 1));
     ee6:	8a e0       	ldi	r24, 0x0A	; 10
     ee8:	90 e0       	ldi	r25, 0x00	; 0
     eea:	0e 94 a6 2c 	call	0x594c	; 0x594c <__eerd_byte_m328p>
     eee:	90 e0       	ldi	r25, 0x00	; 0
     ef0:	80 2b       	or	r24, r16
     ef2:	91 2b       	or	r25, r17

//retourne les config du gyroscope
void DrvEepromReadGyro ( Int16S calib[ 3U ] )
{
	calib[ 0U ] = DrvEepromReadShort(ADDR_EEPROM_GYRO_CALIB_X);
	calib[ 1U ] = DrvEepromReadShort(ADDR_EEPROM_GYRO_CALIB_Y);
     ef4:	9b 83       	std	Y+3, r25	; 0x03
     ef6:	8a 83       	std	Y+2, r24	; 0x02

//Fonction de lecture eeprom
static Int16U DrvEepromReadShort( const Int8U * addr )
{
	Int16U ret = 0;
	ret = eeprom_read_byte(addr) ;
     ef8:	8b e0       	ldi	r24, 0x0B	; 11
     efa:	90 e0       	ldi	r25, 0x00	; 0
     efc:	0e 94 a6 2c 	call	0x594c	; 0x594c <__eerd_byte_m328p>
	ret = ret << 8U ;
     f00:	18 2f       	mov	r17, r24
     f02:	00 e0       	ldi	r16, 0x00	; 0
	ret |= eeprom_read_byte((addr + 1));
     f04:	8c e0       	ldi	r24, 0x0C	; 12
     f06:	90 e0       	ldi	r25, 0x00	; 0
     f08:	0e 94 a6 2c 	call	0x594c	; 0x594c <__eerd_byte_m328p>
     f0c:	90 e0       	ldi	r25, 0x00	; 0
     f0e:	80 2b       	or	r24, r16
     f10:	91 2b       	or	r25, r17
//retourne les config du gyroscope
void DrvEepromReadGyro ( Int16S calib[ 3U ] )
{
	calib[ 0U ] = DrvEepromReadShort(ADDR_EEPROM_GYRO_CALIB_X);
	calib[ 1U ] = DrvEepromReadShort(ADDR_EEPROM_GYRO_CALIB_Y);
	calib[ 2U ] = DrvEepromReadShort(ADDR_EEPROM_GYRO_CALIB_Z);
     f12:	9d 83       	std	Y+5, r25	; 0x05
     f14:	8c 83       	std	Y+4, r24	; 0x04
}
     f16:	df 91       	pop	r29
     f18:	cf 91       	pop	r28
     f1a:	1f 91       	pop	r17
     f1c:	0f 91       	pop	r16
     f1e:	08 95       	ret

00000f20 <DrvEepromWriteGyro>:

//enregistre les config du gyroscope
void DrvEepromWriteGyro ( Int16S calib[ 3U ] )
{
     f20:	1f 93       	push	r17
     f22:	cf 93       	push	r28
     f24:	df 93       	push	r29
     f26:	ec 01       	movw	r28, r24
	DrvEepromWriteShort(ADDR_EEPROM_GYRO_CALIB_X,calib[ 0U ]);
     f28:	18 81       	ld	r17, Y
     f2a:	69 81       	ldd	r22, Y+1	; 0x01
}
	
//Fonction d ecriture eeprom
static void DrvEepromWriteShort ( Int8U *addr, Int16U byte)
{
	eeprom_write_byte((addr), (Int8U)(byte >> 8U) );
     f2c:	87 e0       	ldi	r24, 0x07	; 7
     f2e:	90 e0       	ldi	r25, 0x00	; 0
     f30:	0e 94 b4 2c 	call	0x5968	; 0x5968 <__eewr_byte_m328p>
	eeprom_write_byte((addr + 1) ,(Int8U)(byte));
     f34:	88 e0       	ldi	r24, 0x08	; 8
     f36:	90 e0       	ldi	r25, 0x00	; 0
     f38:	61 2f       	mov	r22, r17
     f3a:	0e 94 b4 2c 	call	0x5968	; 0x5968 <__eewr_byte_m328p>

//enregistre les config du gyroscope
void DrvEepromWriteGyro ( Int16S calib[ 3U ] )
{
	DrvEepromWriteShort(ADDR_EEPROM_GYRO_CALIB_X,calib[ 0U ]);
	DrvEepromWriteShort(ADDR_EEPROM_GYRO_CALIB_Y,calib[ 1U ]);
     f3e:	1a 81       	ldd	r17, Y+2	; 0x02
     f40:	6b 81       	ldd	r22, Y+3	; 0x03
}
	
//Fonction d ecriture eeprom
static void DrvEepromWriteShort ( Int8U *addr, Int16U byte)
{
	eeprom_write_byte((addr), (Int8U)(byte >> 8U) );
     f42:	89 e0       	ldi	r24, 0x09	; 9
     f44:	90 e0       	ldi	r25, 0x00	; 0
     f46:	0e 94 b4 2c 	call	0x5968	; 0x5968 <__eewr_byte_m328p>
	eeprom_write_byte((addr + 1) ,(Int8U)(byte));
     f4a:	8a e0       	ldi	r24, 0x0A	; 10
     f4c:	90 e0       	ldi	r25, 0x00	; 0
     f4e:	61 2f       	mov	r22, r17
     f50:	0e 94 b4 2c 	call	0x5968	; 0x5968 <__eewr_byte_m328p>
//enregistre les config du gyroscope
void DrvEepromWriteGyro ( Int16S calib[ 3U ] )
{
	DrvEepromWriteShort(ADDR_EEPROM_GYRO_CALIB_X,calib[ 0U ]);
	DrvEepromWriteShort(ADDR_EEPROM_GYRO_CALIB_Y,calib[ 1U ]);
	DrvEepromWriteShort(ADDR_EEPROM_GYRO_CALIB_Z,calib[ 2U ]);
     f54:	1c 81       	ldd	r17, Y+4	; 0x04
     f56:	6d 81       	ldd	r22, Y+5	; 0x05
}
	
//Fonction d ecriture eeprom
static void DrvEepromWriteShort ( Int8U *addr, Int16U byte)
{
	eeprom_write_byte((addr), (Int8U)(byte >> 8U) );
     f58:	8b e0       	ldi	r24, 0x0B	; 11
     f5a:	90 e0       	ldi	r25, 0x00	; 0
     f5c:	0e 94 b4 2c 	call	0x5968	; 0x5968 <__eewr_byte_m328p>
	eeprom_write_byte((addr + 1) ,(Int8U)(byte));
     f60:	8c e0       	ldi	r24, 0x0C	; 12
     f62:	90 e0       	ldi	r25, 0x00	; 0
     f64:	61 2f       	mov	r22, r17
     f66:	0e 94 b4 2c 	call	0x5968	; 0x5968 <__eewr_byte_m328p>
void DrvEepromWriteGyro ( Int16S calib[ 3U ] )
{
	DrvEepromWriteShort(ADDR_EEPROM_GYRO_CALIB_X,calib[ 0U ]);
	DrvEepromWriteShort(ADDR_EEPROM_GYRO_CALIB_Y,calib[ 1U ]);
	DrvEepromWriteShort(ADDR_EEPROM_GYRO_CALIB_Z,calib[ 2U ]);
}
     f6a:	df 91       	pop	r29
     f6c:	cf 91       	pop	r28
     f6e:	1f 91       	pop	r17
     f70:	08 95       	ret

00000f72 <DrvEepromReadPID>:

//retourne les config du pid
void DrvEepromReadPID(Int8U index,float *P, float *I, float *D)
{
     f72:	ef 92       	push	r14
     f74:	ff 92       	push	r15
     f76:	0f 93       	push	r16
     f78:	1f 93       	push	r17
     f7a:	cf 93       	push	r28
     f7c:	df 93       	push	r29
     f7e:	7b 01       	movw	r14, r22
     f80:	8a 01       	movw	r16, r20
     f82:	e9 01       	movw	r28, r18
	if( index == 0 )
     f84:	88 23       	and	r24, r24
     f86:	49 f1       	breq	.+82     	; 0xfda <DrvEepromReadPID+0x68>
	{
		*P = DrvEepromReadFloat(ADDR_EEPROM_PID_0_P);
		*I = DrvEepromReadFloat(ADDR_EEPROM_PID_0_I);
		*D = DrvEepromReadFloat(ADDR_EEPROM_PID_0_D);
	}
	else if( index == 1 )
     f88:	81 30       	cpi	r24, 0x01	; 1
     f8a:	09 f4       	brne	.+2      	; 0xf8e <DrvEepromReadPID+0x1c>
     f8c:	47 c0       	rjmp	.+142    	; 0x101c <DrvEepromReadPID+0xaa>
	{
		*P = DrvEepromReadFloat(ADDR_EEPROM_PID_1_P);
		*I = DrvEepromReadFloat(ADDR_EEPROM_PID_1_I);
		*D = DrvEepromReadFloat(ADDR_EEPROM_PID_1_D);
	}
	else if( index == 2 )
     f8e:	82 30       	cpi	r24, 0x02	; 2
     f90:	09 f4       	brne	.+2      	; 0xf94 <DrvEepromReadPID+0x22>
     f92:	65 c0       	rjmp	.+202    	; 0x105e <DrvEepromReadPID+0xec>
	{
		*P = DrvEepromReadFloat(ADDR_EEPROM_PID_2_P);
		*I = DrvEepromReadFloat(ADDR_EEPROM_PID_2_I);
		*D = DrvEepromReadFloat(ADDR_EEPROM_PID_2_D);
	}
	else if( index == 3 )
     f94:	83 30       	cpi	r24, 0x03	; 3
     f96:	d1 f4       	brne	.+52     	; 0xfcc <DrvEepromReadPID+0x5a>
}

//Fonction de lecture eeprom
static float DrvEepromReadFloat( const Int8U * addr )
{
	return eeprom_read_float((float*)addr);
     f98:	81 e3       	ldi	r24, 0x31	; 49
     f9a:	90 e0       	ldi	r25, 0x00	; 0
     f9c:	0e 94 ae 2c 	call	0x595c	; 0x595c <__eerd_dword_m328p>
		*I = DrvEepromReadFloat(ADDR_EEPROM_PID_2_I);
		*D = DrvEepromReadFloat(ADDR_EEPROM_PID_2_D);
	}
	else if( index == 3 )
	{
		*P = DrvEepromReadFloat(ADDR_EEPROM_PID_3_P);
     fa0:	f7 01       	movw	r30, r14
     fa2:	60 83       	st	Z, r22
     fa4:	71 83       	std	Z+1, r23	; 0x01
     fa6:	82 83       	std	Z+2, r24	; 0x02
     fa8:	93 83       	std	Z+3, r25	; 0x03
}

//Fonction de lecture eeprom
static float DrvEepromReadFloat( const Int8U * addr )
{
	return eeprom_read_float((float*)addr);
     faa:	85 e3       	ldi	r24, 0x35	; 53
     fac:	90 e0       	ldi	r25, 0x00	; 0
     fae:	0e 94 ae 2c 	call	0x595c	; 0x595c <__eerd_dword_m328p>
		*D = DrvEepromReadFloat(ADDR_EEPROM_PID_2_D);
	}
	else if( index == 3 )
	{
		*P = DrvEepromReadFloat(ADDR_EEPROM_PID_3_P);
		*I = DrvEepromReadFloat(ADDR_EEPROM_PID_3_I);
     fb2:	f8 01       	movw	r30, r16
     fb4:	60 83       	st	Z, r22
     fb6:	71 83       	std	Z+1, r23	; 0x01
     fb8:	82 83       	std	Z+2, r24	; 0x02
     fba:	93 83       	std	Z+3, r25	; 0x03
}

//Fonction de lecture eeprom
static float DrvEepromReadFloat( const Int8U * addr )
{
	return eeprom_read_float((float*)addr);
     fbc:	89 e3       	ldi	r24, 0x39	; 57
     fbe:	90 e0       	ldi	r25, 0x00	; 0
     fc0:	0e 94 ae 2c 	call	0x595c	; 0x595c <__eerd_dword_m328p>
	}
	else if( index == 3 )
	{
		*P = DrvEepromReadFloat(ADDR_EEPROM_PID_3_P);
		*I = DrvEepromReadFloat(ADDR_EEPROM_PID_3_I);
		*D = DrvEepromReadFloat(ADDR_EEPROM_PID_3_D);
     fc4:	68 83       	st	Y, r22
     fc6:	79 83       	std	Y+1, r23	; 0x01
     fc8:	8a 83       	std	Y+2, r24	; 0x02
     fca:	9b 83       	std	Y+3, r25	; 0x03
	}
}
     fcc:	df 91       	pop	r29
     fce:	cf 91       	pop	r28
     fd0:	1f 91       	pop	r17
     fd2:	0f 91       	pop	r16
     fd4:	ff 90       	pop	r15
     fd6:	ef 90       	pop	r14
     fd8:	08 95       	ret
}

//Fonction de lecture eeprom
static float DrvEepromReadFloat( const Int8U * addr )
{
	return eeprom_read_float((float*)addr);
     fda:	8d e0       	ldi	r24, 0x0D	; 13
     fdc:	90 e0       	ldi	r25, 0x00	; 0
     fde:	0e 94 ae 2c 	call	0x595c	; 0x595c <__eerd_dword_m328p>
//retourne les config du pid
void DrvEepromReadPID(Int8U index,float *P, float *I, float *D)
{
	if( index == 0 )
	{
		*P = DrvEepromReadFloat(ADDR_EEPROM_PID_0_P);
     fe2:	f7 01       	movw	r30, r14
     fe4:	60 83       	st	Z, r22
     fe6:	71 83       	std	Z+1, r23	; 0x01
     fe8:	82 83       	std	Z+2, r24	; 0x02
     fea:	93 83       	std	Z+3, r25	; 0x03
}

//Fonction de lecture eeprom
static float DrvEepromReadFloat( const Int8U * addr )
{
	return eeprom_read_float((float*)addr);
     fec:	81 e1       	ldi	r24, 0x11	; 17
     fee:	90 e0       	ldi	r25, 0x00	; 0
     ff0:	0e 94 ae 2c 	call	0x595c	; 0x595c <__eerd_dword_m328p>
void DrvEepromReadPID(Int8U index,float *P, float *I, float *D)
{
	if( index == 0 )
	{
		*P = DrvEepromReadFloat(ADDR_EEPROM_PID_0_P);
		*I = DrvEepromReadFloat(ADDR_EEPROM_PID_0_I);
     ff4:	f8 01       	movw	r30, r16
     ff6:	60 83       	st	Z, r22
     ff8:	71 83       	std	Z+1, r23	; 0x01
     ffa:	82 83       	std	Z+2, r24	; 0x02
     ffc:	93 83       	std	Z+3, r25	; 0x03
}

//Fonction de lecture eeprom
static float DrvEepromReadFloat( const Int8U * addr )
{
	return eeprom_read_float((float*)addr);
     ffe:	85 e1       	ldi	r24, 0x15	; 21
    1000:	90 e0       	ldi	r25, 0x00	; 0
    1002:	0e 94 ae 2c 	call	0x595c	; 0x595c <__eerd_dword_m328p>
{
	if( index == 0 )
	{
		*P = DrvEepromReadFloat(ADDR_EEPROM_PID_0_P);
		*I = DrvEepromReadFloat(ADDR_EEPROM_PID_0_I);
		*D = DrvEepromReadFloat(ADDR_EEPROM_PID_0_D);
    1006:	68 83       	st	Y, r22
    1008:	79 83       	std	Y+1, r23	; 0x01
    100a:	8a 83       	std	Y+2, r24	; 0x02
    100c:	9b 83       	std	Y+3, r25	; 0x03
	{
		*P = DrvEepromReadFloat(ADDR_EEPROM_PID_3_P);
		*I = DrvEepromReadFloat(ADDR_EEPROM_PID_3_I);
		*D = DrvEepromReadFloat(ADDR_EEPROM_PID_3_D);
	}
}
    100e:	df 91       	pop	r29
    1010:	cf 91       	pop	r28
    1012:	1f 91       	pop	r17
    1014:	0f 91       	pop	r16
    1016:	ff 90       	pop	r15
    1018:	ef 90       	pop	r14
    101a:	08 95       	ret
}

//Fonction de lecture eeprom
static float DrvEepromReadFloat( const Int8U * addr )
{
	return eeprom_read_float((float*)addr);
    101c:	89 e1       	ldi	r24, 0x19	; 25
    101e:	90 e0       	ldi	r25, 0x00	; 0
    1020:	0e 94 ae 2c 	call	0x595c	; 0x595c <__eerd_dword_m328p>
		*I = DrvEepromReadFloat(ADDR_EEPROM_PID_0_I);
		*D = DrvEepromReadFloat(ADDR_EEPROM_PID_0_D);
	}
	else if( index == 1 )
	{
		*P = DrvEepromReadFloat(ADDR_EEPROM_PID_1_P);
    1024:	f7 01       	movw	r30, r14
    1026:	60 83       	st	Z, r22
    1028:	71 83       	std	Z+1, r23	; 0x01
    102a:	82 83       	std	Z+2, r24	; 0x02
    102c:	93 83       	std	Z+3, r25	; 0x03
}

//Fonction de lecture eeprom
static float DrvEepromReadFloat( const Int8U * addr )
{
	return eeprom_read_float((float*)addr);
    102e:	8d e1       	ldi	r24, 0x1D	; 29
    1030:	90 e0       	ldi	r25, 0x00	; 0
    1032:	0e 94 ae 2c 	call	0x595c	; 0x595c <__eerd_dword_m328p>
		*D = DrvEepromReadFloat(ADDR_EEPROM_PID_0_D);
	}
	else if( index == 1 )
	{
		*P = DrvEepromReadFloat(ADDR_EEPROM_PID_1_P);
		*I = DrvEepromReadFloat(ADDR_EEPROM_PID_1_I);
    1036:	f8 01       	movw	r30, r16
    1038:	60 83       	st	Z, r22
    103a:	71 83       	std	Z+1, r23	; 0x01
    103c:	82 83       	std	Z+2, r24	; 0x02
    103e:	93 83       	std	Z+3, r25	; 0x03
}

//Fonction de lecture eeprom
static float DrvEepromReadFloat( const Int8U * addr )
{
	return eeprom_read_float((float*)addr);
    1040:	81 e2       	ldi	r24, 0x21	; 33
    1042:	90 e0       	ldi	r25, 0x00	; 0
    1044:	0e 94 ae 2c 	call	0x595c	; 0x595c <__eerd_dword_m328p>
	}
	else if( index == 1 )
	{
		*P = DrvEepromReadFloat(ADDR_EEPROM_PID_1_P);
		*I = DrvEepromReadFloat(ADDR_EEPROM_PID_1_I);
		*D = DrvEepromReadFloat(ADDR_EEPROM_PID_1_D);
    1048:	68 83       	st	Y, r22
    104a:	79 83       	std	Y+1, r23	; 0x01
    104c:	8a 83       	std	Y+2, r24	; 0x02
    104e:	9b 83       	std	Y+3, r25	; 0x03
	{
		*P = DrvEepromReadFloat(ADDR_EEPROM_PID_3_P);
		*I = DrvEepromReadFloat(ADDR_EEPROM_PID_3_I);
		*D = DrvEepromReadFloat(ADDR_EEPROM_PID_3_D);
	}
}
    1050:	df 91       	pop	r29
    1052:	cf 91       	pop	r28
    1054:	1f 91       	pop	r17
    1056:	0f 91       	pop	r16
    1058:	ff 90       	pop	r15
    105a:	ef 90       	pop	r14
    105c:	08 95       	ret
}

//Fonction de lecture eeprom
static float DrvEepromReadFloat( const Int8U * addr )
{
	return eeprom_read_float((float*)addr);
    105e:	85 e2       	ldi	r24, 0x25	; 37
    1060:	90 e0       	ldi	r25, 0x00	; 0
    1062:	0e 94 ae 2c 	call	0x595c	; 0x595c <__eerd_dword_m328p>
		*I = DrvEepromReadFloat(ADDR_EEPROM_PID_1_I);
		*D = DrvEepromReadFloat(ADDR_EEPROM_PID_1_D);
	}
	else if( index == 2 )
	{
		*P = DrvEepromReadFloat(ADDR_EEPROM_PID_2_P);
    1066:	f7 01       	movw	r30, r14
    1068:	60 83       	st	Z, r22
    106a:	71 83       	std	Z+1, r23	; 0x01
    106c:	82 83       	std	Z+2, r24	; 0x02
    106e:	93 83       	std	Z+3, r25	; 0x03
}

//Fonction de lecture eeprom
static float DrvEepromReadFloat( const Int8U * addr )
{
	return eeprom_read_float((float*)addr);
    1070:	89 e2       	ldi	r24, 0x29	; 41
    1072:	90 e0       	ldi	r25, 0x00	; 0
    1074:	0e 94 ae 2c 	call	0x595c	; 0x595c <__eerd_dword_m328p>
		*D = DrvEepromReadFloat(ADDR_EEPROM_PID_1_D);
	}
	else if( index == 2 )
	{
		*P = DrvEepromReadFloat(ADDR_EEPROM_PID_2_P);
		*I = DrvEepromReadFloat(ADDR_EEPROM_PID_2_I);
    1078:	f8 01       	movw	r30, r16
    107a:	60 83       	st	Z, r22
    107c:	71 83       	std	Z+1, r23	; 0x01
    107e:	82 83       	std	Z+2, r24	; 0x02
    1080:	93 83       	std	Z+3, r25	; 0x03
}

//Fonction de lecture eeprom
static float DrvEepromReadFloat( const Int8U * addr )
{
	return eeprom_read_float((float*)addr);
    1082:	8d e2       	ldi	r24, 0x2D	; 45
    1084:	90 e0       	ldi	r25, 0x00	; 0
    1086:	0e 94 ae 2c 	call	0x595c	; 0x595c <__eerd_dword_m328p>
	}
	else if( index == 2 )
	{
		*P = DrvEepromReadFloat(ADDR_EEPROM_PID_2_P);
		*I = DrvEepromReadFloat(ADDR_EEPROM_PID_2_I);
		*D = DrvEepromReadFloat(ADDR_EEPROM_PID_2_D);
    108a:	68 83       	st	Y, r22
    108c:	79 83       	std	Y+1, r23	; 0x01
    108e:	8a 83       	std	Y+2, r24	; 0x02
    1090:	9b 83       	std	Y+3, r25	; 0x03
    1092:	9c cf       	rjmp	.-200    	; 0xfcc <DrvEepromReadPID+0x5a>

00001094 <DrvEepromWritePID>:
	}
}

//enregistre les config du pid
void DrvEepromWritePID (Int8U index,float P, float I, float D)
{
    1094:	8f 92       	push	r8
    1096:	9f 92       	push	r9
    1098:	af 92       	push	r10
    109a:	bf 92       	push	r11
    109c:	cf 92       	push	r12
    109e:	df 92       	push	r13
    10a0:	ef 92       	push	r14
    10a2:	ff 92       	push	r15
    10a4:	0f 93       	push	r16
    10a6:	1f 93       	push	r17
    10a8:	48 01       	movw	r8, r16
    10aa:	59 01       	movw	r10, r18
	if( index == 0 )
    10ac:	88 23       	and	r24, r24
    10ae:	91 f0       	breq	.+36     	; 0x10d4 <DrvEepromWritePID+0x40>
	{
		DrvEepromWriteFloat(ADDR_EEPROM_PID_0_P, P);
		DrvEepromWriteFloat(ADDR_EEPROM_PID_0_I, I);
		DrvEepromWriteFloat(ADDR_EEPROM_PID_0_D, D);
	}
	else if( index == 1 )
    10b0:	81 30       	cpi	r24, 0x01	; 1
    10b2:	91 f1       	breq	.+100    	; 0x1118 <DrvEepromWritePID+0x84>
	{
		DrvEepromWriteFloat(ADDR_EEPROM_PID_1_P, P);
		DrvEepromWriteFloat(ADDR_EEPROM_PID_1_I, I);
		DrvEepromWriteFloat(ADDR_EEPROM_PID_1_D, D);
	}
	else if( index == 2 )
    10b4:	82 30       	cpi	r24, 0x02	; 2
    10b6:	09 f4       	brne	.+2      	; 0x10ba <DrvEepromWritePID+0x26>
    10b8:	40 c0       	rjmp	.+128    	; 0x113a <DrvEepromWritePID+0xa6>
	{
		DrvEepromWriteFloat(ADDR_EEPROM_PID_2_P, P);
		DrvEepromWriteFloat(ADDR_EEPROM_PID_2_I, I);
		DrvEepromWriteFloat(ADDR_EEPROM_PID_2_D, D);
	}
	else if( index == 3 )
    10ba:	83 30       	cpi	r24, 0x03	; 3
    10bc:	e1 f0       	breq	.+56     	; 0x10f6 <DrvEepromWritePID+0x62>
	{
		DrvEepromWriteFloat(ADDR_EEPROM_PID_3_P, P);
		DrvEepromWriteFloat(ADDR_EEPROM_PID_3_P, I);
		DrvEepromWriteFloat(ADDR_EEPROM_PID_3_P, D);
	}
}
    10be:	1f 91       	pop	r17
    10c0:	0f 91       	pop	r16
    10c2:	ff 90       	pop	r15
    10c4:	ef 90       	pop	r14
    10c6:	df 90       	pop	r13
    10c8:	cf 90       	pop	r12
    10ca:	bf 90       	pop	r11
    10cc:	af 90       	pop	r10
    10ce:	9f 90       	pop	r9
    10d0:	8f 90       	pop	r8
    10d2:	08 95       	ret
}
	
//Fonction d ecriture eeprom
static void DrvEepromWriteFloat ( Int8U *addr, float value)
{
	eeprom_write_float((float*)(addr), value );
    10d4:	8d e0       	ldi	r24, 0x0D	; 13
    10d6:	90 e0       	ldi	r25, 0x00	; 0
    10d8:	0e 94 c2 2c 	call	0x5984	; 0x5984 <__eewr_dword_m328p>
    10dc:	81 e1       	ldi	r24, 0x11	; 17
    10de:	90 e0       	ldi	r25, 0x00	; 0
    10e0:	b5 01       	movw	r22, r10
    10e2:	a4 01       	movw	r20, r8
    10e4:	0e 94 c2 2c 	call	0x5984	; 0x5984 <__eewr_dword_m328p>
    10e8:	85 e1       	ldi	r24, 0x15	; 21
    10ea:	90 e0       	ldi	r25, 0x00	; 0
    10ec:	b7 01       	movw	r22, r14
    10ee:	a6 01       	movw	r20, r12
    10f0:	0e 94 c2 2c 	call	0x5984	; 0x5984 <__eewr_dword_m328p>
    10f4:	e4 cf       	rjmp	.-56     	; 0x10be <DrvEepromWritePID+0x2a>
    10f6:	81 e3       	ldi	r24, 0x31	; 49
    10f8:	90 e0       	ldi	r25, 0x00	; 0
    10fa:	0e 94 c2 2c 	call	0x5984	; 0x5984 <__eewr_dword_m328p>
    10fe:	81 e3       	ldi	r24, 0x31	; 49
    1100:	90 e0       	ldi	r25, 0x00	; 0
    1102:	b5 01       	movw	r22, r10
    1104:	a4 01       	movw	r20, r8
    1106:	0e 94 c2 2c 	call	0x5984	; 0x5984 <__eewr_dword_m328p>
    110a:	81 e3       	ldi	r24, 0x31	; 49
    110c:	90 e0       	ldi	r25, 0x00	; 0
    110e:	b7 01       	movw	r22, r14
    1110:	a6 01       	movw	r20, r12
    1112:	0e 94 c2 2c 	call	0x5984	; 0x5984 <__eewr_dword_m328p>
    1116:	d3 cf       	rjmp	.-90     	; 0x10be <DrvEepromWritePID+0x2a>
    1118:	89 e1       	ldi	r24, 0x19	; 25
    111a:	90 e0       	ldi	r25, 0x00	; 0
    111c:	0e 94 c2 2c 	call	0x5984	; 0x5984 <__eewr_dword_m328p>
    1120:	8d e1       	ldi	r24, 0x1D	; 29
    1122:	90 e0       	ldi	r25, 0x00	; 0
    1124:	b5 01       	movw	r22, r10
    1126:	a4 01       	movw	r20, r8
    1128:	0e 94 c2 2c 	call	0x5984	; 0x5984 <__eewr_dword_m328p>
    112c:	81 e2       	ldi	r24, 0x21	; 33
    112e:	90 e0       	ldi	r25, 0x00	; 0
    1130:	b7 01       	movw	r22, r14
    1132:	a6 01       	movw	r20, r12
    1134:	0e 94 c2 2c 	call	0x5984	; 0x5984 <__eewr_dword_m328p>
    1138:	c2 cf       	rjmp	.-124    	; 0x10be <DrvEepromWritePID+0x2a>
    113a:	85 e2       	ldi	r24, 0x25	; 37
    113c:	90 e0       	ldi	r25, 0x00	; 0
    113e:	0e 94 c2 2c 	call	0x5984	; 0x5984 <__eewr_dword_m328p>
    1142:	89 e2       	ldi	r24, 0x29	; 41
    1144:	90 e0       	ldi	r25, 0x00	; 0
    1146:	b5 01       	movw	r22, r10
    1148:	a4 01       	movw	r20, r8
    114a:	0e 94 c2 2c 	call	0x5984	; 0x5984 <__eewr_dword_m328p>
    114e:	8d e2       	ldi	r24, 0x2D	; 45
    1150:	90 e0       	ldi	r25, 0x00	; 0
    1152:	b7 01       	movw	r22, r14
    1154:	a6 01       	movw	r20, r12
    1156:	0e 94 c2 2c 	call	0x5984	; 0x5984 <__eewr_dword_m328p>
    115a:	b1 cf       	rjmp	.-158    	; 0x10be <DrvEepromWritePID+0x2a>

0000115c <DrvEventInit>:
/************************************************************************/
/*Init du Drv Event                                                     */
/************************************************************************/
Boolean DrvEventInit( void )
{
	event_flags = 0U;
    115c:	10 92 7f 01 	sts	0x017F, r1
    1160:	10 92 7e 01 	sts	0x017E, r1
	return TRUE;
}
    1164:	81 e0       	ldi	r24, 0x01	; 1
    1166:	08 95       	ret

00001168 <DrvEventGetEvent>:
/************************************************************************/
/*On recupere l'evenement en cours                                      */
/************************************************************************/
inline Event_t DrvEventGetEvent(Event_t in_event)
{
	ATOMIC
    1168:	f8 94       	cli
    116a:	20 91 7e 01 	lds	r18, 0x017E
    116e:	30 91 7f 01 	lds	r19, 0x017F
    1172:	80 95       	com	r24
    1174:	90 95       	com	r25
    1176:	82 23       	and	r24, r18
    1178:	93 23       	and	r25, r19
    117a:	90 93 7f 01 	sts	0x017F, r25
    117e:	80 93 7e 01 	sts	0x017E, r24
    1182:	78 94       	sei
	(
		//on kill l'ancien event
		event_flags = ~(in_event | ~event_flags);
	)
	return event_flags;
}
    1184:	80 91 7e 01 	lds	r24, 0x017E
    1188:	90 91 7f 01 	lds	r25, 0x017F
    118c:	08 95       	ret

0000118e <DrvEventTestEvent>:
/************************************************************************/
/*On test l'evenement en cours                                          */
/************************************************************************/
inline Boolean DrvEventTestEvent(Event_t in_event,Int8U conf_event ) 
{
	if (( in_event & conf_event) > 0 )
    118e:	70 e0       	ldi	r23, 0x00	; 0
    1190:	68 23       	and	r22, r24
    1192:	79 23       	and	r23, r25
	{
		return TRUE;
    1194:	81 e0       	ldi	r24, 0x01	; 1
    1196:	61 15       	cp	r22, r1
    1198:	71 05       	cpc	r23, r1
    119a:	09 f4       	brne	.+2      	; 0x119e <DrvEventTestEvent+0x10>
    119c:	80 e0       	ldi	r24, 0x00	; 0
	}
	else
	{
		return FALSE;
	}
}
    119e:	08 95       	ret

000011a0 <DrvEventAddEvent>:
/************************************************************************/
/*On ajoute un evenement aux evenements en cours                        */
/************************************************************************/
inline Boolean DrvEventAddEvent(Event_t event)
{
	event_flags |= event ;
    11a0:	20 91 7e 01 	lds	r18, 0x017E
    11a4:	30 91 7f 01 	lds	r19, 0x017F
    11a8:	28 2b       	or	r18, r24
    11aa:	39 2b       	or	r19, r25
    11ac:	30 93 7f 01 	sts	0x017F, r19
    11b0:	20 93 7e 01 	sts	0x017E, r18
	return TRUE;
}
    11b4:	81 e0       	ldi	r24, 0x01	; 1
    11b6:	08 95       	ret

000011b8 <DrvInterruptClearAllInterrupts>:
  
/////////////////////////////////////////PUBLIC FUNCTIONS/////////////////////////////////////////
// On clear toutes les ITs 
void DrvInterruptClearAllInterrupts( void )
{
	cli();
    11b8:	f8 94       	cli
}	
    11ba:	08 95       	ret

000011bc <DrvInterruptSetAllInterrupts>:

// On clear toutes les ITs 
void DrvInterruptSetAllInterrupts( void )
{
	sei();
    11bc:	78 94       	sei
}
    11be:	08 95       	ret

000011c0 <DrvServo>:
/************************************************************************/
Boolean DrvServo( void )
{
	for(Int8U index_servo = 0; index_servo < MAX_SERVOS ; index_servo++)
	{	
		MesServos[ index_servo ].pin = index_servo;
    11c0:	10 92 81 01 	sts	0x0181, r1
    11c4:	10 92 80 01 	sts	0x0180, r1
		MesServos[ index_servo ].ticks = ConvertPowerToTick( 0U );
    11c8:	8a ef       	ldi	r24, 0xFA	; 250
    11ca:	90 e0       	ldi	r25, 0x00	; 0
    11cc:	90 93 83 01 	sts	0x0183, r25
    11d0:	80 93 82 01 	sts	0x0182, r24
		PORT_DIR_SERVO |= (1 << index_servo);
    11d4:	38 9a       	sbi	0x07, 0	; 7
/************************************************************************/
Boolean DrvServo( void )
{
	for(Int8U index_servo = 0; index_servo < MAX_SERVOS ; index_servo++)
	{	
		MesServos[ index_servo ].pin = index_servo;
    11d6:	21 e0       	ldi	r18, 0x01	; 1
    11d8:	30 e0       	ldi	r19, 0x00	; 0
    11da:	30 93 85 01 	sts	0x0185, r19
    11de:	20 93 84 01 	sts	0x0184, r18
		MesServos[ index_servo ].ticks = ConvertPowerToTick( 0U );
    11e2:	90 93 87 01 	sts	0x0187, r25
    11e6:	80 93 86 01 	sts	0x0186, r24
		PORT_DIR_SERVO |= (1 << index_servo);
    11ea:	39 9a       	sbi	0x07, 1	; 7
/************************************************************************/
Boolean DrvServo( void )
{
	for(Int8U index_servo = 0; index_servo < MAX_SERVOS ; index_servo++)
	{	
		MesServos[ index_servo ].pin = index_servo;
    11ec:	22 e0       	ldi	r18, 0x02	; 2
    11ee:	30 e0       	ldi	r19, 0x00	; 0
    11f0:	30 93 89 01 	sts	0x0189, r19
    11f4:	20 93 88 01 	sts	0x0188, r18
		MesServos[ index_servo ].ticks = ConvertPowerToTick( 0U );
    11f8:	90 93 8b 01 	sts	0x018B, r25
    11fc:	80 93 8a 01 	sts	0x018A, r24
		PORT_DIR_SERVO |= (1 << index_servo);
    1200:	3a 9a       	sbi	0x07, 2	; 7
/************************************************************************/
Boolean DrvServo( void )
{
	for(Int8U index_servo = 0; index_servo < MAX_SERVOS ; index_servo++)
	{	
		MesServos[ index_servo ].pin = index_servo;
    1202:	23 e0       	ldi	r18, 0x03	; 3
    1204:	30 e0       	ldi	r19, 0x00	; 0
    1206:	30 93 8d 01 	sts	0x018D, r19
    120a:	20 93 8c 01 	sts	0x018C, r18
		MesServos[ index_servo ].ticks = ConvertPowerToTick( 0U );
    120e:	90 93 8f 01 	sts	0x018F, r25
    1212:	80 93 8e 01 	sts	0x018E, r24
		PORT_DIR_SERVO |= (1 << index_servo);
    1216:	3b 9a       	sbi	0x07, 3	; 7
	}
	
	//on init le timer 1 tick = 4us
	TCCR1A	= 0U;             
    1218:	10 92 80 00 	sts	0x0080, r1
    TCCR1B	|= PRESCALER_64 ; //64
    121c:	e1 e8       	ldi	r30, 0x81	; 129
    121e:	f0 e0       	ldi	r31, 0x00	; 0
    1220:	80 81       	ld	r24, Z
    1222:	83 60       	ori	r24, 0x03	; 3
    1224:	80 83       	st	Z, r24
    TIMSK1	|= _BV(OCIE1A) ;
    1226:	ef e6       	ldi	r30, 0x6F	; 111
    1228:	f0 e0       	ldi	r31, 0x00	; 0
    122a:	80 81       	ld	r24, Z
    122c:	82 60       	ori	r24, 0x02	; 2
    122e:	80 83       	st	Z, r24
    TCNT1	= 0U;  
    1230:	10 92 85 00 	sts	0x0085, r1
    1234:	10 92 84 00 	sts	0x0084, r1
	
	return TRUE;             
}
    1238:	81 e0       	ldi	r24, 0x01	; 1
    123a:	08 95       	ret

0000123c <DrvServoMoveToPosition>:

/************************************************************************/
/*Bouge le servo a la position voulu                                    */
/************************************************************************/
Boolean DrvServoMoveToPosition( Int8U index, Int16U power)
{
    123c:	cf 93       	push	r28
    123e:	df 93       	push	r29
	//consigne
	MesServos[ index ].ticks = ConvertPowerToTick(power);
    1240:	c8 2f       	mov	r28, r24
    1242:	d0 e0       	ldi	r29, 0x00	; 0
    1244:	80 e0       	ldi	r24, 0x00	; 0
    1246:	90 e0       	ldi	r25, 0x00	; 0
    1248:	0e 94 ff 26 	call	0x4dfe	; 0x4dfe <__floatunsisf>
  #endif
#endif

static inline float map(float x, float in_min, float in_max, float out_min, float out_max)
{
  return (x - in_min) * (out_max - out_min) / (in_max - in_min) + out_min;
    124c:	20 e0       	ldi	r18, 0x00	; 0
    124e:	30 e0       	ldi	r19, 0x00	; 0
    1250:	4a e7       	ldi	r20, 0x7A	; 122
    1252:	54 e4       	ldi	r21, 0x44	; 68
    1254:	0e 94 1a 28 	call	0x5034	; 0x5034 <__mulsf3>
    1258:	20 e0       	ldi	r18, 0x00	; 0
    125a:	30 e0       	ldi	r19, 0x00	; 0
    125c:	4a e7       	ldi	r20, 0x7A	; 122
    125e:	54 e4       	ldi	r21, 0x44	; 68
    1260:	0e 94 66 26 	call	0x4ccc	; 0x4ccc <__divsf3>
    1264:	20 e0       	ldi	r18, 0x00	; 0
    1266:	30 e0       	ldi	r19, 0x00	; 0
    1268:	4a e7       	ldi	r20, 0x7A	; 122
    126a:	54 e4       	ldi	r21, 0x44	; 68
    126c:	0e 94 99 25 	call	0x4b32	; 0x4b32 <__addsf3>
    1270:	20 e0       	ldi	r18, 0x00	; 0
    1272:	30 e0       	ldi	r19, 0x00	; 0
    1274:	40 e8       	ldi	r20, 0x80	; 128
    1276:	5e e3       	ldi	r21, 0x3E	; 62
    1278:	0e 94 1a 28 	call	0x5034	; 0x5034 <__mulsf3>
    127c:	0e 94 d3 26 	call	0x4da6	; 0x4da6 <__fixunssfsi>
    1280:	cc 0f       	add	r28, r28
    1282:	dd 1f       	adc	r29, r29
    1284:	cc 0f       	add	r28, r28
    1286:	dd 1f       	adc	r29, r29
    1288:	c0 58       	subi	r28, 0x80	; 128
    128a:	de 4f       	sbci	r29, 0xFE	; 254
    128c:	7b 83       	std	Y+3, r23	; 0x03
    128e:	6a 83       	std	Y+2, r22	; 0x02
	return TRUE;
}
    1290:	81 e0       	ldi	r24, 0x01	; 1
    1292:	df 91       	pop	r29
    1294:	cf 91       	pop	r28
    1296:	08 95       	ret

00001298 <__vector_11>:
///////////////////////////////////////////ISR FUNCTIONS//////////////////////////////////////////
/************************************************************************/
/*IT Timer 1 comparateur A : change pour chaque servo                   */
/************************************************************************/
SIGNAL (TIMER1_COMPA_vect) 
{ 
    1298:	1f 92       	push	r1
    129a:	0f 92       	push	r0
    129c:	0f b6       	in	r0, 0x3f	; 63
    129e:	0f 92       	push	r0
    12a0:	11 24       	eor	r1, r1
    12a2:	2f 93       	push	r18
    12a4:	3f 93       	push	r19
    12a6:	4f 93       	push	r20
    12a8:	8f 93       	push	r24
    12aa:	9f 93       	push	r25
    12ac:	ef 93       	push	r30
    12ae:	ff 93       	push	r31
	//on remet a jour le cpt timer pour les 20ms 
	if(pin_servo < 0)
    12b0:	80 91 01 01 	lds	r24, 0x0101
    12b4:	87 fd       	sbrc	r24, 7
    12b6:	6f c0       	rjmp	.+222    	; 0x1396 <__vector_11+0xfe>
		TCNT1 = 0U;
	}
	else
	{
		//on met la pin du servo au GND pour chaque servo
		if( pin_servo < MAX_SERVOS )
    12b8:	80 91 01 01 	lds	r24, 0x0101
    12bc:	84 30       	cpi	r24, 0x04	; 4
    12be:	c8 f0       	brcs	.+50     	; 0x12f2 <__vector_11+0x5a>
			PORT_SERVO &=~ ( 1U << MesServos[pin_servo].pin );
		}
	}
	
	//on change de servo
	pin_servo++;
    12c0:	80 91 01 01 	lds	r24, 0x0101
    12c4:	8f 5f       	subi	r24, 0xFF	; 255
    12c6:	80 93 01 01 	sts	0x0101, r24
	if(pin_servo < MAX_SERVOS)
    12ca:	80 91 01 01 	lds	r24, 0x0101
    12ce:	84 30       	cpi	r24, 0x04	; 4
    12d0:	98 f1       	brcs	.+102    	; 0x1338 <__vector_11+0xa0>
		PORT_SERVO |= ( 1<< MesServos[pin_servo].pin);
	}
	else
	{
		//on charge le temp avant la prochaine IT pour le rafraichissement
		if( pin_servo == MAX_SERVOS )
    12d2:	80 91 01 01 	lds	r24, 0x0101
    12d6:	84 30       	cpi	r24, 0x04	; 4
    12d8:	29 f1       	breq	.+74     	; 0x1324 <__vector_11+0x8c>
		{
			OCR1A =  5000U ; //20ms
			pin_servo = -1; 
		}
	}		
    12da:	ff 91       	pop	r31
    12dc:	ef 91       	pop	r30
    12de:	9f 91       	pop	r25
    12e0:	8f 91       	pop	r24
    12e2:	4f 91       	pop	r20
    12e4:	3f 91       	pop	r19
    12e6:	2f 91       	pop	r18
    12e8:	0f 90       	pop	r0
    12ea:	0f be       	out	0x3f, r0	; 63
    12ec:	0f 90       	pop	r0
    12ee:	1f 90       	pop	r1
    12f0:	18 95       	reti
	else
	{
		//on met la pin du servo au GND pour chaque servo
		if( pin_servo < MAX_SERVOS )
		{
			PORT_SERVO &=~ ( 1U << MesServos[pin_servo].pin );
    12f2:	48 b1       	in	r20, 0x08	; 8
    12f4:	e0 91 01 01 	lds	r30, 0x0101
    12f8:	ff 27       	eor	r31, r31
    12fa:	e7 fd       	sbrc	r30, 7
    12fc:	f0 95       	com	r31
    12fe:	ee 0f       	add	r30, r30
    1300:	ff 1f       	adc	r31, r31
    1302:	ee 0f       	add	r30, r30
    1304:	ff 1f       	adc	r31, r31
    1306:	e0 58       	subi	r30, 0x80	; 128
    1308:	fe 4f       	sbci	r31, 0xFE	; 254
    130a:	20 81       	ld	r18, Z
    130c:	31 81       	ldd	r19, Z+1	; 0x01
    130e:	81 e0       	ldi	r24, 0x01	; 1
    1310:	90 e0       	ldi	r25, 0x00	; 0
    1312:	02 c0       	rjmp	.+4      	; 0x1318 <__vector_11+0x80>
    1314:	88 0f       	add	r24, r24
    1316:	99 1f       	adc	r25, r25
    1318:	2a 95       	dec	r18
    131a:	e2 f7       	brpl	.-8      	; 0x1314 <__vector_11+0x7c>
    131c:	80 95       	com	r24
    131e:	84 23       	and	r24, r20
    1320:	88 b9       	out	0x08, r24	; 8
    1322:	ce cf       	rjmp	.-100    	; 0x12c0 <__vector_11+0x28>
	else
	{
		//on charge le temp avant la prochaine IT pour le rafraichissement
		if( pin_servo == MAX_SERVOS )
		{
			OCR1A =  5000U ; //20ms
    1324:	88 e8       	ldi	r24, 0x88	; 136
    1326:	93 e1       	ldi	r25, 0x13	; 19
    1328:	90 93 89 00 	sts	0x0089, r25
    132c:	80 93 88 00 	sts	0x0088, r24
			pin_servo = -1; 
    1330:	8f ef       	ldi	r24, 0xFF	; 255
    1332:	80 93 01 01 	sts	0x0101, r24
    1336:	d1 cf       	rjmp	.-94     	; 0x12da <__vector_11+0x42>
	//on change de servo
	pin_servo++;
	if(pin_servo < MAX_SERVOS)
	{
		//on charge le temp avant la prochaine IT pour le prochain servo
		OCR1A = TCNT1 + MesServos[pin_servo].ticks ;
    1338:	20 91 84 00 	lds	r18, 0x0084
    133c:	30 91 85 00 	lds	r19, 0x0085
    1340:	e0 91 01 01 	lds	r30, 0x0101
    1344:	ff 27       	eor	r31, r31
    1346:	e7 fd       	sbrc	r30, 7
    1348:	f0 95       	com	r31
    134a:	ee 0f       	add	r30, r30
    134c:	ff 1f       	adc	r31, r31
    134e:	ee 0f       	add	r30, r30
    1350:	ff 1f       	adc	r31, r31
    1352:	e0 58       	subi	r30, 0x80	; 128
    1354:	fe 4f       	sbci	r31, 0xFE	; 254
    1356:	82 81       	ldd	r24, Z+2	; 0x02
    1358:	93 81       	ldd	r25, Z+3	; 0x03
    135a:	82 0f       	add	r24, r18
    135c:	93 1f       	adc	r25, r19
    135e:	90 93 89 00 	sts	0x0089, r25
    1362:	80 93 88 00 	sts	0x0088, r24
		//on met la pin du servo au VCC pour chaque servo
		PORT_SERVO |= ( 1<< MesServos[pin_servo].pin);
    1366:	48 b1       	in	r20, 0x08	; 8
    1368:	e0 91 01 01 	lds	r30, 0x0101
    136c:	ff 27       	eor	r31, r31
    136e:	e7 fd       	sbrc	r30, 7
    1370:	f0 95       	com	r31
    1372:	ee 0f       	add	r30, r30
    1374:	ff 1f       	adc	r31, r31
    1376:	ee 0f       	add	r30, r30
    1378:	ff 1f       	adc	r31, r31
    137a:	e0 58       	subi	r30, 0x80	; 128
    137c:	fe 4f       	sbci	r31, 0xFE	; 254
    137e:	20 81       	ld	r18, Z
    1380:	31 81       	ldd	r19, Z+1	; 0x01
    1382:	81 e0       	ldi	r24, 0x01	; 1
    1384:	90 e0       	ldi	r25, 0x00	; 0
    1386:	02 c0       	rjmp	.+4      	; 0x138c <__vector_11+0xf4>
    1388:	88 0f       	add	r24, r24
    138a:	99 1f       	adc	r25, r25
    138c:	2a 95       	dec	r18
    138e:	e2 f7       	brpl	.-8      	; 0x1388 <__vector_11+0xf0>
    1390:	48 2b       	or	r20, r24
    1392:	48 b9       	out	0x08, r20	; 8
    1394:	a2 cf       	rjmp	.-188    	; 0x12da <__vector_11+0x42>
SIGNAL (TIMER1_COMPA_vect) 
{ 
	//on remet a jour le cpt timer pour les 20ms 
	if(pin_servo < 0)
	{
		TCNT1 = 0U;
    1396:	10 92 85 00 	sts	0x0085, r1
    139a:	10 92 84 00 	sts	0x0084, r1
    139e:	90 cf       	rjmp	.-224    	; 0x12c0 <__vector_11+0x28>

000013a0 <DrvTickInit>:

///////////////////////////////////////////PUBLIC FUNCTIONS////////////////////////////////////////
//on init le driver
void DrvTickInit(void)
{	
	drv_timer_tick_counter = 0U;
    13a0:	10 92 90 01 	sts	0x0190, r1
    13a4:	10 92 91 01 	sts	0x0191, r1
    13a8:	10 92 92 01 	sts	0x0192, r1
    13ac:	10 92 93 01 	sts	0x0193, r1
	TCCR0A	= 0;             
    13b0:	14 bc       	out	0x24, r1	; 36
    TCCR0B	|= _BV(CS01);     
    13b2:	85 b5       	in	r24, 0x25	; 37
    13b4:	82 60       	ori	r24, 0x02	; 2
    13b6:	85 bd       	out	0x25, r24	; 37
    TCNT0	= 0;            
    13b8:	16 bc       	out	0x26, r1	; 38
    TIFR0	|= _BV(OCF0A);     
    13ba:	a9 9a       	sbi	0x15, 1	; 21
    TIMSK0	|= _BV(TOIE0) ;
    13bc:	ee e6       	ldi	r30, 0x6E	; 110
    13be:	f0 e0       	ldi	r31, 0x00	; 0
    13c0:	80 81       	ld	r24, Z
    13c2:	81 60       	ori	r24, 0x01	; 1
    13c4:	80 83       	st	Z, r24
}
    13c6:	08 95       	ret

000013c8 <DrvTimerGetTime>:

	

//get the tick counter
Int32U DrvTimerGetTime(void)
{
    13c8:	df 92       	push	r13
    13ca:	ef 92       	push	r14
    13cc:	ff 92       	push	r15
    13ce:	0f 93       	push	r16
    13d0:	1f 93       	push	r17
	Int32U loc_var = 0U;
	cli();
    13d2:	f8 94       	cli
	loc_var = (Int32U)((drv_timer_tick_counter * TIMER0_OVF) + (TCNT0 * TIMER0_TICK));
    13d4:	60 91 90 01 	lds	r22, 0x0190
    13d8:	70 91 91 01 	lds	r23, 0x0191
    13dc:	80 91 92 01 	lds	r24, 0x0192
    13e0:	90 91 93 01 	lds	r25, 0x0193
    13e4:	d6 b4       	in	r13, 0x26	; 38
	sei();
    13e6:	78 94       	sei
//get the tick counter
Int32U DrvTimerGetTime(void)
{
	Int32U loc_var = 0U;
	cli();
	loc_var = (Int32U)((drv_timer_tick_counter * TIMER0_OVF) + (TCNT0 * TIMER0_TICK));
    13e8:	66 0f       	add	r22, r22
    13ea:	77 1f       	adc	r23, r23
    13ec:	88 1f       	adc	r24, r24
    13ee:	99 1f       	adc	r25, r25
    13f0:	66 0f       	add	r22, r22
    13f2:	77 1f       	adc	r23, r23
    13f4:	88 1f       	adc	r24, r24
    13f6:	99 1f       	adc	r25, r25
    13f8:	66 0f       	add	r22, r22
    13fa:	77 1f       	adc	r23, r23
    13fc:	88 1f       	adc	r24, r24
    13fe:	99 1f       	adc	r25, r25
    1400:	66 0f       	add	r22, r22
    1402:	77 1f       	adc	r23, r23
    1404:	88 1f       	adc	r24, r24
    1406:	99 1f       	adc	r25, r25
    1408:	66 0f       	add	r22, r22
    140a:	77 1f       	adc	r23, r23
    140c:	88 1f       	adc	r24, r24
    140e:	99 1f       	adc	r25, r25
    1410:	66 0f       	add	r22, r22
    1412:	77 1f       	adc	r23, r23
    1414:	88 1f       	adc	r24, r24
    1416:	99 1f       	adc	r25, r25
    1418:	66 0f       	add	r22, r22
    141a:	77 1f       	adc	r23, r23
    141c:	88 1f       	adc	r24, r24
    141e:	99 1f       	adc	r25, r25
    1420:	0e 94 ff 26 	call	0x4dfe	; 0x4dfe <__floatunsisf>
    1424:	7b 01       	movw	r14, r22
    1426:	8c 01       	movw	r16, r24
    1428:	6d 2d       	mov	r22, r13
    142a:	70 e0       	ldi	r23, 0x00	; 0
    142c:	88 27       	eor	r24, r24
    142e:	77 fd       	sbrc	r23, 7
    1430:	80 95       	com	r24
    1432:	98 2f       	mov	r25, r24
    1434:	0e 94 01 27 	call	0x4e02	; 0x4e02 <__floatsisf>
    1438:	20 e0       	ldi	r18, 0x00	; 0
    143a:	30 e0       	ldi	r19, 0x00	; 0
    143c:	40 e0       	ldi	r20, 0x00	; 0
    143e:	5f e3       	ldi	r21, 0x3F	; 63
    1440:	0e 94 1a 28 	call	0x5034	; 0x5034 <__mulsf3>
    1444:	9b 01       	movw	r18, r22
    1446:	ac 01       	movw	r20, r24
    1448:	c8 01       	movw	r24, r16
    144a:	b7 01       	movw	r22, r14
    144c:	0e 94 99 25 	call	0x4b32	; 0x4b32 <__addsf3>
    1450:	0e 94 d3 26 	call	0x4da6	; 0x4da6 <__fixunssfsi>
	sei();
	return loc_var;
}
    1454:	1f 91       	pop	r17
    1456:	0f 91       	pop	r16
    1458:	ff 90       	pop	r15
    145a:	ef 90       	pop	r14
    145c:	df 90       	pop	r13
    145e:	08 95       	ret

00001460 <DrvTimerDelayMs>:

void DrvTimerDelayMs( Int16U delay_ms )
{
    1460:	4f 92       	push	r4
    1462:	5f 92       	push	r5
    1464:	6f 92       	push	r6
    1466:	7f 92       	push	r7
    1468:	9f 92       	push	r9
    146a:	af 92       	push	r10
    146c:	bf 92       	push	r11
    146e:	cf 92       	push	r12
    1470:	df 92       	push	r13
    1472:	ef 92       	push	r14
    1474:	ff 92       	push	r15
    1476:	0f 93       	push	r16
    1478:	1f 93       	push	r17
    147a:	5c 01       	movw	r10, r24

//get the tick counter
Int32U DrvTimerGetTime(void)
{
	Int32U loc_var = 0U;
	cli();
    147c:	f8 94       	cli
	loc_var = (Int32U)((drv_timer_tick_counter * TIMER0_OVF) + (TCNT0 * TIMER0_TICK));
    147e:	60 91 90 01 	lds	r22, 0x0190
    1482:	70 91 91 01 	lds	r23, 0x0191
    1486:	80 91 92 01 	lds	r24, 0x0192
    148a:	90 91 93 01 	lds	r25, 0x0193
    148e:	96 b4       	in	r9, 0x26	; 38
    1490:	66 0f       	add	r22, r22
    1492:	77 1f       	adc	r23, r23
    1494:	88 1f       	adc	r24, r24
    1496:	99 1f       	adc	r25, r25
    1498:	66 0f       	add	r22, r22
    149a:	77 1f       	adc	r23, r23
    149c:	88 1f       	adc	r24, r24
    149e:	99 1f       	adc	r25, r25
    14a0:	66 0f       	add	r22, r22
    14a2:	77 1f       	adc	r23, r23
    14a4:	88 1f       	adc	r24, r24
    14a6:	99 1f       	adc	r25, r25
    14a8:	66 0f       	add	r22, r22
    14aa:	77 1f       	adc	r23, r23
    14ac:	88 1f       	adc	r24, r24
    14ae:	99 1f       	adc	r25, r25
    14b0:	66 0f       	add	r22, r22
    14b2:	77 1f       	adc	r23, r23
    14b4:	88 1f       	adc	r24, r24
    14b6:	99 1f       	adc	r25, r25
    14b8:	66 0f       	add	r22, r22
    14ba:	77 1f       	adc	r23, r23
    14bc:	88 1f       	adc	r24, r24
    14be:	99 1f       	adc	r25, r25
    14c0:	66 0f       	add	r22, r22
    14c2:	77 1f       	adc	r23, r23
    14c4:	88 1f       	adc	r24, r24
    14c6:	99 1f       	adc	r25, r25
    14c8:	0e 94 ff 26 	call	0x4dfe	; 0x4dfe <__floatunsisf>
    14cc:	7b 01       	movw	r14, r22
    14ce:	8c 01       	movw	r16, r24
    14d0:	69 2d       	mov	r22, r9
    14d2:	70 e0       	ldi	r23, 0x00	; 0
    14d4:	88 27       	eor	r24, r24
    14d6:	77 fd       	sbrc	r23, 7
    14d8:	80 95       	com	r24
    14da:	98 2f       	mov	r25, r24
    14dc:	0e 94 01 27 	call	0x4e02	; 0x4e02 <__floatsisf>
    14e0:	20 e0       	ldi	r18, 0x00	; 0
    14e2:	30 e0       	ldi	r19, 0x00	; 0
    14e4:	40 e0       	ldi	r20, 0x00	; 0
    14e6:	5f e3       	ldi	r21, 0x3F	; 63
    14e8:	0e 94 1a 28 	call	0x5034	; 0x5034 <__mulsf3>
    14ec:	9b 01       	movw	r18, r22
    14ee:	ac 01       	movw	r20, r24
    14f0:	c8 01       	movw	r24, r16
    14f2:	b7 01       	movw	r22, r14
    14f4:	0e 94 99 25 	call	0x4b32	; 0x4b32 <__addsf3>
    14f8:	0e 94 d3 26 	call	0x4da6	; 0x4da6 <__fixunssfsi>
    14fc:	9b 01       	movw	r18, r22
    14fe:	ac 01       	movw	r20, r24
	sei();
    1500:	78 94       	sei
	return loc_var;
}

void DrvTimerDelayMs( Int16U delay_ms )
{
	drv_timer_start_delay = DrvTimerGetTime() ;
    1502:	20 93 94 01 	sts	0x0194, r18
    1506:	30 93 95 01 	sts	0x0195, r19
    150a:	40 93 96 01 	sts	0x0196, r20
    150e:	50 93 97 01 	sts	0x0197, r21
    1512:	88 ee       	ldi	r24, 0xE8	; 232
    1514:	93 e0       	ldi	r25, 0x03	; 3
    1516:	a8 9e       	mul	r10, r24
    1518:	20 01       	movw	r4, r0
    151a:	a9 9e       	mul	r10, r25
    151c:	50 0c       	add	r5, r0
    151e:	b8 9e       	mul	r11, r24
    1520:	50 0c       	add	r5, r0
    1522:	11 24       	eor	r1, r1
    1524:	66 24       	eor	r6, r6
    1526:	77 24       	eor	r7, r7

//get the tick counter
Int32U DrvTimerGetTime(void)
{
	Int32U loc_var = 0U;
	cli();
    1528:	f8 94       	cli
	loc_var = (Int32U)((drv_timer_tick_counter * TIMER0_OVF) + (TCNT0 * TIMER0_TICK));
    152a:	60 91 90 01 	lds	r22, 0x0190
    152e:	70 91 91 01 	lds	r23, 0x0191
    1532:	80 91 92 01 	lds	r24, 0x0192
    1536:	90 91 93 01 	lds	r25, 0x0193
    153a:	96 b4       	in	r9, 0x26	; 38
	sei();
    153c:	78 94       	sei
}

void DrvTimerDelayMs( Int16U delay_ms )
{
	drv_timer_start_delay = DrvTimerGetTime() ;
	while (DrvTimerGetTime() < (Int32U)(drv_timer_start_delay + (Int32U)(delay_ms * 1000)) );
    153e:	e0 90 94 01 	lds	r14, 0x0194
    1542:	f0 90 95 01 	lds	r15, 0x0195
    1546:	00 91 96 01 	lds	r16, 0x0196
    154a:	10 91 97 01 	lds	r17, 0x0197
    154e:	e4 0c       	add	r14, r4
    1550:	f5 1c       	adc	r15, r5
    1552:	06 1d       	adc	r16, r6
    1554:	17 1d       	adc	r17, r7
//get the tick counter
Int32U DrvTimerGetTime(void)
{
	Int32U loc_var = 0U;
	cli();
	loc_var = (Int32U)((drv_timer_tick_counter * TIMER0_OVF) + (TCNT0 * TIMER0_TICK));
    1556:	66 0f       	add	r22, r22
    1558:	77 1f       	adc	r23, r23
    155a:	88 1f       	adc	r24, r24
    155c:	99 1f       	adc	r25, r25
    155e:	66 0f       	add	r22, r22
    1560:	77 1f       	adc	r23, r23
    1562:	88 1f       	adc	r24, r24
    1564:	99 1f       	adc	r25, r25
    1566:	66 0f       	add	r22, r22
    1568:	77 1f       	adc	r23, r23
    156a:	88 1f       	adc	r24, r24
    156c:	99 1f       	adc	r25, r25
    156e:	66 0f       	add	r22, r22
    1570:	77 1f       	adc	r23, r23
    1572:	88 1f       	adc	r24, r24
    1574:	99 1f       	adc	r25, r25
    1576:	66 0f       	add	r22, r22
    1578:	77 1f       	adc	r23, r23
    157a:	88 1f       	adc	r24, r24
    157c:	99 1f       	adc	r25, r25
    157e:	66 0f       	add	r22, r22
    1580:	77 1f       	adc	r23, r23
    1582:	88 1f       	adc	r24, r24
    1584:	99 1f       	adc	r25, r25
    1586:	66 0f       	add	r22, r22
    1588:	77 1f       	adc	r23, r23
    158a:	88 1f       	adc	r24, r24
    158c:	99 1f       	adc	r25, r25
    158e:	0e 94 ff 26 	call	0x4dfe	; 0x4dfe <__floatunsisf>
    1592:	5b 01       	movw	r10, r22
    1594:	6c 01       	movw	r12, r24
    1596:	69 2d       	mov	r22, r9
    1598:	70 e0       	ldi	r23, 0x00	; 0
    159a:	88 27       	eor	r24, r24
    159c:	77 fd       	sbrc	r23, 7
    159e:	80 95       	com	r24
    15a0:	98 2f       	mov	r25, r24
    15a2:	0e 94 01 27 	call	0x4e02	; 0x4e02 <__floatsisf>
    15a6:	20 e0       	ldi	r18, 0x00	; 0
    15a8:	30 e0       	ldi	r19, 0x00	; 0
    15aa:	40 e0       	ldi	r20, 0x00	; 0
    15ac:	5f e3       	ldi	r21, 0x3F	; 63
    15ae:	0e 94 1a 28 	call	0x5034	; 0x5034 <__mulsf3>
    15b2:	9b 01       	movw	r18, r22
    15b4:	ac 01       	movw	r20, r24
    15b6:	c6 01       	movw	r24, r12
    15b8:	b5 01       	movw	r22, r10
    15ba:	0e 94 99 25 	call	0x4b32	; 0x4b32 <__addsf3>
    15be:	0e 94 d3 26 	call	0x4da6	; 0x4da6 <__fixunssfsi>
}

void DrvTimerDelayMs( Int16U delay_ms )
{
	drv_timer_start_delay = DrvTimerGetTime() ;
	while (DrvTimerGetTime() < (Int32U)(drv_timer_start_delay + (Int32U)(delay_ms * 1000)) );
    15c2:	6e 15       	cp	r22, r14
    15c4:	7f 05       	cpc	r23, r15
    15c6:	80 07       	cpc	r24, r16
    15c8:	91 07       	cpc	r25, r17
    15ca:	08 f4       	brcc	.+2      	; 0x15ce <DrvTimerDelayMs+0x16e>
    15cc:	ad cf       	rjmp	.-166    	; 0x1528 <DrvTimerDelayMs+0xc8>
}
    15ce:	1f 91       	pop	r17
    15d0:	0f 91       	pop	r16
    15d2:	ff 90       	pop	r15
    15d4:	ef 90       	pop	r14
    15d6:	df 90       	pop	r13
    15d8:	cf 90       	pop	r12
    15da:	bf 90       	pop	r11
    15dc:	af 90       	pop	r10
    15de:	9f 90       	pop	r9
    15e0:	7f 90       	pop	r7
    15e2:	6f 90       	pop	r6
    15e4:	5f 90       	pop	r5
    15e6:	4f 90       	pop	r4
    15e8:	08 95       	ret

000015ea <DrvTimerDelayUs>:

void DrvTimerDelayUs( Int16U delay_us )
{
    15ea:	4f 92       	push	r4
    15ec:	5f 92       	push	r5
    15ee:	6f 92       	push	r6
    15f0:	7f 92       	push	r7
    15f2:	9f 92       	push	r9
    15f4:	af 92       	push	r10
    15f6:	bf 92       	push	r11
    15f8:	cf 92       	push	r12
    15fa:	df 92       	push	r13
    15fc:	ef 92       	push	r14
    15fe:	ff 92       	push	r15
    1600:	0f 93       	push	r16
    1602:	1f 93       	push	r17
    1604:	2c 01       	movw	r4, r24

//get the tick counter
Int32U DrvTimerGetTime(void)
{
	Int32U loc_var = 0U;
	cli();
    1606:	f8 94       	cli
	loc_var = (Int32U)((drv_timer_tick_counter * TIMER0_OVF) + (TCNT0 * TIMER0_TICK));
    1608:	60 91 90 01 	lds	r22, 0x0190
    160c:	70 91 91 01 	lds	r23, 0x0191
    1610:	80 91 92 01 	lds	r24, 0x0192
    1614:	90 91 93 01 	lds	r25, 0x0193
    1618:	a6 b4       	in	r10, 0x26	; 38
    161a:	66 0f       	add	r22, r22
    161c:	77 1f       	adc	r23, r23
    161e:	88 1f       	adc	r24, r24
    1620:	99 1f       	adc	r25, r25
    1622:	66 0f       	add	r22, r22
    1624:	77 1f       	adc	r23, r23
    1626:	88 1f       	adc	r24, r24
    1628:	99 1f       	adc	r25, r25
    162a:	66 0f       	add	r22, r22
    162c:	77 1f       	adc	r23, r23
    162e:	88 1f       	adc	r24, r24
    1630:	99 1f       	adc	r25, r25
    1632:	66 0f       	add	r22, r22
    1634:	77 1f       	adc	r23, r23
    1636:	88 1f       	adc	r24, r24
    1638:	99 1f       	adc	r25, r25
    163a:	66 0f       	add	r22, r22
    163c:	77 1f       	adc	r23, r23
    163e:	88 1f       	adc	r24, r24
    1640:	99 1f       	adc	r25, r25
    1642:	66 0f       	add	r22, r22
    1644:	77 1f       	adc	r23, r23
    1646:	88 1f       	adc	r24, r24
    1648:	99 1f       	adc	r25, r25
    164a:	66 0f       	add	r22, r22
    164c:	77 1f       	adc	r23, r23
    164e:	88 1f       	adc	r24, r24
    1650:	99 1f       	adc	r25, r25
    1652:	0e 94 ff 26 	call	0x4dfe	; 0x4dfe <__floatunsisf>
    1656:	7b 01       	movw	r14, r22
    1658:	8c 01       	movw	r16, r24
    165a:	6a 2d       	mov	r22, r10
    165c:	70 e0       	ldi	r23, 0x00	; 0
    165e:	88 27       	eor	r24, r24
    1660:	77 fd       	sbrc	r23, 7
    1662:	80 95       	com	r24
    1664:	98 2f       	mov	r25, r24
    1666:	0e 94 01 27 	call	0x4e02	; 0x4e02 <__floatsisf>
    166a:	20 e0       	ldi	r18, 0x00	; 0
    166c:	30 e0       	ldi	r19, 0x00	; 0
    166e:	40 e0       	ldi	r20, 0x00	; 0
    1670:	5f e3       	ldi	r21, 0x3F	; 63
    1672:	0e 94 1a 28 	call	0x5034	; 0x5034 <__mulsf3>
    1676:	9b 01       	movw	r18, r22
    1678:	ac 01       	movw	r20, r24
    167a:	c8 01       	movw	r24, r16
    167c:	b7 01       	movw	r22, r14
    167e:	0e 94 99 25 	call	0x4b32	; 0x4b32 <__addsf3>
    1682:	0e 94 d3 26 	call	0x4da6	; 0x4da6 <__fixunssfsi>
    1686:	9b 01       	movw	r18, r22
    1688:	ac 01       	movw	r20, r24
	sei();
    168a:	78 94       	sei
	while (DrvTimerGetTime() < (Int32U)(drv_timer_start_delay + (Int32U)(delay_ms * 1000)) );
}

void DrvTimerDelayUs( Int16U delay_us )
{
	drv_timer_start_delay = DrvTimerGetTime() ;
    168c:	20 93 94 01 	sts	0x0194, r18
    1690:	30 93 95 01 	sts	0x0195, r19
    1694:	40 93 96 01 	sts	0x0196, r20
    1698:	50 93 97 01 	sts	0x0197, r21
    169c:	66 24       	eor	r6, r6
    169e:	77 24       	eor	r7, r7

//get the tick counter
Int32U DrvTimerGetTime(void)
{
	Int32U loc_var = 0U;
	cli();
    16a0:	f8 94       	cli
	loc_var = (Int32U)((drv_timer_tick_counter * TIMER0_OVF) + (TCNT0 * TIMER0_TICK));
    16a2:	60 91 90 01 	lds	r22, 0x0190
    16a6:	70 91 91 01 	lds	r23, 0x0191
    16aa:	80 91 92 01 	lds	r24, 0x0192
    16ae:	90 91 93 01 	lds	r25, 0x0193
    16b2:	96 b4       	in	r9, 0x26	; 38
	sei();
    16b4:	78 94       	sei
}

void DrvTimerDelayUs( Int16U delay_us )
{
	drv_timer_start_delay = DrvTimerGetTime() ;
	while (DrvTimerGetTime() < (Int32U)(drv_timer_start_delay + delay_us) );
    16b6:	e0 90 94 01 	lds	r14, 0x0194
    16ba:	f0 90 95 01 	lds	r15, 0x0195
    16be:	00 91 96 01 	lds	r16, 0x0196
    16c2:	10 91 97 01 	lds	r17, 0x0197
    16c6:	e4 0c       	add	r14, r4
    16c8:	f5 1c       	adc	r15, r5
    16ca:	06 1d       	adc	r16, r6
    16cc:	17 1d       	adc	r17, r7
//get the tick counter
Int32U DrvTimerGetTime(void)
{
	Int32U loc_var = 0U;
	cli();
	loc_var = (Int32U)((drv_timer_tick_counter * TIMER0_OVF) + (TCNT0 * TIMER0_TICK));
    16ce:	66 0f       	add	r22, r22
    16d0:	77 1f       	adc	r23, r23
    16d2:	88 1f       	adc	r24, r24
    16d4:	99 1f       	adc	r25, r25
    16d6:	66 0f       	add	r22, r22
    16d8:	77 1f       	adc	r23, r23
    16da:	88 1f       	adc	r24, r24
    16dc:	99 1f       	adc	r25, r25
    16de:	66 0f       	add	r22, r22
    16e0:	77 1f       	adc	r23, r23
    16e2:	88 1f       	adc	r24, r24
    16e4:	99 1f       	adc	r25, r25
    16e6:	66 0f       	add	r22, r22
    16e8:	77 1f       	adc	r23, r23
    16ea:	88 1f       	adc	r24, r24
    16ec:	99 1f       	adc	r25, r25
    16ee:	66 0f       	add	r22, r22
    16f0:	77 1f       	adc	r23, r23
    16f2:	88 1f       	adc	r24, r24
    16f4:	99 1f       	adc	r25, r25
    16f6:	66 0f       	add	r22, r22
    16f8:	77 1f       	adc	r23, r23
    16fa:	88 1f       	adc	r24, r24
    16fc:	99 1f       	adc	r25, r25
    16fe:	66 0f       	add	r22, r22
    1700:	77 1f       	adc	r23, r23
    1702:	88 1f       	adc	r24, r24
    1704:	99 1f       	adc	r25, r25
    1706:	0e 94 ff 26 	call	0x4dfe	; 0x4dfe <__floatunsisf>
    170a:	5b 01       	movw	r10, r22
    170c:	6c 01       	movw	r12, r24
    170e:	69 2d       	mov	r22, r9
    1710:	70 e0       	ldi	r23, 0x00	; 0
    1712:	88 27       	eor	r24, r24
    1714:	77 fd       	sbrc	r23, 7
    1716:	80 95       	com	r24
    1718:	98 2f       	mov	r25, r24
    171a:	0e 94 01 27 	call	0x4e02	; 0x4e02 <__floatsisf>
    171e:	20 e0       	ldi	r18, 0x00	; 0
    1720:	30 e0       	ldi	r19, 0x00	; 0
    1722:	40 e0       	ldi	r20, 0x00	; 0
    1724:	5f e3       	ldi	r21, 0x3F	; 63
    1726:	0e 94 1a 28 	call	0x5034	; 0x5034 <__mulsf3>
    172a:	9b 01       	movw	r18, r22
    172c:	ac 01       	movw	r20, r24
    172e:	c6 01       	movw	r24, r12
    1730:	b5 01       	movw	r22, r10
    1732:	0e 94 99 25 	call	0x4b32	; 0x4b32 <__addsf3>
    1736:	0e 94 d3 26 	call	0x4da6	; 0x4da6 <__fixunssfsi>
}

void DrvTimerDelayUs( Int16U delay_us )
{
	drv_timer_start_delay = DrvTimerGetTime() ;
	while (DrvTimerGetTime() < (Int32U)(drv_timer_start_delay + delay_us) );
    173a:	6e 15       	cp	r22, r14
    173c:	7f 05       	cpc	r23, r15
    173e:	80 07       	cpc	r24, r16
    1740:	91 07       	cpc	r25, r17
    1742:	08 f4       	brcc	.+2      	; 0x1746 <DrvTimerDelayUs+0x15c>
    1744:	ad cf       	rjmp	.-166    	; 0x16a0 <DrvTimerDelayUs+0xb6>
}
    1746:	1f 91       	pop	r17
    1748:	0f 91       	pop	r16
    174a:	ff 90       	pop	r15
    174c:	ef 90       	pop	r14
    174e:	df 90       	pop	r13
    1750:	cf 90       	pop	r12
    1752:	bf 90       	pop	r11
    1754:	af 90       	pop	r10
    1756:	9f 90       	pop	r9
    1758:	7f 90       	pop	r7
    175a:	6f 90       	pop	r6
    175c:	5f 90       	pop	r5
    175e:	4f 90       	pop	r4
    1760:	08 95       	ret

00001762 <__vector_16>:


///////////////////////////////////////////ISR FUNCTIONS//////////////////////////////////////////
//ISR timer system 128us
ISR(TIMER0_OVF_vect)
{
    1762:	1f 92       	push	r1
    1764:	0f 92       	push	r0
    1766:	0f b6       	in	r0, 0x3f	; 63
    1768:	0f 92       	push	r0
    176a:	11 24       	eor	r1, r1
    176c:	8f 93       	push	r24
    176e:	9f 93       	push	r25
    1770:	af 93       	push	r26
    1772:	bf 93       	push	r27
	drv_timer_tick_counter += 1 ;
    1774:	80 91 90 01 	lds	r24, 0x0190
    1778:	90 91 91 01 	lds	r25, 0x0191
    177c:	a0 91 92 01 	lds	r26, 0x0192
    1780:	b0 91 93 01 	lds	r27, 0x0193
    1784:	01 96       	adiw	r24, 0x01	; 1
    1786:	a1 1d       	adc	r26, r1
    1788:	b1 1d       	adc	r27, r1
    178a:	80 93 90 01 	sts	0x0190, r24
    178e:	90 93 91 01 	sts	0x0191, r25
    1792:	a0 93 92 01 	sts	0x0192, r26
    1796:	b0 93 93 01 	sts	0x0193, r27
}	
    179a:	bf 91       	pop	r27
    179c:	af 91       	pop	r26
    179e:	9f 91       	pop	r25
    17a0:	8f 91       	pop	r24
    17a2:	0f 90       	pop	r0
    17a4:	0f be       	out	0x3f, r0	; 63
    17a6:	0f 90       	pop	r0
    17a8:	1f 90       	pop	r1
    17aa:	18 95       	reti

000017ac <DrvTwiInit>:

void WaitTransmissionI2C(void);

void DrvTwiInit(void) 
{
  TWSR = 0;                                    // no prescaler => prescaler = 1
    17ac:	10 92 b9 00 	sts	0x00B9, r1
  TWBR = ((CONF_FOSC_HZ / 400000) - 16) / 2;   // change the I2C clock rate
    17b0:	8c e0       	ldi	r24, 0x0C	; 12
    17b2:	80 93 b8 00 	sts	0x00B8, r24
  TWCR = 1<<TWEN;                              // enable twi module, no interrupt
    17b6:	84 e0       	ldi	r24, 0x04	; 4
    17b8:	80 93 bc 00 	sts	0x00BC, r24
}
    17bc:	08 95       	ret

000017be <DrvTwiRepStart>:

void DrvTwiRepStart(uint8_t address) 
{
  TWCR = (1<<TWINT) | (1<<TWSTA) | (1<<TWEN) ; // send REPEAT START condition
    17be:	94 ea       	ldi	r25, 0xA4	; 164
    17c0:	90 93 bc 00 	sts	0x00BC, r25
    17c4:	2f ef       	ldi	r18, 0xFF	; 255
    17c6:	30 e0       	ldi	r19, 0x00	; 0
    17c8:	03 c0       	rjmp	.+6      	; 0x17d0 <DrvTwiRepStart+0x12>
    17ca:	21 50       	subi	r18, 0x01	; 1
    17cc:	30 40       	sbci	r19, 0x00	; 0
void WaitTransmissionI2C() 
{
  uint16_t count = 255;
  while (!(TWCR & (1<<TWINT))) {
    count--;
    if (count==0) {              //we are in a blocking state => we don't insist
    17ce:	99 f0       	breq	.+38     	; 0x17f6 <DrvTwiRepStart+0x38>
}

void WaitTransmissionI2C() 
{
  uint16_t count = 255;
  while (!(TWCR & (1<<TWINT))) {
    17d0:	90 91 bc 00 	lds	r25, 0x00BC
    17d4:	97 ff       	sbrs	r25, 7
    17d6:	f9 cf       	rjmp	.-14     	; 0x17ca <DrvTwiRepStart+0xc>

void DrvTwiRepStart(uint8_t address) 
{
  TWCR = (1<<TWINT) | (1<<TWSTA) | (1<<TWEN) ; // send REPEAT START condition
  WaitTransmissionI2C();                       // wait until transmission completed
  TWDR = address;                              // send device address
    17d8:	80 93 bb 00 	sts	0x00BB, r24
  TWCR = (1<<TWINT) | (1<<TWEN);
    17dc:	84 e8       	ldi	r24, 0x84	; 132
    17de:	80 93 bc 00 	sts	0x00BC, r24
    17e2:	8f ef       	ldi	r24, 0xFF	; 255
    17e4:	90 e0       	ldi	r25, 0x00	; 0
    17e6:	02 c0       	rjmp	.+4      	; 0x17ec <DrvTwiRepStart+0x2e>
    17e8:	01 97       	sbiw	r24, 0x01	; 1
void WaitTransmissionI2C() 
{
  uint16_t count = 255;
  while (!(TWCR & (1<<TWINT))) {
    count--;
    if (count==0) {              //we are in a blocking state => we don't insist
    17ea:	41 f0       	breq	.+16     	; 0x17fc <DrvTwiRepStart+0x3e>
}

void WaitTransmissionI2C() 
{
  uint16_t count = 255;
  while (!(TWCR & (1<<TWINT))) {
    17ec:	20 91 bc 00 	lds	r18, 0x00BC
    17f0:	27 ff       	sbrs	r18, 7
    17f2:	fa cf       	rjmp	.-12     	; 0x17e8 <DrvTwiRepStart+0x2a>
    17f4:	08 95       	ret
    count--;
    if (count==0) {              //we are in a blocking state => we don't insist
      TWCR = 0;                  //and we force a reset on TWINT register
    17f6:	10 92 bc 00 	sts	0x00BC, r1
    17fa:	ee cf       	rjmp	.-36     	; 0x17d8 <DrvTwiRepStart+0x1a>
    17fc:	10 92 bc 00 	sts	0x00BC, r1
    1800:	08 95       	ret

00001802 <DrvTwiStop>:
  WaitTransmissionI2C();                       // wail until transmission completed
}

void DrvTwiStop(void) 
{
  TWCR = (1 << TWINT) | (1 << TWEN) | (1 << TWSTO);
    1802:	84 e9       	ldi	r24, 0x94	; 148
    1804:	80 93 bc 00 	sts	0x00BC, r24
  //  while(TWCR & (1<<TWSTO));                // <- can produce a blocking state with some WMP clones
}
    1808:	08 95       	ret

0000180a <DrvTwiWrite>:

void DrvTwiWrite(uint8_t data ) 
{	
  TWDR = data;                                 // send data to the previously addressed device
    180a:	80 93 bb 00 	sts	0x00BB, r24
  TWCR = (1<<TWINT) | (1<<TWEN);
    180e:	84 e8       	ldi	r24, 0x84	; 132
    1810:	80 93 bc 00 	sts	0x00BC, r24
    1814:	8f ef       	ldi	r24, 0xFF	; 255
    1816:	90 e0       	ldi	r25, 0x00	; 0
    1818:	02 c0       	rjmp	.+4      	; 0x181e <DrvTwiWrite+0x14>
    181a:	01 97       	sbiw	r24, 0x01	; 1
void WaitTransmissionI2C() 
{
  uint16_t count = 255;
  while (!(TWCR & (1<<TWINT))) {
    count--;
    if (count==0) {              //we are in a blocking state => we don't insist
    181c:	29 f0       	breq	.+10     	; 0x1828 <DrvTwiWrite+0x1e>
}

void WaitTransmissionI2C() 
{
  uint16_t count = 255;
  while (!(TWCR & (1<<TWINT))) {
    181e:	20 91 bc 00 	lds	r18, 0x00BC
    1822:	27 ff       	sbrs	r18, 7
    1824:	fa cf       	rjmp	.-12     	; 0x181a <DrvTwiWrite+0x10>
    1826:	08 95       	ret
    count--;
    if (count==0) {              //we are in a blocking state => we don't insist
      TWCR = 0;                  //and we force a reset on TWINT register
    1828:	10 92 bc 00 	sts	0x00BC, r1
    182c:	08 95       	ret

0000182e <DrvTwiRead>:
  WaitTransmissionI2C();
}

uint8_t DrvTwiRead(uint8_t ack) 
{
  TWCR = (1<<TWINT) | (1<<TWEN) | (ack? (1<<TWEA) : 0);
    182e:	88 23       	and	r24, r24
    1830:	b1 f0       	breq	.+44     	; 0x185e <DrvTwiRead+0x30>
    1832:	94 ec       	ldi	r25, 0xC4	; 196
    1834:	90 93 bc 00 	sts	0x00BC, r25
    1838:	2f ef       	ldi	r18, 0xFF	; 255
    183a:	30 e0       	ldi	r19, 0x00	; 0
    183c:	03 c0       	rjmp	.+6      	; 0x1844 <DrvTwiRead+0x16>
    183e:	21 50       	subi	r18, 0x01	; 1
    1840:	30 40       	sbci	r19, 0x00	; 0
void WaitTransmissionI2C() 
{
  uint16_t count = 255;
  while (!(TWCR & (1<<TWINT))) {
    count--;
    if (count==0) {              //we are in a blocking state => we don't insist
    1842:	79 f0       	breq	.+30     	; 0x1862 <DrvTwiRead+0x34>
}

void WaitTransmissionI2C() 
{
  uint16_t count = 255;
  while (!(TWCR & (1<<TWINT))) {
    1844:	90 91 bc 00 	lds	r25, 0x00BC
    1848:	97 ff       	sbrs	r25, 7
    184a:	f9 cf       	rjmp	.-14     	; 0x183e <DrvTwiRead+0x10>

uint8_t DrvTwiRead(uint8_t ack) 
{
  TWCR = (1<<TWINT) | (1<<TWEN) | (ack? (1<<TWEA) : 0);
  WaitTransmissionI2C();
  uint8_t r = TWDR;
    184c:	90 91 bb 00 	lds	r25, 0x00BB
  if (!ack) DrvTwiStop();
    1850:	88 23       	and	r24, r24
    1852:	19 f4       	brne	.+6      	; 0x185a <DrvTwiRead+0x2c>
  WaitTransmissionI2C();                       // wail until transmission completed
}

void DrvTwiStop(void) 
{
  TWCR = (1 << TWINT) | (1 << TWEN) | (1 << TWSTO);
    1854:	84 e9       	ldi	r24, 0x94	; 148
    1856:	80 93 bc 00 	sts	0x00BC, r24
  TWCR = (1<<TWINT) | (1<<TWEN) | (ack? (1<<TWEA) : 0);
  WaitTransmissionI2C();
  uint8_t r = TWDR;
  if (!ack) DrvTwiStop();
  return r;
}
    185a:	89 2f       	mov	r24, r25
    185c:	08 95       	ret
  WaitTransmissionI2C();
}

uint8_t DrvTwiRead(uint8_t ack) 
{
  TWCR = (1<<TWINT) | (1<<TWEN) | (ack? (1<<TWEA) : 0);
    185e:	94 e8       	ldi	r25, 0x84	; 132
    1860:	e9 cf       	rjmp	.-46     	; 0x1834 <DrvTwiRead+0x6>
{
  uint16_t count = 255;
  while (!(TWCR & (1<<TWINT))) {
    count--;
    if (count==0) {              //we are in a blocking state => we don't insist
      TWCR = 0;                  //and we force a reset on TWINT register
    1862:	10 92 bc 00 	sts	0x00BC, r1
    1866:	f2 cf       	rjmp	.-28     	; 0x184c <DrvTwiRead+0x1e>

00001868 <DrvTwiReadAck>:
  WaitTransmissionI2C();
}

uint8_t DrvTwiRead(uint8_t ack) 
{
  TWCR = (1<<TWINT) | (1<<TWEN) | (ack? (1<<TWEA) : 0);
    1868:	84 ec       	ldi	r24, 0xC4	; 196
    186a:	80 93 bc 00 	sts	0x00BC, r24
    186e:	8f ef       	ldi	r24, 0xFF	; 255
    1870:	90 e0       	ldi	r25, 0x00	; 0
    1872:	02 c0       	rjmp	.+4      	; 0x1878 <DrvTwiReadAck+0x10>
    1874:	01 97       	sbiw	r24, 0x01	; 1
void WaitTransmissionI2C() 
{
  uint16_t count = 255;
  while (!(TWCR & (1<<TWINT))) {
    count--;
    if (count==0) {              //we are in a blocking state => we don't insist
    1876:	39 f0       	breq	.+14     	; 0x1886 <DrvTwiReadAck+0x1e>
}

void WaitTransmissionI2C() 
{
  uint16_t count = 255;
  while (!(TWCR & (1<<TWINT))) {
    1878:	20 91 bc 00 	lds	r18, 0x00BC
    187c:	27 ff       	sbrs	r18, 7
    187e:	fa cf       	rjmp	.-12     	; 0x1874 <DrvTwiReadAck+0xc>

uint8_t DrvTwiRead(uint8_t ack) 
{
  TWCR = (1<<TWINT) | (1<<TWEN) | (ack? (1<<TWEA) : 0);
  WaitTransmissionI2C();
  uint8_t r = TWDR;
    1880:	80 91 bb 00 	lds	r24, 0x00BB
}

uint8_t DrvTwiReadAck() 
{
  return DrvTwiRead(1);
}
    1884:	08 95       	ret
{
  uint16_t count = 255;
  while (!(TWCR & (1<<TWINT))) {
    count--;
    if (count==0) {              //we are in a blocking state => we don't insist
      TWCR = 0;                  //and we force a reset on TWINT register
    1886:	10 92 bc 00 	sts	0x00BC, r1

uint8_t DrvTwiRead(uint8_t ack) 
{
  TWCR = (1<<TWINT) | (1<<TWEN) | (ack? (1<<TWEA) : 0);
  WaitTransmissionI2C();
  uint8_t r = TWDR;
    188a:	80 91 bb 00 	lds	r24, 0x00BB
}

uint8_t DrvTwiReadAck() 
{
  return DrvTwiRead(1);
}
    188e:	08 95       	ret

00001890 <DrvTwireadNak>:
  WaitTransmissionI2C();
}

uint8_t DrvTwiRead(uint8_t ack) 
{
  TWCR = (1<<TWINT) | (1<<TWEN) | (ack? (1<<TWEA) : 0);
    1890:	84 e8       	ldi	r24, 0x84	; 132
    1892:	80 93 bc 00 	sts	0x00BC, r24
    1896:	8f ef       	ldi	r24, 0xFF	; 255
    1898:	90 e0       	ldi	r25, 0x00	; 0
    189a:	02 c0       	rjmp	.+4      	; 0x18a0 <DrvTwireadNak+0x10>
    189c:	01 97       	sbiw	r24, 0x01	; 1
void WaitTransmissionI2C() 
{
  uint16_t count = 255;
  while (!(TWCR & (1<<TWINT))) {
    count--;
    if (count==0) {              //we are in a blocking state => we don't insist
    189e:	51 f0       	breq	.+20     	; 0x18b4 <DrvTwireadNak+0x24>
}

void WaitTransmissionI2C() 
{
  uint16_t count = 255;
  while (!(TWCR & (1<<TWINT))) {
    18a0:	20 91 bc 00 	lds	r18, 0x00BC
    18a4:	27 ff       	sbrs	r18, 7
    18a6:	fa cf       	rjmp	.-12     	; 0x189c <DrvTwireadNak+0xc>

uint8_t DrvTwiRead(uint8_t ack) 
{
  TWCR = (1<<TWINT) | (1<<TWEN) | (ack? (1<<TWEA) : 0);
  WaitTransmissionI2C();
  uint8_t r = TWDR;
    18a8:	80 91 bb 00 	lds	r24, 0x00BB
  WaitTransmissionI2C();                       // wail until transmission completed
}

void DrvTwiStop(void) 
{
  TWCR = (1 << TWINT) | (1 << TWEN) | (1 << TWSTO);
    18ac:	94 e9       	ldi	r25, 0x94	; 148
    18ae:	90 93 bc 00 	sts	0x00BC, r25
}

uint8_t DrvTwireadNak(void) 
{
  return DrvTwiRead(0);
}
    18b2:	08 95       	ret
{
  uint16_t count = 255;
  while (!(TWCR & (1<<TWINT))) {
    count--;
    if (count==0) {              //we are in a blocking state => we don't insist
      TWCR = 0;                  //and we force a reset on TWINT register
    18b4:	10 92 bc 00 	sts	0x00BC, r1

uint8_t DrvTwiRead(uint8_t ack) 
{
  TWCR = (1<<TWINT) | (1<<TWEN) | (ack? (1<<TWEA) : 0);
  WaitTransmissionI2C();
  uint8_t r = TWDR;
    18b8:	80 91 bb 00 	lds	r24, 0x00BB
  WaitTransmissionI2C();                       // wail until transmission completed
}

void DrvTwiStop(void) 
{
  TWCR = (1 << TWINT) | (1 << TWEN) | (1 << TWSTO);
    18bc:	94 e9       	ldi	r25, 0x94	; 148
    18be:	90 93 bc 00 	sts	0x00BC, r25
}

uint8_t DrvTwireadNak(void) 
{
  return DrvTwiRead(0);
}
    18c2:	08 95       	ret

000018c4 <WaitTransmissionI2C>:

void WaitTransmissionI2C() 
{
  uint16_t count = 255;
  while (!(TWCR & (1<<TWINT))) {
    18c4:	8f ef       	ldi	r24, 0xFF	; 255
    18c6:	90 e0       	ldi	r25, 0x00	; 0
    18c8:	02 c0       	rjmp	.+4      	; 0x18ce <WaitTransmissionI2C+0xa>
    18ca:	01 97       	sbiw	r24, 0x01	; 1
    count--;
    if (count==0) {              //we are in a blocking state => we don't insist
    18cc:	29 f0       	breq	.+10     	; 0x18d8 <WaitTransmissionI2C+0x14>
}

void WaitTransmissionI2C() 
{
  uint16_t count = 255;
  while (!(TWCR & (1<<TWINT))) {
    18ce:	20 91 bc 00 	lds	r18, 0x00BC
    18d2:	27 ff       	sbrs	r18, 7
    18d4:	fa cf       	rjmp	.-12     	; 0x18ca <WaitTransmissionI2C+0x6>
    18d6:	08 95       	ret
    count--;
    if (count==0) {              //we are in a blocking state => we don't insist
      TWCR = 0;                  //and we force a reset on TWINT register
    18d8:	10 92 bc 00 	sts	0x00BC, r1
      break;
    18dc:	08 95       	ret

000018de <DrvTwiReadToBuf>:
  }
}

Int8U DrvTwiReadToBuf(uint8_t add, void *buf, Int8U size) 
{
  DrvTwiRepStart((add<<1) | 1);	// I2C read direction
    18de:	88 0f       	add	r24, r24
    18e0:	81 60       	ori	r24, 0x01	; 1
  TWCR = 1<<TWEN;                              // enable twi module, no interrupt
}

void DrvTwiRepStart(uint8_t address) 
{
  TWCR = (1<<TWINT) | (1<<TWSTA) | (1<<TWEN) ; // send REPEAT START condition
    18e2:	94 ea       	ldi	r25, 0xA4	; 164
    18e4:	90 93 bc 00 	sts	0x00BC, r25
    18e8:	2f ef       	ldi	r18, 0xFF	; 255
    18ea:	30 e0       	ldi	r19, 0x00	; 0
    18ec:	04 c0       	rjmp	.+8      	; 0x18f6 <DrvTwiReadToBuf+0x18>
    18ee:	21 50       	subi	r18, 0x01	; 1
    18f0:	30 40       	sbci	r19, 0x00	; 0
void WaitTransmissionI2C() 
{
  uint16_t count = 255;
  while (!(TWCR & (1<<TWINT))) {
    count--;
    if (count==0) {              //we are in a blocking state => we don't insist
    18f2:	09 f4       	brne	.+2      	; 0x18f6 <DrvTwiReadToBuf+0x18>
    18f4:	3d c0       	rjmp	.+122    	; 0x1970 <DrvTwiReadToBuf+0x92>
}

void WaitTransmissionI2C() 
{
  uint16_t count = 255;
  while (!(TWCR & (1<<TWINT))) {
    18f6:	90 91 bc 00 	lds	r25, 0x00BC
    18fa:	97 ff       	sbrs	r25, 7
    18fc:	f8 cf       	rjmp	.-16     	; 0x18ee <DrvTwiReadToBuf+0x10>

void DrvTwiRepStart(uint8_t address) 
{
  TWCR = (1<<TWINT) | (1<<TWSTA) | (1<<TWEN) ; // send REPEAT START condition
  WaitTransmissionI2C();                       // wait until transmission completed
  TWDR = address;                              // send device address
    18fe:	80 93 bb 00 	sts	0x00BB, r24
  TWCR = (1<<TWINT) | (1<<TWEN);
    1902:	84 e8       	ldi	r24, 0x84	; 132
    1904:	80 93 bc 00 	sts	0x00BC, r24
    1908:	2f ef       	ldi	r18, 0xFF	; 255
    190a:	30 e0       	ldi	r19, 0x00	; 0
    190c:	03 c0       	rjmp	.+6      	; 0x1914 <DrvTwiReadToBuf+0x36>
    190e:	21 50       	subi	r18, 0x01	; 1
    1910:	30 40       	sbci	r19, 0x00	; 0
void WaitTransmissionI2C() 
{
  uint16_t count = 255;
  while (!(TWCR & (1<<TWINT))) {
    count--;
    if (count==0) {              //we are in a blocking state => we don't insist
    1912:	89 f1       	breq	.+98     	; 0x1976 <DrvTwiReadToBuf+0x98>
}

void WaitTransmissionI2C() 
{
  uint16_t count = 255;
  while (!(TWCR & (1<<TWINT))) {
    1914:	80 91 bc 00 	lds	r24, 0x00BC
    1918:	87 ff       	sbrs	r24, 7
    191a:	f9 cf       	rjmp	.-14     	; 0x190e <DrvTwiReadToBuf+0x30>
Int8U DrvTwiReadToBuf(uint8_t add, void *buf, Int8U size) 
{
  DrvTwiRepStart((add<<1) | 1);	// I2C read direction
  Int8U bytes_read = 0;
  uint8_t *b = (uint8_t*)buf;
  while (size--) {
    191c:	44 23       	and	r20, r20
    191e:	71 f1       	breq	.+92     	; 0x197c <DrvTwiReadToBuf+0x9e>
    1920:	94 2f       	mov	r25, r20
    1922:	91 50       	subi	r25, 0x01	; 1
    1924:	e6 2f       	mov	r30, r22
    1926:	f7 2f       	mov	r31, r23
  WaitTransmissionI2C();                       // wail until transmission completed
}

void DrvTwiStop(void) 
{
  TWCR = (1 << TWINT) | (1 << TWEN) | (1 << TWSTO);
    1928:	64 e9       	ldi	r22, 0x94	; 148
  DrvTwiRepStart((add<<1) | 1);	// I2C read direction
  Int8U bytes_read = 0;
  uint8_t *b = (uint8_t*)buf;
  while (size--) {
    /* acknowledge all but the final byte */
    *b++ = DrvTwiRead(size > 0);
    192a:	51 e0       	ldi	r21, 0x01	; 1
    192c:	d1 f4       	brne	.+52     	; 0x1962 <DrvTwiReadToBuf+0x84>
    192e:	50 e0       	ldi	r21, 0x00	; 0
  WaitTransmissionI2C();
}

uint8_t DrvTwiRead(uint8_t ack) 
{
  TWCR = (1<<TWINT) | (1<<TWEN) | (ack? (1<<TWEA) : 0);
    1930:	84 e8       	ldi	r24, 0x84	; 132
    1932:	80 93 bc 00 	sts	0x00BC, r24
    1936:	2f ef       	ldi	r18, 0xFF	; 255
    1938:	30 e0       	ldi	r19, 0x00	; 0
    193a:	03 c0       	rjmp	.+6      	; 0x1942 <DrvTwiReadToBuf+0x64>
    193c:	21 50       	subi	r18, 0x01	; 1
    193e:	30 40       	sbci	r19, 0x00	; 0
void WaitTransmissionI2C() 
{
  uint16_t count = 255;
  while (!(TWCR & (1<<TWINT))) {
    count--;
    if (count==0) {              //we are in a blocking state => we don't insist
    1940:	91 f0       	breq	.+36     	; 0x1966 <DrvTwiReadToBuf+0x88>
}

void WaitTransmissionI2C() 
{
  uint16_t count = 255;
  while (!(TWCR & (1<<TWINT))) {
    1942:	80 91 bc 00 	lds	r24, 0x00BC
    1946:	87 ff       	sbrs	r24, 7
    1948:	f9 cf       	rjmp	.-14     	; 0x193c <DrvTwiReadToBuf+0x5e>

uint8_t DrvTwiRead(uint8_t ack) 
{
  TWCR = (1<<TWINT) | (1<<TWEN) | (ack? (1<<TWEA) : 0);
  WaitTransmissionI2C();
  uint8_t r = TWDR;
    194a:	80 91 bb 00 	lds	r24, 0x00BB
  if (!ack) DrvTwiStop();
    194e:	55 23       	and	r21, r21
    1950:	11 f4       	brne	.+4      	; 0x1956 <DrvTwiReadToBuf+0x78>
  WaitTransmissionI2C();                       // wail until transmission completed
}

void DrvTwiStop(void) 
{
  TWCR = (1 << TWINT) | (1 << TWEN) | (1 << TWSTO);
    1952:	60 93 bc 00 	sts	0x00BC, r22
  DrvTwiRepStart((add<<1) | 1);	// I2C read direction
  Int8U bytes_read = 0;
  uint8_t *b = (uint8_t*)buf;
  while (size--) {
    /* acknowledge all but the final byte */
    *b++ = DrvTwiRead(size > 0);
    1956:	81 93       	st	Z+, r24
Int8U DrvTwiReadToBuf(uint8_t add, void *buf, Int8U size) 
{
  DrvTwiRepStart((add<<1) | 1);	// I2C read direction
  Int8U bytes_read = 0;
  uint8_t *b = (uint8_t*)buf;
  while (size--) {
    1958:	99 23       	and	r25, r25
    195a:	41 f0       	breq	.+16     	; 0x196c <DrvTwiReadToBuf+0x8e>
    195c:	91 50       	subi	r25, 0x01	; 1
    /* acknowledge all but the final byte */
    *b++ = DrvTwiRead(size > 0);
    195e:	51 e0       	ldi	r21, 0x01	; 1
    1960:	31 f3       	breq	.-52     	; 0x192e <DrvTwiReadToBuf+0x50>
  WaitTransmissionI2C();
}

uint8_t DrvTwiRead(uint8_t ack) 
{
  TWCR = (1<<TWINT) | (1<<TWEN) | (ack? (1<<TWEA) : 0);
    1962:	84 ec       	ldi	r24, 0xC4	; 196
    1964:	e6 cf       	rjmp	.-52     	; 0x1932 <DrvTwiReadToBuf+0x54>
{
  uint16_t count = 255;
  while (!(TWCR & (1<<TWINT))) {
    count--;
    if (count==0) {              //we are in a blocking state => we don't insist
      TWCR = 0;                  //and we force a reset on TWINT register
    1966:	10 92 bc 00 	sts	0x00BC, r1
    196a:	ef cf       	rjmp	.-34     	; 0x194a <DrvTwiReadToBuf+0x6c>
  uint8_t *b = (uint8_t*)buf;
  while (size--) {
    /* acknowledge all but the final byte */
    *b++ = DrvTwiRead(size > 0);
    /* TODO catch I2C errors here and abort */
    bytes_read++;
    196c:	84 2f       	mov	r24, r20
  }
  return bytes_read;
}
    196e:	08 95       	ret
{
  uint16_t count = 255;
  while (!(TWCR & (1<<TWINT))) {
    count--;
    if (count==0) {              //we are in a blocking state => we don't insist
      TWCR = 0;                  //and we force a reset on TWINT register
    1970:	10 92 bc 00 	sts	0x00BC, r1
    1974:	c4 cf       	rjmp	.-120    	; 0x18fe <DrvTwiReadToBuf+0x20>
    1976:	10 92 bc 00 	sts	0x00BC, r1
    197a:	d0 cf       	rjmp	.-96     	; 0x191c <DrvTwiReadToBuf+0x3e>
}

Int8U DrvTwiReadToBuf(uint8_t add, void *buf, Int8U size) 
{
  DrvTwiRepStart((add<<1) | 1);	// I2C read direction
  Int8U bytes_read = 0;
    197c:	80 e0       	ldi	r24, 0x00	; 0
    197e:	08 95       	ret

00001980 <DrvTwiReadRegBuf>:
  return bytes_read;
}

Int8U DrvTwiReadRegBuf(uint8_t add, uint8_t reg, void *buf, Int8U size) 
{
  DrvTwiRepStart(add<<1); // I2C write direction
    1980:	38 2f       	mov	r19, r24
    1982:	33 0f       	add	r19, r19
  TWCR = 1<<TWEN;                              // enable twi module, no interrupt
}

void DrvTwiRepStart(uint8_t address) 
{
  TWCR = (1<<TWINT) | (1<<TWSTA) | (1<<TWEN) ; // send REPEAT START condition
    1984:	94 ea       	ldi	r25, 0xA4	; 164
    1986:	90 93 bc 00 	sts	0x00BC, r25
    198a:	ef ef       	ldi	r30, 0xFF	; 255
    198c:	f0 e0       	ldi	r31, 0x00	; 0
    198e:	03 c0       	rjmp	.+6      	; 0x1996 <DrvTwiReadRegBuf+0x16>
    1990:	31 97       	sbiw	r30, 0x01	; 1
void WaitTransmissionI2C() 
{
  uint16_t count = 255;
  while (!(TWCR & (1<<TWINT))) {
    count--;
    if (count==0) {              //we are in a blocking state => we don't insist
    1992:	09 f4       	brne	.+2      	; 0x1996 <DrvTwiReadRegBuf+0x16>
    1994:	6c c0       	rjmp	.+216    	; 0x1a6e <DrvTwiReadRegBuf+0xee>
}

void WaitTransmissionI2C() 
{
  uint16_t count = 255;
  while (!(TWCR & (1<<TWINT))) {
    1996:	90 91 bc 00 	lds	r25, 0x00BC
    199a:	97 ff       	sbrs	r25, 7
    199c:	f9 cf       	rjmp	.-14     	; 0x1990 <DrvTwiReadRegBuf+0x10>

void DrvTwiRepStart(uint8_t address) 
{
  TWCR = (1<<TWINT) | (1<<TWSTA) | (1<<TWEN) ; // send REPEAT START condition
  WaitTransmissionI2C();                       // wait until transmission completed
  TWDR = address;                              // send device address
    199e:	30 93 bb 00 	sts	0x00BB, r19
  TWCR = (1<<TWINT) | (1<<TWEN);
    19a2:	94 e8       	ldi	r25, 0x84	; 132
    19a4:	90 93 bc 00 	sts	0x00BC, r25
    19a8:	ef ef       	ldi	r30, 0xFF	; 255
    19aa:	f0 e0       	ldi	r31, 0x00	; 0
    19ac:	03 c0       	rjmp	.+6      	; 0x19b4 <DrvTwiReadRegBuf+0x34>
    19ae:	31 97       	sbiw	r30, 0x01	; 1
void WaitTransmissionI2C() 
{
  uint16_t count = 255;
  while (!(TWCR & (1<<TWINT))) {
    count--;
    if (count==0) {              //we are in a blocking state => we don't insist
    19b0:	09 f4       	brne	.+2      	; 0x19b4 <DrvTwiReadRegBuf+0x34>
    19b2:	60 c0       	rjmp	.+192    	; 0x1a74 <DrvTwiReadRegBuf+0xf4>
}

void WaitTransmissionI2C() 
{
  uint16_t count = 255;
  while (!(TWCR & (1<<TWINT))) {
    19b4:	90 91 bc 00 	lds	r25, 0x00BC
    19b8:	97 ff       	sbrs	r25, 7
    19ba:	f9 cf       	rjmp	.-14     	; 0x19ae <DrvTwiReadRegBuf+0x2e>
  //  while(TWCR & (1<<TWSTO));                // <- can produce a blocking state with some WMP clones
}

void DrvTwiWrite(uint8_t data ) 
{	
  TWDR = data;                                 // send data to the previously addressed device
    19bc:	60 93 bb 00 	sts	0x00BB, r22
  TWCR = (1<<TWINT) | (1<<TWEN);
    19c0:	94 e8       	ldi	r25, 0x84	; 132
    19c2:	90 93 bc 00 	sts	0x00BC, r25
    19c6:	6f ef       	ldi	r22, 0xFF	; 255
    19c8:	70 e0       	ldi	r23, 0x00	; 0
    19ca:	04 c0       	rjmp	.+8      	; 0x19d4 <DrvTwiReadRegBuf+0x54>
    19cc:	61 50       	subi	r22, 0x01	; 1
    19ce:	70 40       	sbci	r23, 0x00	; 0
void WaitTransmissionI2C() 
{
  uint16_t count = 255;
  while (!(TWCR & (1<<TWINT))) {
    count--;
    if (count==0) {              //we are in a blocking state => we don't insist
    19d0:	09 f4       	brne	.+2      	; 0x19d4 <DrvTwiReadRegBuf+0x54>
    19d2:	53 c0       	rjmp	.+166    	; 0x1a7a <DrvTwiReadRegBuf+0xfa>
}

void WaitTransmissionI2C() 
{
  uint16_t count = 255;
  while (!(TWCR & (1<<TWINT))) {
    19d4:	90 91 bc 00 	lds	r25, 0x00BC
    19d8:	97 ff       	sbrs	r25, 7
    19da:	f8 cf       	rjmp	.-16     	; 0x19cc <DrvTwiReadRegBuf+0x4c>
  }
}

Int8U DrvTwiReadToBuf(uint8_t add, void *buf, Int8U size) 
{
  DrvTwiRepStart((add<<1) | 1);	// I2C read direction
    19dc:	88 0f       	add	r24, r24
    19de:	81 60       	ori	r24, 0x01	; 1
  TWCR = 1<<TWEN;                              // enable twi module, no interrupt
}

void DrvTwiRepStart(uint8_t address) 
{
  TWCR = (1<<TWINT) | (1<<TWSTA) | (1<<TWEN) ; // send REPEAT START condition
    19e0:	94 ea       	ldi	r25, 0xA4	; 164
    19e2:	90 93 bc 00 	sts	0x00BC, r25
    19e6:	6f ef       	ldi	r22, 0xFF	; 255
    19e8:	70 e0       	ldi	r23, 0x00	; 0
    19ea:	04 c0       	rjmp	.+8      	; 0x19f4 <DrvTwiReadRegBuf+0x74>
    19ec:	61 50       	subi	r22, 0x01	; 1
    19ee:	70 40       	sbci	r23, 0x00	; 0
void WaitTransmissionI2C() 
{
  uint16_t count = 255;
  while (!(TWCR & (1<<TWINT))) {
    count--;
    if (count==0) {              //we are in a blocking state => we don't insist
    19f0:	09 f4       	brne	.+2      	; 0x19f4 <DrvTwiReadRegBuf+0x74>
    19f2:	46 c0       	rjmp	.+140    	; 0x1a80 <DrvTwiReadRegBuf+0x100>
}

void WaitTransmissionI2C() 
{
  uint16_t count = 255;
  while (!(TWCR & (1<<TWINT))) {
    19f4:	90 91 bc 00 	lds	r25, 0x00BC
    19f8:	97 ff       	sbrs	r25, 7
    19fa:	f8 cf       	rjmp	.-16     	; 0x19ec <DrvTwiReadRegBuf+0x6c>

void DrvTwiRepStart(uint8_t address) 
{
  TWCR = (1<<TWINT) | (1<<TWSTA) | (1<<TWEN) ; // send REPEAT START condition
  WaitTransmissionI2C();                       // wait until transmission completed
  TWDR = address;                              // send device address
    19fc:	80 93 bb 00 	sts	0x00BB, r24
  TWCR = (1<<TWINT) | (1<<TWEN);
    1a00:	84 e8       	ldi	r24, 0x84	; 132
    1a02:	80 93 bc 00 	sts	0x00BC, r24
    1a06:	6f ef       	ldi	r22, 0xFF	; 255
    1a08:	70 e0       	ldi	r23, 0x00	; 0
    1a0a:	03 c0       	rjmp	.+6      	; 0x1a12 <DrvTwiReadRegBuf+0x92>
    1a0c:	61 50       	subi	r22, 0x01	; 1
    1a0e:	70 40       	sbci	r23, 0x00	; 0
void WaitTransmissionI2C() 
{
  uint16_t count = 255;
  while (!(TWCR & (1<<TWINT))) {
    count--;
    if (count==0) {              //we are in a blocking state => we don't insist
    1a10:	d1 f1       	breq	.+116    	; 0x1a86 <DrvTwiReadRegBuf+0x106>
}

void WaitTransmissionI2C() 
{
  uint16_t count = 255;
  while (!(TWCR & (1<<TWINT))) {
    1a12:	90 91 bc 00 	lds	r25, 0x00BC
    1a16:	97 ff       	sbrs	r25, 7
    1a18:	f9 cf       	rjmp	.-14     	; 0x1a0c <DrvTwiReadRegBuf+0x8c>
Int8U DrvTwiReadToBuf(uint8_t add, void *buf, Int8U size) 
{
  DrvTwiRepStart((add<<1) | 1);	// I2C read direction
  Int8U bytes_read = 0;
  uint8_t *b = (uint8_t*)buf;
  while (size--) {
    1a1a:	22 23       	and	r18, r18
    1a1c:	31 f1       	breq	.+76     	; 0x1a6a <DrvTwiReadRegBuf+0xea>
    1a1e:	32 2f       	mov	r19, r18
    1a20:	31 50       	subi	r19, 0x01	; 1
    1a22:	e4 2f       	mov	r30, r20
    1a24:	f5 2f       	mov	r31, r21
  WaitTransmissionI2C();                       // wail until transmission completed
}

void DrvTwiStop(void) 
{
  TWCR = (1 << TWINT) | (1 << TWEN) | (1 << TWSTO);
    1a26:	64 e9       	ldi	r22, 0x94	; 148
  DrvTwiRepStart((add<<1) | 1);	// I2C read direction
  Int8U bytes_read = 0;
  uint8_t *b = (uint8_t*)buf;
  while (size--) {
    /* acknowledge all but the final byte */
    *b++ = DrvTwiRead(size > 0);
    1a28:	81 e0       	ldi	r24, 0x01	; 1
    1a2a:	d1 f4       	brne	.+52     	; 0x1a60 <DrvTwiReadRegBuf+0xe0>
    1a2c:	80 e0       	ldi	r24, 0x00	; 0
  WaitTransmissionI2C();
}

uint8_t DrvTwiRead(uint8_t ack) 
{
  TWCR = (1<<TWINT) | (1<<TWEN) | (ack? (1<<TWEA) : 0);
    1a2e:	94 e8       	ldi	r25, 0x84	; 132
    1a30:	90 93 bc 00 	sts	0x00BC, r25
    1a34:	4f ef       	ldi	r20, 0xFF	; 255
    1a36:	50 e0       	ldi	r21, 0x00	; 0
    1a38:	03 c0       	rjmp	.+6      	; 0x1a40 <DrvTwiReadRegBuf+0xc0>
    1a3a:	41 50       	subi	r20, 0x01	; 1
    1a3c:	50 40       	sbci	r21, 0x00	; 0
void WaitTransmissionI2C() 
{
  uint16_t count = 255;
  while (!(TWCR & (1<<TWINT))) {
    count--;
    if (count==0) {              //we are in a blocking state => we don't insist
    1a3e:	91 f0       	breq	.+36     	; 0x1a64 <DrvTwiReadRegBuf+0xe4>
}

void WaitTransmissionI2C() 
{
  uint16_t count = 255;
  while (!(TWCR & (1<<TWINT))) {
    1a40:	90 91 bc 00 	lds	r25, 0x00BC
    1a44:	97 ff       	sbrs	r25, 7
    1a46:	f9 cf       	rjmp	.-14     	; 0x1a3a <DrvTwiReadRegBuf+0xba>

uint8_t DrvTwiRead(uint8_t ack) 
{
  TWCR = (1<<TWINT) | (1<<TWEN) | (ack? (1<<TWEA) : 0);
  WaitTransmissionI2C();
  uint8_t r = TWDR;
    1a48:	90 91 bb 00 	lds	r25, 0x00BB
  if (!ack) DrvTwiStop();
    1a4c:	88 23       	and	r24, r24
    1a4e:	11 f4       	brne	.+4      	; 0x1a54 <DrvTwiReadRegBuf+0xd4>
  WaitTransmissionI2C();                       // wail until transmission completed
}

void DrvTwiStop(void) 
{
  TWCR = (1 << TWINT) | (1 << TWEN) | (1 << TWSTO);
    1a50:	60 93 bc 00 	sts	0x00BC, r22
  DrvTwiRepStart((add<<1) | 1);	// I2C read direction
  Int8U bytes_read = 0;
  uint8_t *b = (uint8_t*)buf;
  while (size--) {
    /* acknowledge all but the final byte */
    *b++ = DrvTwiRead(size > 0);
    1a54:	91 93       	st	Z+, r25
Int8U DrvTwiReadToBuf(uint8_t add, void *buf, Int8U size) 
{
  DrvTwiRepStart((add<<1) | 1);	// I2C read direction
  Int8U bytes_read = 0;
  uint8_t *b = (uint8_t*)buf;
  while (size--) {
    1a56:	33 23       	and	r19, r19
    1a58:	41 f0       	breq	.+16     	; 0x1a6a <DrvTwiReadRegBuf+0xea>
    1a5a:	31 50       	subi	r19, 0x01	; 1
    /* acknowledge all but the final byte */
    *b++ = DrvTwiRead(size > 0);
    1a5c:	81 e0       	ldi	r24, 0x01	; 1
    1a5e:	31 f3       	breq	.-52     	; 0x1a2c <DrvTwiReadRegBuf+0xac>
  WaitTransmissionI2C();
}

uint8_t DrvTwiRead(uint8_t ack) 
{
  TWCR = (1<<TWINT) | (1<<TWEN) | (ack? (1<<TWEA) : 0);
    1a60:	94 ec       	ldi	r25, 0xC4	; 196
    1a62:	e6 cf       	rjmp	.-52     	; 0x1a30 <DrvTwiReadRegBuf+0xb0>
{
  uint16_t count = 255;
  while (!(TWCR & (1<<TWINT))) {
    count--;
    if (count==0) {              //we are in a blocking state => we don't insist
      TWCR = 0;                  //and we force a reset on TWINT register
    1a64:	10 92 bc 00 	sts	0x00BC, r1
    1a68:	ef cf       	rjmp	.-34     	; 0x1a48 <DrvTwiReadRegBuf+0xc8>
Int8U DrvTwiReadRegBuf(uint8_t add, uint8_t reg, void *buf, Int8U size) 
{
  DrvTwiRepStart(add<<1); // I2C write direction
  DrvTwiWrite(reg);        // register selection
  return DrvTwiReadToBuf(add, buf, size);
}
    1a6a:	82 2f       	mov	r24, r18
    1a6c:	08 95       	ret
{
  uint16_t count = 255;
  while (!(TWCR & (1<<TWINT))) {
    count--;
    if (count==0) {              //we are in a blocking state => we don't insist
      TWCR = 0;                  //and we force a reset on TWINT register
    1a6e:	10 92 bc 00 	sts	0x00BC, r1
    1a72:	95 cf       	rjmp	.-214    	; 0x199e <DrvTwiReadRegBuf+0x1e>
    1a74:	10 92 bc 00 	sts	0x00BC, r1
    1a78:	a1 cf       	rjmp	.-190    	; 0x19bc <DrvTwiReadRegBuf+0x3c>
    1a7a:	10 92 bc 00 	sts	0x00BC, r1
    1a7e:	ae cf       	rjmp	.-164    	; 0x19dc <DrvTwiReadRegBuf+0x5c>
    1a80:	10 92 bc 00 	sts	0x00BC, r1
    1a84:	bb cf       	rjmp	.-138    	; 0x19fc <DrvTwiReadRegBuf+0x7c>
    1a86:	10 92 bc 00 	sts	0x00BC, r1
    1a8a:	c7 cf       	rjmp	.-114    	; 0x1a1a <DrvTwiReadRegBuf+0x9a>

00001a8c <DrvTwiWriteReg>:



void DrvTwiWriteReg(uint8_t add, uint8_t reg, uint8_t val)
 {
  DrvTwiRepStart(add<<1); // I2C write direction
    1a8c:	88 0f       	add	r24, r24
  TWCR = 1<<TWEN;                              // enable twi module, no interrupt
}

void DrvTwiRepStart(uint8_t address) 
{
  TWCR = (1<<TWINT) | (1<<TWSTA) | (1<<TWEN) ; // send REPEAT START condition
    1a8e:	94 ea       	ldi	r25, 0xA4	; 164
    1a90:	90 93 bc 00 	sts	0x00BC, r25
    1a94:	2f ef       	ldi	r18, 0xFF	; 255
    1a96:	30 e0       	ldi	r19, 0x00	; 0
    1a98:	03 c0       	rjmp	.+6      	; 0x1aa0 <DrvTwiWriteReg+0x14>
    1a9a:	21 50       	subi	r18, 0x01	; 1
    1a9c:	30 40       	sbci	r19, 0x00	; 0
void WaitTransmissionI2C() 
{
  uint16_t count = 255;
  while (!(TWCR & (1<<TWINT))) {
    count--;
    if (count==0) {              //we are in a blocking state => we don't insist
    1a9e:	91 f1       	breq	.+100    	; 0x1b04 <DrvTwiWriteReg+0x78>
}

void WaitTransmissionI2C() 
{
  uint16_t count = 255;
  while (!(TWCR & (1<<TWINT))) {
    1aa0:	90 91 bc 00 	lds	r25, 0x00BC
    1aa4:	97 ff       	sbrs	r25, 7
    1aa6:	f9 cf       	rjmp	.-14     	; 0x1a9a <DrvTwiWriteReg+0xe>

void DrvTwiRepStart(uint8_t address) 
{
  TWCR = (1<<TWINT) | (1<<TWSTA) | (1<<TWEN) ; // send REPEAT START condition
  WaitTransmissionI2C();                       // wait until transmission completed
  TWDR = address;                              // send device address
    1aa8:	80 93 bb 00 	sts	0x00BB, r24
  TWCR = (1<<TWINT) | (1<<TWEN);
    1aac:	84 e8       	ldi	r24, 0x84	; 132
    1aae:	80 93 bc 00 	sts	0x00BC, r24
    1ab2:	8f ef       	ldi	r24, 0xFF	; 255
    1ab4:	90 e0       	ldi	r25, 0x00	; 0
    1ab6:	02 c0       	rjmp	.+4      	; 0x1abc <DrvTwiWriteReg+0x30>
    1ab8:	01 97       	sbiw	r24, 0x01	; 1
void WaitTransmissionI2C() 
{
  uint16_t count = 255;
  while (!(TWCR & (1<<TWINT))) {
    count--;
    if (count==0) {              //we are in a blocking state => we don't insist
    1aba:	39 f1       	breq	.+78     	; 0x1b0a <DrvTwiWriteReg+0x7e>
}

void WaitTransmissionI2C() 
{
  uint16_t count = 255;
  while (!(TWCR & (1<<TWINT))) {
    1abc:	20 91 bc 00 	lds	r18, 0x00BC
    1ac0:	27 ff       	sbrs	r18, 7
    1ac2:	fa cf       	rjmp	.-12     	; 0x1ab8 <DrvTwiWriteReg+0x2c>
  //  while(TWCR & (1<<TWSTO));                // <- can produce a blocking state with some WMP clones
}

void DrvTwiWrite(uint8_t data ) 
{	
  TWDR = data;                                 // send data to the previously addressed device
    1ac4:	60 93 bb 00 	sts	0x00BB, r22
  TWCR = (1<<TWINT) | (1<<TWEN);
    1ac8:	84 e8       	ldi	r24, 0x84	; 132
    1aca:	80 93 bc 00 	sts	0x00BC, r24
    1ace:	8f ef       	ldi	r24, 0xFF	; 255
    1ad0:	90 e0       	ldi	r25, 0x00	; 0
    1ad2:	02 c0       	rjmp	.+4      	; 0x1ad8 <DrvTwiWriteReg+0x4c>
    1ad4:	01 97       	sbiw	r24, 0x01	; 1
void WaitTransmissionI2C() 
{
  uint16_t count = 255;
  while (!(TWCR & (1<<TWINT))) {
    count--;
    if (count==0) {              //we are in a blocking state => we don't insist
    1ad6:	e1 f0       	breq	.+56     	; 0x1b10 <DrvTwiWriteReg+0x84>
}

void WaitTransmissionI2C() 
{
  uint16_t count = 255;
  while (!(TWCR & (1<<TWINT))) {
    1ad8:	20 91 bc 00 	lds	r18, 0x00BC
    1adc:	27 ff       	sbrs	r18, 7
    1ade:	fa cf       	rjmp	.-12     	; 0x1ad4 <DrvTwiWriteReg+0x48>
  //  while(TWCR & (1<<TWSTO));                // <- can produce a blocking state with some WMP clones
}

void DrvTwiWrite(uint8_t data ) 
{	
  TWDR = data;                                 // send data to the previously addressed device
    1ae0:	40 93 bb 00 	sts	0x00BB, r20
  TWCR = (1<<TWINT) | (1<<TWEN);
    1ae4:	84 e8       	ldi	r24, 0x84	; 132
    1ae6:	80 93 bc 00 	sts	0x00BC, r24
    1aea:	8f ef       	ldi	r24, 0xFF	; 255
    1aec:	90 e0       	ldi	r25, 0x00	; 0
    1aee:	02 c0       	rjmp	.+4      	; 0x1af4 <DrvTwiWriteReg+0x68>
    1af0:	01 97       	sbiw	r24, 0x01	; 1
void WaitTransmissionI2C() 
{
  uint16_t count = 255;
  while (!(TWCR & (1<<TWINT))) {
    count--;
    if (count==0) {              //we are in a blocking state => we don't insist
    1af2:	89 f0       	breq	.+34     	; 0x1b16 <DrvTwiWriteReg+0x8a>
}

void WaitTransmissionI2C() 
{
  uint16_t count = 255;
  while (!(TWCR & (1<<TWINT))) {
    1af4:	20 91 bc 00 	lds	r18, 0x00BC
    1af8:	27 ff       	sbrs	r18, 7
    1afa:	fa cf       	rjmp	.-12     	; 0x1af0 <DrvTwiWriteReg+0x64>
  WaitTransmissionI2C();                       // wail until transmission completed
}

void DrvTwiStop(void) 
{
  TWCR = (1 << TWINT) | (1 << TWEN) | (1 << TWSTO);
    1afc:	84 e9       	ldi	r24, 0x94	; 148
    1afe:	80 93 bc 00 	sts	0x00BC, r24
 {
  DrvTwiRepStart(add<<1); // I2C write direction
  DrvTwiWrite(reg);        // register selection
  DrvTwiWrite(val);        // value to write in register
  DrvTwiStop();
}
    1b02:	08 95       	ret
{
  uint16_t count = 255;
  while (!(TWCR & (1<<TWINT))) {
    count--;
    if (count==0) {              //we are in a blocking state => we don't insist
      TWCR = 0;                  //and we force a reset on TWINT register
    1b04:	10 92 bc 00 	sts	0x00BC, r1
    1b08:	cf cf       	rjmp	.-98     	; 0x1aa8 <DrvTwiWriteReg+0x1c>
    1b0a:	10 92 bc 00 	sts	0x00BC, r1
    1b0e:	da cf       	rjmp	.-76     	; 0x1ac4 <DrvTwiWriteReg+0x38>
    1b10:	10 92 bc 00 	sts	0x00BC, r1
    1b14:	e5 cf       	rjmp	.-54     	; 0x1ae0 <DrvTwiWriteReg+0x54>
    1b16:	10 92 bc 00 	sts	0x00BC, r1
  WaitTransmissionI2C();                       // wail until transmission completed
}

void DrvTwiStop(void) 
{
  TWCR = (1 << TWINT) | (1 << TWEN) | (1 << TWSTO);
    1b1a:	84 e9       	ldi	r24, 0x94	; 148
    1b1c:	80 93 bc 00 	sts	0x00BC, r24
 {
  DrvTwiRepStart(add<<1); // I2C write direction
  DrvTwiWrite(reg);        // register selection
  DrvTwiWrite(val);        // value to write in register
  DrvTwiStop();
}
    1b20:	08 95       	ret

00001b22 <DrvTwiReadReg>:
  return bytes_read;
}

Int8U DrvTwiReadRegBuf(uint8_t add, uint8_t reg, void *buf, Int8U size) 
{
  DrvTwiRepStart(add<<1); // I2C write direction
    1b22:	48 2f       	mov	r20, r24
    1b24:	44 0f       	add	r20, r20
  TWCR = 1<<TWEN;                              // enable twi module, no interrupt
}

void DrvTwiRepStart(uint8_t address) 
{
  TWCR = (1<<TWINT) | (1<<TWSTA) | (1<<TWEN) ; // send REPEAT START condition
    1b26:	94 ea       	ldi	r25, 0xA4	; 164
    1b28:	90 93 bc 00 	sts	0x00BC, r25
    1b2c:	2f ef       	ldi	r18, 0xFF	; 255
    1b2e:	30 e0       	ldi	r19, 0x00	; 0
    1b30:	04 c0       	rjmp	.+8      	; 0x1b3a <DrvTwiReadReg+0x18>
    1b32:	21 50       	subi	r18, 0x01	; 1
    1b34:	30 40       	sbci	r19, 0x00	; 0
void WaitTransmissionI2C() 
{
  uint16_t count = 255;
  while (!(TWCR & (1<<TWINT))) {
    count--;
    if (count==0) {              //we are in a blocking state => we don't insist
    1b36:	09 f4       	brne	.+2      	; 0x1b3a <DrvTwiReadReg+0x18>
    1b38:	5b c0       	rjmp	.+182    	; 0x1bf0 <DrvTwiReadReg+0xce>
}

void WaitTransmissionI2C() 
{
  uint16_t count = 255;
  while (!(TWCR & (1<<TWINT))) {
    1b3a:	90 91 bc 00 	lds	r25, 0x00BC
    1b3e:	97 ff       	sbrs	r25, 7
    1b40:	f8 cf       	rjmp	.-16     	; 0x1b32 <DrvTwiReadReg+0x10>

void DrvTwiRepStart(uint8_t address) 
{
  TWCR = (1<<TWINT) | (1<<TWSTA) | (1<<TWEN) ; // send REPEAT START condition
  WaitTransmissionI2C();                       // wait until transmission completed
  TWDR = address;                              // send device address
    1b42:	40 93 bb 00 	sts	0x00BB, r20
  TWCR = (1<<TWINT) | (1<<TWEN);
    1b46:	94 e8       	ldi	r25, 0x84	; 132
    1b48:	90 93 bc 00 	sts	0x00BC, r25
    1b4c:	2f ef       	ldi	r18, 0xFF	; 255
    1b4e:	30 e0       	ldi	r19, 0x00	; 0
    1b50:	04 c0       	rjmp	.+8      	; 0x1b5a <DrvTwiReadReg+0x38>
    1b52:	21 50       	subi	r18, 0x01	; 1
    1b54:	30 40       	sbci	r19, 0x00	; 0
void WaitTransmissionI2C() 
{
  uint16_t count = 255;
  while (!(TWCR & (1<<TWINT))) {
    count--;
    if (count==0) {              //we are in a blocking state => we don't insist
    1b56:	09 f4       	brne	.+2      	; 0x1b5a <DrvTwiReadReg+0x38>
    1b58:	4e c0       	rjmp	.+156    	; 0x1bf6 <DrvTwiReadReg+0xd4>
}

void WaitTransmissionI2C() 
{
  uint16_t count = 255;
  while (!(TWCR & (1<<TWINT))) {
    1b5a:	90 91 bc 00 	lds	r25, 0x00BC
    1b5e:	97 ff       	sbrs	r25, 7
    1b60:	f8 cf       	rjmp	.-16     	; 0x1b52 <DrvTwiReadReg+0x30>
  //  while(TWCR & (1<<TWSTO));                // <- can produce a blocking state with some WMP clones
}

void DrvTwiWrite(uint8_t data ) 
{	
  TWDR = data;                                 // send data to the previously addressed device
    1b62:	60 93 bb 00 	sts	0x00BB, r22
  TWCR = (1<<TWINT) | (1<<TWEN);
    1b66:	94 e8       	ldi	r25, 0x84	; 132
    1b68:	90 93 bc 00 	sts	0x00BC, r25
    1b6c:	2f ef       	ldi	r18, 0xFF	; 255
    1b6e:	30 e0       	ldi	r19, 0x00	; 0
    1b70:	04 c0       	rjmp	.+8      	; 0x1b7a <DrvTwiReadReg+0x58>
    1b72:	21 50       	subi	r18, 0x01	; 1
    1b74:	30 40       	sbci	r19, 0x00	; 0
void WaitTransmissionI2C() 
{
  uint16_t count = 255;
  while (!(TWCR & (1<<TWINT))) {
    count--;
    if (count==0) {              //we are in a blocking state => we don't insist
    1b76:	09 f4       	brne	.+2      	; 0x1b7a <DrvTwiReadReg+0x58>
    1b78:	41 c0       	rjmp	.+130    	; 0x1bfc <DrvTwiReadReg+0xda>
}

void WaitTransmissionI2C() 
{
  uint16_t count = 255;
  while (!(TWCR & (1<<TWINT))) {
    1b7a:	90 91 bc 00 	lds	r25, 0x00BC
    1b7e:	97 ff       	sbrs	r25, 7
    1b80:	f8 cf       	rjmp	.-16     	; 0x1b72 <DrvTwiReadReg+0x50>
  }
}

Int8U DrvTwiReadToBuf(uint8_t add, void *buf, Int8U size) 
{
  DrvTwiRepStart((add<<1) | 1);	// I2C read direction
    1b82:	88 0f       	add	r24, r24
    1b84:	81 60       	ori	r24, 0x01	; 1
  TWCR = 1<<TWEN;                              // enable twi module, no interrupt
}

void DrvTwiRepStart(uint8_t address) 
{
  TWCR = (1<<TWINT) | (1<<TWSTA) | (1<<TWEN) ; // send REPEAT START condition
    1b86:	94 ea       	ldi	r25, 0xA4	; 164
    1b88:	90 93 bc 00 	sts	0x00BC, r25
    1b8c:	2f ef       	ldi	r18, 0xFF	; 255
    1b8e:	30 e0       	ldi	r19, 0x00	; 0
    1b90:	03 c0       	rjmp	.+6      	; 0x1b98 <DrvTwiReadReg+0x76>
    1b92:	21 50       	subi	r18, 0x01	; 1
    1b94:	30 40       	sbci	r19, 0x00	; 0
void WaitTransmissionI2C() 
{
  uint16_t count = 255;
  while (!(TWCR & (1<<TWINT))) {
    count--;
    if (count==0) {              //we are in a blocking state => we don't insist
    1b96:	a9 f1       	breq	.+106    	; 0x1c02 <DrvTwiReadReg+0xe0>
}

void WaitTransmissionI2C() 
{
  uint16_t count = 255;
  while (!(TWCR & (1<<TWINT))) {
    1b98:	90 91 bc 00 	lds	r25, 0x00BC
    1b9c:	97 ff       	sbrs	r25, 7
    1b9e:	f9 cf       	rjmp	.-14     	; 0x1b92 <DrvTwiReadReg+0x70>

void DrvTwiRepStart(uint8_t address) 
{
  TWCR = (1<<TWINT) | (1<<TWSTA) | (1<<TWEN) ; // send REPEAT START condition
  WaitTransmissionI2C();                       // wait until transmission completed
  TWDR = address;                              // send device address
    1ba0:	80 93 bb 00 	sts	0x00BB, r24
  TWCR = (1<<TWINT) | (1<<TWEN);
    1ba4:	84 e8       	ldi	r24, 0x84	; 132
    1ba6:	80 93 bc 00 	sts	0x00BC, r24
    1baa:	8f ef       	ldi	r24, 0xFF	; 255
    1bac:	90 e0       	ldi	r25, 0x00	; 0
    1bae:	02 c0       	rjmp	.+4      	; 0x1bb4 <DrvTwiReadReg+0x92>
    1bb0:	01 97       	sbiw	r24, 0x01	; 1
void WaitTransmissionI2C() 
{
  uint16_t count = 255;
  while (!(TWCR & (1<<TWINT))) {
    count--;
    if (count==0) {              //we are in a blocking state => we don't insist
    1bb2:	51 f1       	breq	.+84     	; 0x1c08 <DrvTwiReadReg+0xe6>
}

void WaitTransmissionI2C() 
{
  uint16_t count = 255;
  while (!(TWCR & (1<<TWINT))) {
    1bb4:	20 91 bc 00 	lds	r18, 0x00BC
    1bb8:	27 ff       	sbrs	r18, 7
    1bba:	fa cf       	rjmp	.-12     	; 0x1bb0 <DrvTwiReadReg+0x8e>
  WaitTransmissionI2C();
}

uint8_t DrvTwiRead(uint8_t ack) 
{
  TWCR = (1<<TWINT) | (1<<TWEN) | (ack? (1<<TWEA) : 0);
    1bbc:	84 e8       	ldi	r24, 0x84	; 132
    1bbe:	80 93 bc 00 	sts	0x00BC, r24
    1bc2:	8f ef       	ldi	r24, 0xFF	; 255
    1bc4:	90 e0       	ldi	r25, 0x00	; 0
    1bc6:	02 c0       	rjmp	.+4      	; 0x1bcc <DrvTwiReadReg+0xaa>
}

void WaitTransmissionI2C() 
{
  uint16_t count = 255;
  while (!(TWCR & (1<<TWINT))) {
    1bc8:	01 97       	sbiw	r24, 0x01	; 1
    count--;
    if (count==0) {              //we are in a blocking state => we don't insist
    1bca:	51 f0       	breq	.+20     	; 0x1be0 <DrvTwiReadReg+0xbe>
}

void WaitTransmissionI2C() 
{
  uint16_t count = 255;
  while (!(TWCR & (1<<TWINT))) {
    1bcc:	20 91 bc 00 	lds	r18, 0x00BC
    1bd0:	27 ff       	sbrs	r18, 7
    1bd2:	fa cf       	rjmp	.-12     	; 0x1bc8 <DrvTwiReadReg+0xa6>

uint8_t DrvTwiRead(uint8_t ack) 
{
  TWCR = (1<<TWINT) | (1<<TWEN) | (ack? (1<<TWEA) : 0);
  WaitTransmissionI2C();
  uint8_t r = TWDR;
    1bd4:	80 91 bb 00 	lds	r24, 0x00BB
  WaitTransmissionI2C();                       // wail until transmission completed
}

void DrvTwiStop(void) 
{
  TWCR = (1 << TWINT) | (1 << TWEN) | (1 << TWSTO);
    1bd8:	94 e9       	ldi	r25, 0x94	; 148
    1bda:	90 93 bc 00 	sts	0x00BC, r25
uint8_t DrvTwiReadReg(uint8_t add, uint8_t reg)
 {
  uint8_t val;
  DrvTwiReadRegBuf(add, reg, &val, 1);
  return val;
    1bde:	08 95       	ret
{
  uint16_t count = 255;
  while (!(TWCR & (1<<TWINT))) {
    count--;
    if (count==0) {              //we are in a blocking state => we don't insist
      TWCR = 0;                  //and we force a reset on TWINT register
    1be0:	10 92 bc 00 	sts	0x00BC, r1

uint8_t DrvTwiRead(uint8_t ack) 
{
  TWCR = (1<<TWINT) | (1<<TWEN) | (ack? (1<<TWEA) : 0);
  WaitTransmissionI2C();
  uint8_t r = TWDR;
    1be4:	80 91 bb 00 	lds	r24, 0x00BB
  WaitTransmissionI2C();                       // wail until transmission completed
}

void DrvTwiStop(void) 
{
  TWCR = (1 << TWINT) | (1 << TWEN) | (1 << TWSTO);
    1be8:	94 e9       	ldi	r25, 0x94	; 148
    1bea:	90 93 bc 00 	sts	0x00BC, r25
uint8_t DrvTwiReadReg(uint8_t add, uint8_t reg)
 {
  uint8_t val;
  DrvTwiReadRegBuf(add, reg, &val, 1);
  return val;
    1bee:	08 95       	ret
{
  uint16_t count = 255;
  while (!(TWCR & (1<<TWINT))) {
    count--;
    if (count==0) {              //we are in a blocking state => we don't insist
      TWCR = 0;                  //and we force a reset on TWINT register
    1bf0:	10 92 bc 00 	sts	0x00BC, r1
    1bf4:	a6 cf       	rjmp	.-180    	; 0x1b42 <DrvTwiReadReg+0x20>
    1bf6:	10 92 bc 00 	sts	0x00BC, r1
    1bfa:	b3 cf       	rjmp	.-154    	; 0x1b62 <DrvTwiReadReg+0x40>
    1bfc:	10 92 bc 00 	sts	0x00BC, r1
    1c00:	c0 cf       	rjmp	.-128    	; 0x1b82 <DrvTwiReadReg+0x60>
    1c02:	10 92 bc 00 	sts	0x00BC, r1
    1c06:	cc cf       	rjmp	.-104    	; 0x1ba0 <DrvTwiReadReg+0x7e>
    1c08:	10 92 bc 00 	sts	0x00BC, r1
    1c0c:	d7 cf       	rjmp	.-82     	; 0x1bbc <DrvTwiReadReg+0x9a>

00001c0e <DrvUartInit>:
// Init du Drv Uart 
void DrvUartInit( )
{
	//on fixe les registres
	#ifdef USE_UART_0
		UBRR0 = 0x08U;		//115200 baud
    1c0e:	88 e0       	ldi	r24, 0x08	; 8
    1c10:	90 e0       	ldi	r25, 0x00	; 0
    1c12:	90 93 c5 00 	sts	0x00C5, r25
    1c16:	80 93 c4 00 	sts	0x00C4, r24
		UCSR0B |= (1<<RXEN0);	//enable RX
    1c1a:	e1 ec       	ldi	r30, 0xC1	; 193
    1c1c:	f0 e0       	ldi	r31, 0x00	; 0
    1c1e:	80 81       	ld	r24, Z
    1c20:	80 61       	ori	r24, 0x10	; 16
    1c22:	80 83       	st	Z, r24
		UCSR0B |= (1<<TXEN0);	//enable TX 
    1c24:	80 81       	ld	r24, Z
    1c26:	88 60       	ori	r24, 0x08	; 8
    1c28:	80 83       	st	Z, r24
		UCSR0B |= (1<<RXCIE0);	//enable RX interrupt 
    1c2a:	80 81       	ld	r24, Z
    1c2c:	80 68       	ori	r24, 0x80	; 128
    1c2e:	80 83       	st	Z, r24
		UCSR0B |= (1<<TXCIE0);	//enable TX interrupt 
    1c30:	80 81       	ld	r24, Z
    1c32:	80 64       	ori	r24, 0x40	; 64
    1c34:	80 83       	st	Z, r24
		UCSR0C|= (1<<UCSZ00); 	//8 bits, no parity, 1 stop 
    1c36:	e2 ec       	ldi	r30, 0xC2	; 194
    1c38:	f0 e0       	ldi	r31, 0x00	; 0
    1c3a:	80 81       	ld	r24, Z
    1c3c:	82 60       	ori	r24, 0x02	; 2
    1c3e:	80 83       	st	Z, r24
		UCSR0C|= (1<<UCSZ01); 
    1c40:	80 81       	ld	r24, Z
    1c42:	84 60       	ori	r24, 0x04	; 4
    1c44:	80 83       	st	Z, r24
		UCSR1B |= (1<<RXCIE1);	//enable RX interrupt 
		UCSR1C|= (1<<UCSZ10); 	//8 bits, no parity, 1 stop 
		UCSR1C|= (1<<UCSZ11);  
	#endif
		
	trame_uart.param[PARAM_0] = 0;
    1c46:	10 92 ec 02 	sts	0x02EC, r1
    1c4a:	10 92 eb 02 	sts	0x02EB, r1
	trame_uart.param[PARAM_1] = 0;
    1c4e:	10 92 ee 02 	sts	0x02EE, r1
    1c52:	10 92 ed 02 	sts	0x02ED, r1
	trame_uart.param[PARAM_2] = 0;			
    1c56:	10 92 f0 02 	sts	0x02F0, r1
    1c5a:	10 92 ef 02 	sts	0x02EF, r1
	trame_uart.param[PARAM_3] = 0;
    1c5e:	10 92 f2 02 	sts	0x02F2, r1
    1c62:	10 92 f1 02 	sts	0x02F1, r1
	trame_uart.param[PARAM_4] = 0;
    1c66:	10 92 f4 02 	sts	0x02F4, r1
    1c6a:	10 92 f3 02 	sts	0x02F3, r1
}
    1c6e:	08 95       	ret

00001c70 <DrvUart0ReadMessage>:

//on recupere le message
void DrvUart0ReadMessage( STrame *trame )
{
    1c70:	fc 01       	movw	r30, r24
	trame->param[PARAM_0] = trame_uart.param[PARAM_0] ;
    1c72:	80 91 eb 02 	lds	r24, 0x02EB
    1c76:	90 91 ec 02 	lds	r25, 0x02EC
    1c7a:	91 83       	std	Z+1, r25	; 0x01
    1c7c:	80 83       	st	Z, r24
	trame->param[PARAM_1] = trame_uart.param[PARAM_1] ;
    1c7e:	80 91 ed 02 	lds	r24, 0x02ED
    1c82:	90 91 ee 02 	lds	r25, 0x02EE
    1c86:	93 83       	std	Z+3, r25	; 0x03
    1c88:	82 83       	std	Z+2, r24	; 0x02
	trame->param[PARAM_2] = trame_uart.param[PARAM_2] ;
    1c8a:	80 91 ef 02 	lds	r24, 0x02EF
    1c8e:	90 91 f0 02 	lds	r25, 0x02F0
    1c92:	95 83       	std	Z+5, r25	; 0x05
    1c94:	84 83       	std	Z+4, r24	; 0x04
	trame->param[PARAM_3] = trame_uart.param[PARAM_3] ;
    1c96:	80 91 f1 02 	lds	r24, 0x02F1
    1c9a:	90 91 f2 02 	lds	r25, 0x02F2
    1c9e:	97 83       	std	Z+7, r25	; 0x07
    1ca0:	86 83       	std	Z+6, r24	; 0x06
	trame->param[PARAM_4] = trame_uart.param[PARAM_4] ;
    1ca2:	80 91 f3 02 	lds	r24, 0x02F3
    1ca6:	90 91 f4 02 	lds	r25, 0x02F4
    1caa:	91 87       	std	Z+9, r25	; 0x09
    1cac:	80 87       	std	Z+8, r24	; 0x08
		
	trame_uart.param[PARAM_0] = 0;
    1cae:	10 92 ec 02 	sts	0x02EC, r1
    1cb2:	10 92 eb 02 	sts	0x02EB, r1
	trame_uart.param[PARAM_1] = 0;
    1cb6:	10 92 ee 02 	sts	0x02EE, r1
    1cba:	10 92 ed 02 	sts	0x02ED, r1
	trame_uart.param[PARAM_2] = 0;			
    1cbe:	10 92 f0 02 	sts	0x02F0, r1
    1cc2:	10 92 ef 02 	sts	0x02EF, r1
	trame_uart.param[PARAM_3] = 0;
    1cc6:	10 92 f2 02 	sts	0x02F2, r1
    1cca:	10 92 f1 02 	sts	0x02F1, r1
	trame_uart.param[PARAM_4] = 0;
    1cce:	10 92 f4 02 	sts	0x02F4, r1
    1cd2:	10 92 f3 02 	sts	0x02F3, r1
}
    1cd6:	08 95       	ret

00001cd8 <DrvUart0SendMessage>:
//on recupere le message
void DrvUart0SendMessage( Char *i_message, Int8U i_message_len )
{
	//on enregistre le message 
	for ( Int8U loop_send = in_message_len_0 ; loop_send < i_message_len ; loop_send++)
    1cd8:	40 91 99 01 	lds	r20, 0x0199
    1cdc:	46 17       	cp	r20, r22
    1cde:	68 f4       	brcc	.+26     	; 0x1cfa <DrvUart0SendMessage+0x22>
	{
		in_message_0[loop_send] = i_message[loop_send];
    1ce0:	24 2f       	mov	r18, r20
    1ce2:	30 e0       	ldi	r19, 0x00	; 0
    1ce4:	fc 01       	movw	r30, r24
    1ce6:	e2 0f       	add	r30, r18
    1ce8:	f3 1f       	adc	r31, r19
    1cea:	50 81       	ld	r21, Z
    1cec:	2b 50       	subi	r18, 0x0B	; 11
    1cee:	3d 4f       	sbci	r19, 0xFD	; 253
    1cf0:	f9 01       	movw	r30, r18
    1cf2:	50 83       	st	Z, r21
}
//on recupere le message
void DrvUart0SendMessage( Char *i_message, Int8U i_message_len )
{
	//on enregistre le message 
	for ( Int8U loop_send = in_message_len_0 ; loop_send < i_message_len ; loop_send++)
    1cf4:	4f 5f       	subi	r20, 0xFF	; 255
    1cf6:	46 17       	cp	r20, r22
    1cf8:	98 f3       	brcs	.-26     	; 0x1ce0 <DrvUart0SendMessage+0x8>
	{
		in_message_0[loop_send] = i_message[loop_send];
	} 
	
	in_message_len_0 += i_message_len ;
    1cfa:	80 91 99 01 	lds	r24, 0x0199
    1cfe:	86 0f       	add	r24, r22
    1d00:	80 93 99 01 	sts	0x0199, r24
	in_message_0[in_message_len_0] = 0U;
    1d04:	e0 91 99 01 	lds	r30, 0x0199
    1d08:	f0 e0       	ldi	r31, 0x00	; 0
    1d0a:	eb 50       	subi	r30, 0x0B	; 11
    1d0c:	fd 4f       	sbci	r31, 0xFD	; 253
    1d0e:	10 82       	st	Z, r1
	//premier message de la pile
	if(i_message_len == in_message_len_0)
    1d10:	80 91 99 01 	lds	r24, 0x0199
    1d14:	68 13       	cpse	r22, r24
    1d16:	08 95       	ret
	{
		//on envoie le premier caractere
		while ( !( UCSR0A & (1<<UDRE0)) );
    1d18:	80 91 c0 00 	lds	r24, 0x00C0
    1d1c:	85 ff       	sbrs	r24, 5
    1d1e:	fc cf       	rjmp	.-8      	; 0x1d18 <DrvUart0SendMessage+0x40>
		UDR0 = in_message_0[ 0U ];
    1d20:	80 91 f5 02 	lds	r24, 0x02F5
    1d24:	80 93 c6 00 	sts	0x00C6, r24
		in_message_sent = 1U;
    1d28:	81 e0       	ldi	r24, 0x01	; 1
    1d2a:	80 93 98 01 	sts	0x0198, r24
    1d2e:	08 95       	ret

00001d30 <DrvUart0SendDirectMessage>:
}
//on recupere le message
void DrvUart0SendDirectMessage( Char *i_message, Int8U i_message_len )
{
	//on enregistre le message
	for ( Int8U loop_send = 0U ; loop_send < i_message_len ; loop_send++)
    1d30:	66 23       	and	r22, r22
    1d32:	69 f0       	breq	.+26     	; 0x1d4e <DrvUart0SendDirectMessage+0x1e>
    1d34:	e8 2f       	mov	r30, r24
    1d36:	f9 2f       	mov	r31, r25
    1d38:	90 e0       	ldi	r25, 0x00	; 0
	{
		while ( !( UCSR0A & (1<<UDRE0)) );
    1d3a:	80 91 c0 00 	lds	r24, 0x00C0
    1d3e:	85 ff       	sbrs	r24, 5
    1d40:	fc cf       	rjmp	.-8      	; 0x1d3a <DrvUart0SendDirectMessage+0xa>
		UDR0 = i_message[ loop_send ];
    1d42:	81 91       	ld	r24, Z+
    1d44:	80 93 c6 00 	sts	0x00C6, r24
}
//on recupere le message
void DrvUart0SendDirectMessage( Char *i_message, Int8U i_message_len )
{
	//on enregistre le message
	for ( Int8U loop_send = 0U ; loop_send < i_message_len ; loop_send++)
    1d48:	9f 5f       	subi	r25, 0xFF	; 255
    1d4a:	96 17       	cp	r25, r22
    1d4c:	b0 f3       	brcs	.-20     	; 0x1d3a <DrvUart0SendDirectMessage+0xa>
    1d4e:	08 95       	ret

00001d50 <__vector_18>:
volatile Int8U decade = 1U;
volatile Int8U index_param = 0U;
volatile Char rcv_byte = 0U;
volatile Char last_rcv_byte = 0U;
ISR(USART_RX_vect)
{
    1d50:	1f 92       	push	r1
    1d52:	0f 92       	push	r0
    1d54:	0f b6       	in	r0, 0x3f	; 63
    1d56:	0f 92       	push	r0
    1d58:	11 24       	eor	r1, r1
    1d5a:	2f 93       	push	r18
    1d5c:	3f 93       	push	r19
    1d5e:	4f 93       	push	r20
    1d60:	5f 93       	push	r21
    1d62:	6f 93       	push	r22
    1d64:	7f 93       	push	r23
    1d66:	8f 93       	push	r24
    1d68:	9f 93       	push	r25
    1d6a:	af 93       	push	r26
    1d6c:	bf 93       	push	r27
    1d6e:	ef 93       	push	r30
    1d70:	ff 93       	push	r31
	//on enregistre l'octet recu
	rcv_byte = UDR0;
    1d72:	80 91 c6 00 	lds	r24, 0x00C6
    1d76:	80 93 9d 01 	sts	0x019D, r24
	//si on a deja recu le start frame
	if( start_frame_uart_0 == FALSE )
    1d7a:	80 91 9b 01 	lds	r24, 0x019B
    1d7e:	88 23       	and	r24, r24
    1d80:	b1 f4       	brne	.+44     	; 0x1dae <__vector_18+0x5e>
    {
		//si c'est un debut de trame
		if(rcv_byte == '*' )
    1d82:	80 91 9d 01 	lds	r24, 0x019D
    1d86:	8a 32       	cpi	r24, 0x2A	; 42
    1d88:	09 f4       	brne	.+2      	; 0x1d8c <__vector_18+0x3c>
    1d8a:	72 c0       	rjmp	.+228    	; 0x1e70 <__vector_18+0x120>
					}
				}
			}				
		}		
	}	
}	
    1d8c:	ff 91       	pop	r31
    1d8e:	ef 91       	pop	r30
    1d90:	bf 91       	pop	r27
    1d92:	af 91       	pop	r26
    1d94:	9f 91       	pop	r25
    1d96:	8f 91       	pop	r24
    1d98:	7f 91       	pop	r23
    1d9a:	6f 91       	pop	r22
    1d9c:	5f 91       	pop	r21
    1d9e:	4f 91       	pop	r20
    1da0:	3f 91       	pop	r19
    1da2:	2f 91       	pop	r18
    1da4:	0f 90       	pop	r0
    1da6:	0f be       	out	0x3f, r0	; 63
    1da8:	0f 90       	pop	r0
    1daa:	1f 90       	pop	r1
    1dac:	18 95       	reti
		}
	}
	else
	{
		//on charge le message dans le buff_uart_0
		buff_uart_0[ctr_buff_uart_0] = rcv_byte;
    1dae:	e0 91 9a 01 	lds	r30, 0x019A
    1db2:	f0 e0       	ldi	r31, 0x00	; 0
    1db4:	80 91 9d 01 	lds	r24, 0x019D
    1db8:	e9 5d       	subi	r30, 0xD9	; 217
    1dba:	fc 4f       	sbci	r31, 0xFC	; 252
    1dbc:	80 83       	st	Z, r24
		last_rcv_byte = buff_uart_0[ctr_buff_uart_0 - 1U];
    1dbe:	e0 91 9a 01 	lds	r30, 0x019A
    1dc2:	f0 e0       	ldi	r31, 0x00	; 0
    1dc4:	ea 5d       	subi	r30, 0xDA	; 218
    1dc6:	fc 4f       	sbci	r31, 0xFC	; 252
    1dc8:	80 81       	ld	r24, Z
    1dca:	80 93 9e 01 	sts	0x019E, r24
		ctr_buff_uart_0++;	
    1dce:	80 91 9a 01 	lds	r24, 0x019A
    1dd2:	8f 5f       	subi	r24, 0xFF	; 255
    1dd4:	80 93 9a 01 	sts	0x019A, r24
			
		//si fin de trame
		if(( last_rcv_byte == '#' ) && ( rcv_byte == '#' ))
    1dd8:	80 91 9e 01 	lds	r24, 0x019E
    1ddc:	83 32       	cpi	r24, 0x23	; 35
    1dde:	c1 f1       	breq	.+112    	; 0x1e50 <__vector_18+0x100>
			DrvEventAddEvent( CONF_EVENT_MSG_RCV );
		}
		else
		{
			//si on a pas recu de nouvelle '*'
			if(rcv_byte == '*' )
    1de0:	80 91 9d 01 	lds	r24, 0x019D
    1de4:	8a 32       	cpi	r24, 0x2A	; 42
    1de6:	09 f4       	brne	.+2      	; 0x1dea <__vector_18+0x9a>
    1de8:	4b c0       	rjmp	.+150    	; 0x1e80 <__vector_18+0x130>
				decade = 1U;
			}
			else
			{
				//on discossie les params
				if( last_rcv_byte == '-' )
    1dea:	80 91 9e 01 	lds	r24, 0x019E
    1dee:	8d 32       	cpi	r24, 0x2D	; 45
    1df0:	09 f4       	brne	.+2      	; 0x1df4 <__vector_18+0xa4>
    1df2:	4e c0       	rjmp	.+156    	; 0x1e90 <__vector_18+0x140>
					index_param++;
					decade = 1U;
				}
				else
				{
					if(last_rcv_byte != '*')
    1df4:	80 91 9e 01 	lds	r24, 0x019E
    1df8:	8a 32       	cpi	r24, 0x2A	; 42
    1dfa:	41 f2       	breq	.-112    	; 0x1d8c <__vector_18+0x3c>
					{
						trame_uart.param[index_param] *= decade;
    1dfc:	e0 91 9c 01 	lds	r30, 0x019C
    1e00:	f0 e0       	ldi	r31, 0x00	; 0
    1e02:	20 91 02 01 	lds	r18, 0x0102
    1e06:	ee 0f       	add	r30, r30
    1e08:	ff 1f       	adc	r31, r31
    1e0a:	e5 51       	subi	r30, 0x15	; 21
    1e0c:	fd 4f       	sbci	r31, 0xFD	; 253
    1e0e:	30 e0       	ldi	r19, 0x00	; 0
    1e10:	40 81       	ld	r20, Z
    1e12:	51 81       	ldd	r21, Z+1	; 0x01
    1e14:	42 9f       	mul	r20, r18
    1e16:	c0 01       	movw	r24, r0
    1e18:	43 9f       	mul	r20, r19
    1e1a:	90 0d       	add	r25, r0
    1e1c:	52 9f       	mul	r21, r18
    1e1e:	90 0d       	add	r25, r0
    1e20:	11 24       	eor	r1, r1
    1e22:	91 83       	std	Z+1, r25	; 0x01
    1e24:	80 83       	st	Z, r24
						trame_uart.param[index_param] += (last_rcv_byte - 0x30U);
    1e26:	e0 91 9c 01 	lds	r30, 0x019C
    1e2a:	f0 e0       	ldi	r31, 0x00	; 0
    1e2c:	80 91 9e 01 	lds	r24, 0x019E
    1e30:	ee 0f       	add	r30, r30
    1e32:	ff 1f       	adc	r31, r31
    1e34:	e5 51       	subi	r30, 0x15	; 21
    1e36:	fd 4f       	sbci	r31, 0xFD	; 253
    1e38:	90 e0       	ldi	r25, 0x00	; 0
    1e3a:	c0 97       	sbiw	r24, 0x30	; 48
    1e3c:	20 81       	ld	r18, Z
    1e3e:	31 81       	ldd	r19, Z+1	; 0x01
    1e40:	82 0f       	add	r24, r18
    1e42:	93 1f       	adc	r25, r19
    1e44:	91 83       	std	Z+1, r25	; 0x01
    1e46:	80 83       	st	Z, r24
						decade = 10U;
    1e48:	8a e0       	ldi	r24, 0x0A	; 10
    1e4a:	80 93 02 01 	sts	0x0102, r24
    1e4e:	9e cf       	rjmp	.-196    	; 0x1d8c <__vector_18+0x3c>
		buff_uart_0[ctr_buff_uart_0] = rcv_byte;
		last_rcv_byte = buff_uart_0[ctr_buff_uart_0 - 1U];
		ctr_buff_uart_0++;	
			
		//si fin de trame
		if(( last_rcv_byte == '#' ) && ( rcv_byte == '#' ))
    1e50:	80 91 9d 01 	lds	r24, 0x019D
    1e54:	83 32       	cpi	r24, 0x23	; 35
    1e56:	21 f6       	brne	.-120    	; 0x1de0 <__vector_18+0x90>
		{
			//on attend le start frame
			start_frame_uart_0 = FALSE;
    1e58:	10 92 9b 01 	sts	0x019B, r1
			index_param = 0;
    1e5c:	10 92 9c 01 	sts	0x019C, r1
			decade = 1U;
    1e60:	81 e0       	ldi	r24, 0x01	; 1
    1e62:	80 93 02 01 	sts	0x0102, r24
			//on lance l'event
			DrvEventAddEvent( CONF_EVENT_MSG_RCV );
    1e66:	80 e2       	ldi	r24, 0x20	; 32
    1e68:	90 e0       	ldi	r25, 0x00	; 0
    1e6a:	0e 94 d0 08 	call	0x11a0	; 0x11a0 <DrvEventAddEvent>
    1e6e:	8e cf       	rjmp	.-228    	; 0x1d8c <__vector_18+0x3c>
	if( start_frame_uart_0 == FALSE )
    {
		//si c'est un debut de trame
		if(rcv_byte == '*' )
		{
			buff_uart_0[ 0U ] = '*';
    1e70:	80 93 27 03 	sts	0x0327, r24
			ctr_buff_uart_0 = 1U;
    1e74:	81 e0       	ldi	r24, 0x01	; 1
    1e76:	80 93 9a 01 	sts	0x019A, r24
			//on a recu le start frame
			start_frame_uart_0 = TRUE;
    1e7a:	80 93 9b 01 	sts	0x019B, r24
    1e7e:	86 cf       	rjmp	.-244    	; 0x1d8c <__vector_18+0x3c>
		{
			//si on a pas recu de nouvelle '*'
			if(rcv_byte == '*' )
			{
				//on attend le start frame
				start_frame_uart_0 = FALSE;
    1e80:	10 92 9b 01 	sts	0x019B, r1
				index_param = 0;
    1e84:	10 92 9c 01 	sts	0x019C, r1
				decade = 1U;
    1e88:	81 e0       	ldi	r24, 0x01	; 1
    1e8a:	80 93 02 01 	sts	0x0102, r24
    1e8e:	7e cf       	rjmp	.-260    	; 0x1d8c <__vector_18+0x3c>
			else
			{
				//on discossie les params
				if( last_rcv_byte == '-' )
				{
					index_param++;
    1e90:	80 91 9c 01 	lds	r24, 0x019C
    1e94:	8f 5f       	subi	r24, 0xFF	; 255
    1e96:	80 93 9c 01 	sts	0x019C, r24
					decade = 1U;
    1e9a:	81 e0       	ldi	r24, 0x01	; 1
    1e9c:	80 93 02 01 	sts	0x0102, r24
    1ea0:	75 cf       	rjmp	.-278    	; 0x1d8c <__vector_18+0x3c>

00001ea2 <__vector_20>:
}	
#endif

//ISR uart octet envoyé 
ISR(USART_TX_vect)
{
    1ea2:	1f 92       	push	r1
    1ea4:	0f 92       	push	r0
    1ea6:	0f b6       	in	r0, 0x3f	; 63
    1ea8:	0f 92       	push	r0
    1eaa:	11 24       	eor	r1, r1
    1eac:	8f 93       	push	r24
    1eae:	9f 93       	push	r25
    1eb0:	ef 93       	push	r30
    1eb2:	ff 93       	push	r31
	if( in_message_len_0 > 0U)
    1eb4:	80 91 99 01 	lds	r24, 0x0199
    1eb8:	88 23       	and	r24, r24
    1eba:	69 f4       	brne	.+26     	; 0x1ed6 <__vector_20+0x34>
		UDR0 = in_message_0[in_message_sent++];
		in_message_len_0--;
	}
	else
	{
		in_message_len_0 = 0;
    1ebc:	10 92 99 01 	sts	0x0199, r1
		in_message_sent= 0;
    1ec0:	10 92 98 01 	sts	0x0198, r1
	}
}	
    1ec4:	ff 91       	pop	r31
    1ec6:	ef 91       	pop	r30
    1ec8:	9f 91       	pop	r25
    1eca:	8f 91       	pop	r24
    1ecc:	0f 90       	pop	r0
    1ece:	0f be       	out	0x3f, r0	; 63
    1ed0:	0f 90       	pop	r0
    1ed2:	1f 90       	pop	r1
    1ed4:	18 95       	reti
//ISR uart octet envoyé 
ISR(USART_TX_vect)
{
	if( in_message_len_0 > 0U)
	{
		UDR0 = in_message_0[in_message_sent++];
    1ed6:	80 91 98 01 	lds	r24, 0x0198
    1eda:	e8 2f       	mov	r30, r24
    1edc:	f0 e0       	ldi	r31, 0x00	; 0
    1ede:	eb 50       	subi	r30, 0x0B	; 11
    1ee0:	fd 4f       	sbci	r31, 0xFD	; 253
    1ee2:	90 81       	ld	r25, Z
    1ee4:	90 93 c6 00 	sts	0x00C6, r25
    1ee8:	8f 5f       	subi	r24, 0xFF	; 255
    1eea:	80 93 98 01 	sts	0x0198, r24
		in_message_len_0--;
    1eee:	80 91 99 01 	lds	r24, 0x0199
    1ef2:	81 50       	subi	r24, 0x01	; 1
    1ef4:	80 93 99 01 	sts	0x0199, r24
    1ef8:	e5 cf       	rjmp	.-54     	; 0x1ec4 <__vector_20+0x22>

00001efa <SrvCommInit>:
/************************************************************************/
/*init de la communication                                              */
/************************************************************************/
Boolean SrvCommInit (void) 
{
	ma_trame_comm.param[PARAM_0] = 0U;
    1efa:	10 92 a0 01 	sts	0x01A0, r1
    1efe:	10 92 9f 01 	sts	0x019F, r1
	ma_trame_comm.param[PARAM_1] = 0U;
    1f02:	10 92 a2 01 	sts	0x01A2, r1
    1f06:	10 92 a1 01 	sts	0x01A1, r1
	ma_trame_comm.param[PARAM_2] = 0U;
    1f0a:	10 92 a4 01 	sts	0x01A4, r1
    1f0e:	10 92 a3 01 	sts	0x01A3, r1
	ma_trame_comm.param[PARAM_3] = 0U;
    1f12:	10 92 a6 01 	sts	0x01A6, r1
    1f16:	10 92 a5 01 	sts	0x01A5, r1
	ma_trame_comm.param[PARAM_4] = 0U;
    1f1a:	10 92 a8 01 	sts	0x01A8, r1
    1f1e:	10 92 a7 01 	sts	0x01A7, r1
	return TRUE;
}	
    1f22:	81 e0       	ldi	r24, 0x01	; 1
    1f24:	08 95       	ret

00001f26 <SrvCommDispatcher>:

/************************************************************************/
/*dispatcher d'evenements                                               */
/************************************************************************/
void SrvCommDispatcher (Event_t in_event) 
{
    1f26:	2f 92       	push	r2
    1f28:	3f 92       	push	r3
    1f2a:	4f 92       	push	r4
    1f2c:	5f 92       	push	r5
    1f2e:	6f 92       	push	r6
    1f30:	7f 92       	push	r7
    1f32:	8f 92       	push	r8
    1f34:	9f 92       	push	r9
    1f36:	af 92       	push	r10
    1f38:	bf 92       	push	r11
    1f3a:	cf 92       	push	r12
    1f3c:	df 92       	push	r13
    1f3e:	ef 92       	push	r14
    1f40:	ff 92       	push	r15
    1f42:	0f 93       	push	r16
    1f44:	1f 93       	push	r17
    1f46:	df 93       	push	r29
    1f48:	cf 93       	push	r28
    1f4a:	cd b7       	in	r28, 0x3d	; 61
    1f4c:	de b7       	in	r29, 0x3e	; 62
    1f4e:	a4 97       	sbiw	r28, 0x24	; 36
    1f50:	0f b6       	in	r0, 0x3f	; 63
    1f52:	f8 94       	cli
    1f54:	de bf       	out	0x3e, r29	; 62
    1f56:	0f be       	out	0x3f, r0	; 63
    1f58:	cd bf       	out	0x3d, r28	; 61
    1f5a:	8c 01       	movw	r16, r24
	if( DrvEventTestEvent(in_event, CONF_EVENT_MSG_RCV))
    1f5c:	60 e2       	ldi	r22, 0x20	; 32
    1f5e:	0e 94 c7 08 	call	0x118e	; 0x118e <DrvEventTestEvent>
    1f62:	88 23       	and	r24, r24
    1f64:	09 f0       	breq	.+2      	; 0x1f68 <SrvCommDispatcher+0x42>
    1f66:	90 c0       	rjmp	.+288    	; 0x2088 <SrvCommDispatcher+0x162>
		DrvUart0ReadMessage(&ma_trame_comm);
		//dispatche trame
		SrvCommExecute();
	}
	
	if( DrvEventTestEvent(in_event, CONF_EVENT_TIMER_100MS))
    1f68:	c8 01       	movw	r24, r16
    1f6a:	62 e0       	ldi	r22, 0x02	; 2
    1f6c:	0e 94 c7 08 	call	0x118e	; 0x118e <DrvEventTestEvent>
    1f70:	88 23       	and	r24, r24
    1f72:	09 f4       	brne	.+2      	; 0x1f76 <SrvCommDispatcher+0x50>
    1f74:	70 c0       	rjmp	.+224    	; 0x2056 <SrvCommDispatcher+0x130>
static void SrvCommRepportData( void )
{
	Char o_message[ 30U ];
	Int8U lenght = 0;
	
	lenght = sprintf(	o_message	
    1f76:	e0 90 bd 02 	lds	r14, 0x02BD
    1f7a:	f0 90 be 02 	lds	r15, 0x02BE
    1f7e:	c0 90 bf 02 	lds	r12, 0x02BF
    1f82:	d0 90 c0 02 	lds	r13, 0x02C0
    1f86:	a0 90 c1 02 	lds	r10, 0x02C1
    1f8a:	b0 90 c2 02 	lds	r11, 0x02C2
    1f8e:	80 90 c5 02 	lds	r8, 0x02C5
    1f92:	90 90 c6 02 	lds	r9, 0x02C6
    1f96:	60 90 cc 02 	lds	r6, 0x02CC
    1f9a:	70 90 cd 02 	lds	r7, 0x02CD
    1f9e:	40 90 d0 02 	lds	r4, 0x02D0
    1fa2:	50 90 d1 02 	lds	r5, 0x02D1
    1fa6:	20 90 72 01 	lds	r2, 0x0172
    1faa:	30 90 73 01 	lds	r3, 0x0173
    1fae:	40 91 74 01 	lds	r20, 0x0174
    1fb2:	50 91 75 01 	lds	r21, 0x0175
    1fb6:	60 91 76 01 	lds	r22, 0x0176
    1fba:	70 91 77 01 	lds	r23, 0x0177
    1fbe:	80 91 78 01 	lds	r24, 0x0178
    1fc2:	90 91 79 01 	lds	r25, 0x0179
    1fc6:	98 a3       	std	Y+32, r25	; 0x20
    1fc8:	8f 8f       	std	Y+31, r24	; 0x1f
    1fca:	49 a3       	std	Y+33, r20	; 0x21
    1fcc:	5a a3       	std	Y+34, r21	; 0x22
    1fce:	6b a3       	std	Y+35, r22	; 0x23
    1fd0:	7c a3       	std	Y+36, r23	; 0x24
    1fd2:	0e 94 c3 20 	call	0x4186	; 0x4186 <SrvMotorGetSpeed>
    1fd6:	ad b7       	in	r26, 0x3d	; 61
    1fd8:	be b7       	in	r27, 0x3e	; 62
    1fda:	5a 97       	sbiw	r26, 0x1a	; 26
    1fdc:	0f b6       	in	r0, 0x3f	; 63
    1fde:	f8 94       	cli
    1fe0:	be bf       	out	0x3e, r27	; 62
    1fe2:	0f be       	out	0x3f, r0	; 63
    1fe4:	ad bf       	out	0x3d, r26	; 61
    1fe6:	ed b7       	in	r30, 0x3d	; 61
    1fe8:	fe b7       	in	r31, 0x3e	; 62
    1fea:	31 96       	adiw	r30, 0x01	; 1
    1fec:	8e 01       	movw	r16, r28
    1fee:	0f 5f       	subi	r16, 0xFF	; 255
    1ff0:	1f 4f       	sbci	r17, 0xFF	; 255
    1ff2:	12 96       	adiw	r26, 0x02	; 2
    1ff4:	1c 93       	st	X, r17
    1ff6:	0e 93       	st	-X, r16
    1ff8:	11 97       	sbiw	r26, 0x01	; 1
    1ffa:	23 e0       	ldi	r18, 0x03	; 3
    1ffc:	31 e0       	ldi	r19, 0x01	; 1
    1ffe:	33 83       	std	Z+3, r19	; 0x03
    2000:	22 83       	std	Z+2, r18	; 0x02
    2002:	f5 82       	std	Z+5, r15	; 0x05
    2004:	e4 82       	std	Z+4, r14	; 0x04
    2006:	d7 82       	std	Z+7, r13	; 0x07
    2008:	c6 82       	std	Z+6, r12	; 0x06
    200a:	b1 86       	std	Z+9, r11	; 0x09
    200c:	a0 86       	std	Z+8, r10	; 0x08
    200e:	93 86       	std	Z+11, r9	; 0x0b
    2010:	82 86       	std	Z+10, r8	; 0x0a
    2012:	75 86       	std	Z+13, r7	; 0x0d
    2014:	64 86       	std	Z+12, r6	; 0x0c
    2016:	57 86       	std	Z+15, r5	; 0x0f
    2018:	46 86       	std	Z+14, r4	; 0x0e
    201a:	31 8a       	std	Z+17, r3	; 0x11
    201c:	20 8a       	std	Z+16, r2	; 0x10
    201e:	49 a1       	ldd	r20, Y+33	; 0x21
    2020:	5a a1       	ldd	r21, Y+34	; 0x22
    2022:	53 8b       	std	Z+19, r21	; 0x13
    2024:	42 8b       	std	Z+18, r20	; 0x12
    2026:	6b a1       	ldd	r22, Y+35	; 0x23
    2028:	7c a1       	ldd	r23, Y+36	; 0x24
    202a:	75 8b       	std	Z+21, r23	; 0x15
    202c:	64 8b       	std	Z+20, r22	; 0x14
    202e:	2f 8d       	ldd	r18, Y+31	; 0x1f
    2030:	38 a1       	ldd	r19, Y+32	; 0x20
    2032:	37 8b       	std	Z+23, r19	; 0x17
    2034:	26 8b       	std	Z+22, r18	; 0x16
    2036:	91 8f       	std	Z+25, r25	; 0x19
    2038:	80 8f       	std	Z+24, r24	; 0x18
    203a:	0e 94 9c 2a 	call	0x5538	; 0x5538 <sprintf>
    203e:	68 2f       	mov	r22, r24
						,frontMotor_L	
						,rearMotor_R	
						,rearMotor_L	
						,SrvMotorGetSpeed()
					);
	DrvUart0SendMessage( o_message , lenght );
    2040:	8d b7       	in	r24, 0x3d	; 61
    2042:	9e b7       	in	r25, 0x3e	; 62
    2044:	4a 96       	adiw	r24, 0x1a	; 26
    2046:	0f b6       	in	r0, 0x3f	; 63
    2048:	f8 94       	cli
    204a:	9e bf       	out	0x3e, r25	; 62
    204c:	0f be       	out	0x3f, r0	; 63
    204e:	8d bf       	out	0x3d, r24	; 61
    2050:	c8 01       	movw	r24, r16
    2052:	0e 94 6c 0e 	call	0x1cd8	; 0x1cd8 <DrvUart0SendMessage>
	
	if( DrvEventTestEvent(in_event, CONF_EVENT_TIMER_100MS))
	{
		SrvCommRepportData();
	}
}
    2056:	a4 96       	adiw	r28, 0x24	; 36
    2058:	0f b6       	in	r0, 0x3f	; 63
    205a:	f8 94       	cli
    205c:	de bf       	out	0x3e, r29	; 62
    205e:	0f be       	out	0x3f, r0	; 63
    2060:	cd bf       	out	0x3d, r28	; 61
    2062:	cf 91       	pop	r28
    2064:	df 91       	pop	r29
    2066:	1f 91       	pop	r17
    2068:	0f 91       	pop	r16
    206a:	ff 90       	pop	r15
    206c:	ef 90       	pop	r14
    206e:	df 90       	pop	r13
    2070:	cf 90       	pop	r12
    2072:	bf 90       	pop	r11
    2074:	af 90       	pop	r10
    2076:	9f 90       	pop	r9
    2078:	8f 90       	pop	r8
    207a:	7f 90       	pop	r7
    207c:	6f 90       	pop	r6
    207e:	5f 90       	pop	r5
    2080:	4f 90       	pop	r4
    2082:	3f 90       	pop	r3
    2084:	2f 90       	pop	r2
    2086:	08 95       	ret
void SrvCommDispatcher (Event_t in_event) 
{
	if( DrvEventTestEvent(in_event, CONF_EVENT_MSG_RCV))
	{
		//reception de la trame
		DrvUart0ReadMessage(&ma_trame_comm);
    2088:	8f e9       	ldi	r24, 0x9F	; 159
    208a:	91 e0       	ldi	r25, 0x01	; 1
    208c:	0e 94 38 0e 	call	0x1c70	; 0x1c70 <DrvUart0ReadMessage>
/************************************************************************/
/*execute message entrant                                               */
/************************************************************************/
static void SrvCommExecute ( void )
{
	if(ma_trame_comm.param[PARAM_0] == COMM_MOTOR )
    2090:	80 91 9f 01 	lds	r24, 0x019F
    2094:	90 91 a0 01 	lds	r25, 0x01A0
    2098:	00 97       	sbiw	r24, 0x00	; 0
    209a:	c9 f0       	breq	.+50     	; 0x20ce <SrvCommDispatcher+0x1a8>
		{
			//applique la vitesse au moteurs
			SrvMotorApplyAbsoluteSpeed(ma_trame_comm.param[PARAM_1]);
		}
	}
	else if(ma_trame_comm.param[PARAM_0] == COMM_ANGLE )
    209c:	81 30       	cpi	r24, 0x01	; 1
    209e:	91 05       	cpc	r25, r1
    20a0:	11 f1       	breq	.+68     	; 0x20e6 <SrvCommDispatcher+0x1c0>
		//applique les angle souhaité
		imu_desire.roulis = ma_trame_comm.param[PARAM_1];
		imu_desire.tangage = -1*ma_trame_comm.param[PARAM_2];
		imu_desire.lacet = ma_trame_comm.param[PARAM_3];
	}
	else if(ma_trame_comm.param[PARAM_0] == COMM_ALTITUDE )
    20a2:	82 30       	cpi	r24, 0x02	; 2
    20a4:	91 05       	cpc	r25, r1
    20a6:	d9 f1       	breq	.+118    	; 0x211e <SrvCommDispatcher+0x1f8>
		SrvImuSensorsSetAltitudeDepart();
		
		//on enregistre l'altitude relative a la position de depart
		SrvImuSensorsSetAltitudeMaintient(ma_trame_comm.param[PARAM_1]);
	}
	else if(ma_trame_comm.param[PARAM_0] == COMM_PID )
    20a8:	83 30       	cpi	r24, 0x03	; 3
    20aa:	91 05       	cpc	r25, r1
    20ac:	09 f4       	brne	.+2      	; 0x20b0 <SrvCommDispatcher+0x18a>
    20ae:	5c cf       	rjmp	.-328    	; 0x1f68 <SrvCommDispatcher+0x42>
	{
		
	}
	else if(ma_trame_comm.param[PARAM_0] == COMM_EEPROM )
    20b0:	84 30       	cpi	r24, 0x04	; 4
    20b2:	91 05       	cpc	r25, r1
    20b4:	09 f0       	breq	.+2      	; 0x20b8 <SrvCommDispatcher+0x192>
    20b6:	58 cf       	rjmp	.-336    	; 0x1f68 <SrvCommDispatcher+0x42>
	{
		if( ma_trame_comm.param[PARAM_1] == 1U)
    20b8:	80 91 a1 01 	lds	r24, 0x01A1
    20bc:	90 91 a2 01 	lds	r25, 0x01A2
    20c0:	81 30       	cpi	r24, 0x01	; 1
    20c2:	91 05       	cpc	r25, r1
    20c4:	99 f1       	breq	.+102    	; 0x212c <SrvCommDispatcher+0x206>
		{
			DrvEepromDeconfigure();
		}
		RESET_SOFT();
    20c6:	e0 e0       	ldi	r30, 0x00	; 0
    20c8:	f0 e0       	ldi	r31, 0x00	; 0
    20ca:	09 95       	icall
    20cc:	4d cf       	rjmp	.-358    	; 0x1f68 <SrvCommDispatcher+0x42>
static void SrvCommExecute ( void )
{
	if(ma_trame_comm.param[PARAM_0] == COMM_MOTOR )
	{ 
		//controle validité data
		if(( ma_trame_comm.param[PARAM_1] >= 0U ) && ( ma_trame_comm.param[PARAM_1] <= 1000U ))
    20ce:	80 91 a1 01 	lds	r24, 0x01A1
    20d2:	90 91 a2 01 	lds	r25, 0x01A2
    20d6:	23 e0       	ldi	r18, 0x03	; 3
    20d8:	89 3e       	cpi	r24, 0xE9	; 233
    20da:	92 07       	cpc	r25, r18
    20dc:	08 f0       	brcs	.+2      	; 0x20e0 <SrvCommDispatcher+0x1ba>
    20de:	44 cf       	rjmp	.-376    	; 0x1f68 <SrvCommDispatcher+0x42>
		{
			//applique la vitesse au moteurs
			SrvMotorApplyAbsoluteSpeed(ma_trame_comm.param[PARAM_1]);
    20e0:	0e 94 c8 20 	call	0x4190	; 0x4190 <SrvMotorApplyAbsoluteSpeed>
    20e4:	41 cf       	rjmp	.-382    	; 0x1f68 <SrvCommDispatcher+0x42>
		}
	}
	else if(ma_trame_comm.param[PARAM_0] == COMM_ANGLE )
	{ 
		//applique les angle souhaité
		imu_desire.roulis = ma_trame_comm.param[PARAM_1];
    20e6:	80 91 a1 01 	lds	r24, 0x01A1
    20ea:	90 91 a2 01 	lds	r25, 0x01A2
    20ee:	90 93 d9 02 	sts	0x02D9, r25
    20f2:	80 93 d8 02 	sts	0x02D8, r24
		imu_desire.tangage = -1*ma_trame_comm.param[PARAM_2];
    20f6:	80 91 a3 01 	lds	r24, 0x01A3
    20fa:	90 91 a4 01 	lds	r25, 0x01A4
    20fe:	90 95       	com	r25
    2100:	81 95       	neg	r24
    2102:	9f 4f       	sbci	r25, 0xFF	; 255
    2104:	90 93 db 02 	sts	0x02DB, r25
    2108:	80 93 da 02 	sts	0x02DA, r24
		imu_desire.lacet = ma_trame_comm.param[PARAM_3];
    210c:	80 91 a5 01 	lds	r24, 0x01A5
    2110:	90 91 a6 01 	lds	r25, 0x01A6
    2114:	90 93 dd 02 	sts	0x02DD, r25
    2118:	80 93 dc 02 	sts	0x02DC, r24
    211c:	25 cf       	rjmp	.-438    	; 0x1f68 <SrvCommDispatcher+0x42>
	}
	else if(ma_trame_comm.param[PARAM_0] == COMM_ALTITUDE )
	{ 
		//on enregistre l'altitude de depart
		SrvImuSensorsSetAltitudeDepart();
    211e:	0e 94 d0 15 	call	0x2ba0	; 0x2ba0 <SrvImuSensorsSetAltitudeDepart>
		
		//on enregistre l'altitude relative a la position de depart
		SrvImuSensorsSetAltitudeMaintient(ma_trame_comm.param[PARAM_1]);
    2122:	80 91 a1 01 	lds	r24, 0x01A1
    2126:	0e 94 d9 15 	call	0x2bb2	; 0x2bb2 <SrvImuSensorsSetAltitudeMaintient>
    212a:	1e cf       	rjmp	.-452    	; 0x1f68 <SrvCommDispatcher+0x42>
	}
	else if(ma_trame_comm.param[PARAM_0] == COMM_EEPROM )
	{
		if( ma_trame_comm.param[PARAM_1] == 1U)
		{
			DrvEepromDeconfigure();
    212c:	0e 94 ea 06 	call	0xdd4	; 0xdd4 <DrvEepromDeconfigure>
    2130:	ca cf       	rjmp	.-108    	; 0x20c6 <SrvCommDispatcher+0x1a0>

00002132 <SrvImuInit>:
/*Initialisation des composants                                         */
/************************************************************************/
Boolean SrvImuInit( void )
{
	//init des variables privées
	accXangle = 0;
    2132:	80 e0       	ldi	r24, 0x00	; 0
    2134:	90 e0       	ldi	r25, 0x00	; 0
    2136:	dc 01       	movw	r26, r24
    2138:	80 93 b8 01 	sts	0x01B8, r24
    213c:	90 93 b9 01 	sts	0x01B9, r25
    2140:	a0 93 ba 01 	sts	0x01BA, r26
    2144:	b0 93 bb 01 	sts	0x01BB, r27
	accYangle = 0;
    2148:	80 93 c0 01 	sts	0x01C0, r24
    214c:	90 93 c1 01 	sts	0x01C1, r25
    2150:	a0 93 c2 01 	sts	0x01C2, r26
    2154:	b0 93 c3 01 	sts	0x01C3, r27
	accZangle = 0;
    2158:	80 93 ce 01 	sts	0x01CE, r24
    215c:	90 93 cf 01 	sts	0x01CF, r25
    2160:	a0 93 d0 01 	sts	0x01D0, r26
    2164:	b0 93 d1 01 	sts	0x01D1, r27
	gyroXAngle = 0;
    2168:	80 93 bc 01 	sts	0x01BC, r24
    216c:	90 93 bd 01 	sts	0x01BD, r25
    2170:	a0 93 be 01 	sts	0x01BE, r26
    2174:	b0 93 bf 01 	sts	0x01BF, r27
	gyroYAngle = 0;
    2178:	80 93 c4 01 	sts	0x01C4, r24
    217c:	90 93 c5 01 	sts	0x01C5, r25
    2180:	a0 93 c6 01 	sts	0x01C6, r26
    2184:	b0 93 c7 01 	sts	0x01C7, r27
	gyroZAngle = 0;
    2188:	80 93 c8 01 	sts	0x01C8, r24
    218c:	90 93 c9 01 	sts	0x01C9, r25
    2190:	a0 93 ca 01 	sts	0x01CA, r26
    2194:	b0 93 cb 01 	sts	0x01CB, r27
	temp_actuel = 0;
    2198:	10 92 ac 01 	sts	0x01AC, r1
    219c:	10 92 ad 01 	sts	0x01AD, r1
    21a0:	10 92 ae 01 	sts	0x01AE, r1
    21a4:	10 92 af 01 	sts	0x01AF, r1
	temp_dernier_cycle = 0;
    21a8:	10 92 b0 01 	sts	0x01B0, r1
    21ac:	10 92 b1 01 	sts	0x01B1, r1
    21b0:	10 92 b2 01 	sts	0x01B2, r1
    21b4:	10 92 b3 01 	sts	0x01B3, r1
	temp_max_cycle = 0;
    21b8:	10 92 b4 01 	sts	0x01B4, r1
    21bc:	10 92 b5 01 	sts	0x01B5, r1
    21c0:	10 92 b6 01 	sts	0x01B6, r1
    21c4:	10 92 b7 01 	sts	0x01B7, r1
	direction = 0;
    21c8:	10 92 cd 01 	sts	0x01CD, r1
    21cc:	10 92 cc 01 	sts	0x01CC, r1
	altitude_depart = 0;
    21d0:	10 92 ab 01 	sts	0x01AB, r1
    21d4:	10 92 aa 01 	sts	0x01AA, r1
	altitude = 0;
    21d8:	10 92 d2 01 	sts	0x01D2, r1
    21dc:	10 92 d3 01 	sts	0x01D3, r1
    21e0:	10 92 d4 01 	sts	0x01D4, r1
    21e4:	10 92 d5 01 	sts	0x01D5, r1
	alti_moy = 0U;
    21e8:	10 92 d6 01 	sts	0x01D6, r1
    21ec:	10 92 d7 01 	sts	0x01D7, r1
    21f0:	10 92 d8 01 	sts	0x01D8, r1
    21f4:	10 92 d9 01 	sts	0x01D9, r1
	pid_erreur_roulis = 0;
    21f8:	10 92 cd 02 	sts	0x02CD, r1
    21fc:	10 92 cc 02 	sts	0x02CC, r1
	pid_erreur_tangage = 0;
    2200:	10 92 d1 02 	sts	0x02D1, r1
    2204:	10 92 d0 02 	sts	0x02D0, r1
	pid_erreur_lacet = 0;
    2208:	10 92 bc 02 	sts	0x02BC, r1
    220c:	10 92 bb 02 	sts	0x02BB, r1
	pid_erreur_altitude = 0;
    2210:	10 92 cf 02 	sts	0x02CF, r1
    2214:	10 92 ce 02 	sts	0x02CE, r1
	wait_alt = 0U;
    2218:	10 92 a9 01 	sts	0x01A9, r1
	
	//init des composants	
	CmpHMC5883Init();
    221c:	0e 94 62 04 	call	0x8c4	; 0x8c4 <CmpHMC5883Init>
	CmpBMA180Init();
    2220:	0e 94 ba 00 	call	0x174	; 0x174 <CmpBMA180Init>
	CmpITG3205Init();
    2224:	0e 94 e8 04 	call	0x9d0	; 0x9d0 <CmpITG3205Init>
	CmpBMP085Init();
    2228:	0e 94 07 02 	call	0x40e	; 0x40e <CmpBMP085Init>
	
	CmpBMP085StartCapture();
    222c:	0e 94 54 04 	call	0x8a8	; 0x8a8 <CmpBMP085StartCapture>
	return TRUE;
}
    2230:	81 e0       	ldi	r24, 0x01	; 1
    2232:	08 95       	ret

00002234 <SrvImuDispatcher>:

/************************************************************************/
/*Dispatcher d'evenements                                               */
/************************************************************************/
void SrvImuDispatcher (Event_t in_event)
{
    2234:	2f 92       	push	r2
    2236:	3f 92       	push	r3
    2238:	4f 92       	push	r4
    223a:	5f 92       	push	r5
    223c:	6f 92       	push	r6
    223e:	7f 92       	push	r7
    2240:	8f 92       	push	r8
    2242:	9f 92       	push	r9
    2244:	af 92       	push	r10
    2246:	bf 92       	push	r11
    2248:	cf 92       	push	r12
    224a:	df 92       	push	r13
    224c:	ef 92       	push	r14
    224e:	ff 92       	push	r15
    2250:	0f 93       	push	r16
    2252:	1f 93       	push	r17
    2254:	df 93       	push	r29
    2256:	cf 93       	push	r28
    2258:	cd b7       	in	r28, 0x3d	; 61
    225a:	de b7       	in	r29, 0x3e	; 62
    225c:	a6 97       	sbiw	r28, 0x26	; 38
    225e:	0f b6       	in	r0, 0x3f	; 63
    2260:	f8 94       	cli
    2262:	de bf       	out	0x3e, r29	; 62
    2264:	0f be       	out	0x3f, r0	; 63
    2266:	cd bf       	out	0x3d, r28	; 61
    2268:	6c 01       	movw	r12, r24
	//on calcul toutes les 20 millisecondes
	if( DrvEventTestEvent( in_event, CONF_EVENT_TIMER_20MS ) == TRUE)
    226a:	61 e0       	ldi	r22, 0x01	; 1
    226c:	0e 94 c7 08 	call	0x118e	; 0x118e <DrvEventTestEvent>
    2270:	81 30       	cpi	r24, 0x01	; 1
    2272:	09 f4       	brne	.+2      	; 0x2276 <SrvImuDispatcher+0x42>
    2274:	43 c0       	rjmp	.+134    	; 0x22fc <SrvImuDispatcher+0xc8>
		// ********************* Moteurs ******************************************
		SrvMotorUpdate(pid_erreur_roulis, pid_erreur_tangage, pid_erreur_lacet);
		speed = SrvMotorGetSpeed();
		
	}	
	if( DrvEventTestEvent( in_event, CONF_EVENT_TIMER_100MS ) == TRUE)
    2276:	c6 01       	movw	r24, r12
    2278:	62 e0       	ldi	r22, 0x02	; 2
    227a:	0e 94 c7 08 	call	0x118e	; 0x118e <DrvEventTestEvent>
    227e:	81 30       	cpi	r24, 0x01	; 1
    2280:	d1 f1       	breq	.+116    	; 0x22f6 <SrvImuDispatcher+0xc2>
	{
		//BARO
		//on start la capture du barometre toutes les 100ms
		CmpBMP085StartCapture();
	}
	imu_reel.altitude = CmpBMP085GetAltitude();
    2282:	0e 94 2b 02 	call	0x456	; 0x456 <CmpBMP085GetAltitude>
	imu_reel.altitude -= altitude_depart;
    2286:	20 91 aa 01 	lds	r18, 0x01AA
    228a:	30 91 ab 01 	lds	r19, 0x01AB
    228e:	62 1b       	sub	r22, r18
    2290:	73 0b       	sbc	r23, r19
    2292:	70 93 c6 02 	sts	0x02C6, r23
    2296:	60 93 c5 02 	sts	0x02C5, r22
	
	// a 10 sec on enregistre l'altitude
	if( DrvEventTestEvent( in_event, CONF_EVENT_TIMER_10S ) == TRUE)
    229a:	c6 01       	movw	r24, r12
    229c:	60 e1       	ldi	r22, 0x10	; 16
    229e:	0e 94 c7 08 	call	0x118e	; 0x118e <DrvEventTestEvent>
    22a2:	81 30       	cpi	r24, 0x01	; 1
    22a4:	c9 f0       	breq	.+50     	; 0x22d8 <SrvImuDispatcher+0xa4>
		{
			SrvImuSensorsSetAltitudeDepart();
		}			
	}		
	
}
    22a6:	a6 96       	adiw	r28, 0x26	; 38
    22a8:	0f b6       	in	r0, 0x3f	; 63
    22aa:	f8 94       	cli
    22ac:	de bf       	out	0x3e, r29	; 62
    22ae:	0f be       	out	0x3f, r0	; 63
    22b0:	cd bf       	out	0x3d, r28	; 61
    22b2:	cf 91       	pop	r28
    22b4:	df 91       	pop	r29
    22b6:	1f 91       	pop	r17
    22b8:	0f 91       	pop	r16
    22ba:	ff 90       	pop	r15
    22bc:	ef 90       	pop	r14
    22be:	df 90       	pop	r13
    22c0:	cf 90       	pop	r12
    22c2:	bf 90       	pop	r11
    22c4:	af 90       	pop	r10
    22c6:	9f 90       	pop	r9
    22c8:	8f 90       	pop	r8
    22ca:	7f 90       	pop	r7
    22cc:	6f 90       	pop	r6
    22ce:	5f 90       	pop	r5
    22d0:	4f 90       	pop	r4
    22d2:	3f 90       	pop	r3
    22d4:	2f 90       	pop	r2
    22d6:	08 95       	ret
	
	// a 10 sec on enregistre l'altitude
	if( DrvEventTestEvent( in_event, CONF_EVENT_TIMER_10S ) == TRUE)
	{
		//si c'est la premiere init
		if( altitude_depart == 0 )
    22d8:	80 91 aa 01 	lds	r24, 0x01AA
    22dc:	90 91 ab 01 	lds	r25, 0x01AB
    22e0:	00 97       	sbiw	r24, 0x00	; 0
    22e2:	09 f7       	brne	.-62     	; 0x22a6 <SrvImuDispatcher+0x72>
/************************************************************************/
/*Enregistre l altitude de depart                                       */
/************************************************************************/
void SrvImuSensorsSetAltitudeDepart( void )
{
	altitude_depart = imu_reel.altitude;
    22e4:	80 91 c5 02 	lds	r24, 0x02C5
    22e8:	90 91 c6 02 	lds	r25, 0x02C6
    22ec:	90 93 ab 01 	sts	0x01AB, r25
    22f0:	80 93 aa 01 	sts	0x01AA, r24
    22f4:	d8 cf       	rjmp	.-80     	; 0x22a6 <SrvImuDispatcher+0x72>
	}	
	if( DrvEventTestEvent( in_event, CONF_EVENT_TIMER_100MS ) == TRUE)
	{
		//BARO
		//on start la capture du barometre toutes les 100ms
		CmpBMP085StartCapture();
    22f6:	0e 94 54 04 	call	0x8a8	; 0x8a8 <CmpBMP085StartCapture>
    22fa:	c3 cf       	rjmp	.-122    	; 0x2282 <SrvImuDispatcher+0x4e>
{
	//on calcul toutes les 20 millisecondes
	if( DrvEventTestEvent( in_event, CONF_EVENT_TIMER_20MS ) == TRUE)
	{
		// ********************* Calcul du temps de cycle *************************
		temp_dernier_cycle = DrvTimerGetTime() - temp_actuel;
    22fc:	0e 94 e4 09 	call	0x13c8	; 0x13c8 <DrvTimerGetTime>
    2300:	20 91 ac 01 	lds	r18, 0x01AC
    2304:	30 91 ad 01 	lds	r19, 0x01AD
    2308:	40 91 ae 01 	lds	r20, 0x01AE
    230c:	50 91 af 01 	lds	r21, 0x01AF
    2310:	62 1b       	sub	r22, r18
    2312:	73 0b       	sbc	r23, r19
    2314:	84 0b       	sbc	r24, r20
    2316:	95 0b       	sbc	r25, r21
    2318:	60 93 b0 01 	sts	0x01B0, r22
    231c:	70 93 b1 01 	sts	0x01B1, r23
    2320:	80 93 b2 01 	sts	0x01B2, r24
    2324:	90 93 b3 01 	sts	0x01B3, r25
		temp_actuel = DrvTimerGetTime();
    2328:	0e 94 e4 09 	call	0x13c8	; 0x13c8 <DrvTimerGetTime>
    232c:	60 93 ac 01 	sts	0x01AC, r22
    2330:	70 93 ad 01 	sts	0x01AD, r23
    2334:	80 93 ae 01 	sts	0x01AE, r24
    2338:	90 93 af 01 	sts	0x01AF, r25
		
		//Get max cycle
		if(temp_dernier_cycle > temp_max_cycle)
    233c:	80 90 b0 01 	lds	r8, 0x01B0
    2340:	90 90 b1 01 	lds	r9, 0x01B1
    2344:	a0 90 b2 01 	lds	r10, 0x01B2
    2348:	b0 90 b3 01 	lds	r11, 0x01B3
    234c:	80 91 b4 01 	lds	r24, 0x01B4
    2350:	90 91 b5 01 	lds	r25, 0x01B5
    2354:	a0 91 b6 01 	lds	r26, 0x01B6
    2358:	b0 91 b7 01 	lds	r27, 0x01B7
    235c:	88 15       	cp	r24, r8
    235e:	99 05       	cpc	r25, r9
    2360:	aa 05       	cpc	r26, r10
    2362:	bb 05       	cpc	r27, r11
    2364:	40 f4       	brcc	.+16     	; 0x2376 <SrvImuDispatcher+0x142>
		{
			temp_max_cycle = temp_dernier_cycle;
    2366:	80 92 b4 01 	sts	0x01B4, r8
    236a:	90 92 b5 01 	sts	0x01B5, r9
    236e:	a0 92 b6 01 	sts	0x01B6, r10
    2372:	b0 92 b7 01 	sts	0x01B7, r11
	
	S_Gyr_Angle rotation;
	S_Acc_Angle acceleration;
	S_Mag_Angle magnet;
	
	rotation.x = 0;
    2376:	1a 82       	std	Y+2, r1	; 0x02
    2378:	19 82       	std	Y+1, r1	; 0x01
	rotation.y = 0;
    237a:	1c 82       	std	Y+4, r1	; 0x04
    237c:	1b 82       	std	Y+3, r1	; 0x03
	rotation.z = 0;
    237e:	1e 82       	std	Y+6, r1	; 0x06
    2380:	1d 82       	std	Y+5, r1	; 0x05
	acceleration.x = 0;
    2382:	18 86       	std	Y+8, r1	; 0x08
    2384:	1f 82       	std	Y+7, r1	; 0x07
	acceleration.y = 0;
    2386:	1a 86       	std	Y+10, r1	; 0x0a
    2388:	19 86       	std	Y+9, r1	; 0x09
	acceleration.z = 0;
    238a:	1c 86       	std	Y+12, r1	; 0x0c
    238c:	1b 86       	std	Y+11, r1	; 0x0b
	magnet.x = 0; 
    238e:	1e 86       	std	Y+14, r1	; 0x0e
    2390:	1d 86       	std	Y+13, r1	; 0x0d
	magnet.y = 0; 
    2392:	18 8a       	std	Y+16, r1	; 0x10
    2394:	1f 86       	std	Y+15, r1	; 0x0f
	magnet.z = 0; 
    2396:	1a 8a       	std	Y+18, r1	; 0x12
    2398:	19 8a       	std	Y+17, r1	; 0x11
	
	//ACC
	if(CmpBMA180GetAcceleration(&acceleration) != FALSE)
    239a:	ce 01       	movw	r24, r28
    239c:	07 96       	adiw	r24, 0x07	; 7
    239e:	0e 94 24 01 	call	0x248	; 0x248 <CmpBMA180GetAcceleration>
    23a2:	88 23       	and	r24, r24
    23a4:	09 f4       	brne	.+2      	; 0x23a8 <SrvImuDispatcher+0x174>
    23a6:	9e c0       	rjmp	.+316    	; 0x24e4 <SrvImuDispatcher+0x2b0>
	{
		//#define ACC_ORIENTATION(X, Y, Z)  {accADC[ROLL]  = -X; accADC[PITCH]  = -Y; accADC[YAW]  =  Z;}
		acceleration.x *= -1;
    23a8:	6f 81       	ldd	r22, Y+7	; 0x07
    23aa:	78 85       	ldd	r23, Y+8	; 0x08
    23ac:	70 95       	com	r23
    23ae:	61 95       	neg	r22
    23b0:	7f 4f       	sbci	r23, 0xFF	; 255
    23b2:	78 87       	std	Y+8, r23	; 0x08
    23b4:	6f 83       	std	Y+7, r22	; 0x07
		acceleration.y *= -1;
    23b6:	09 85       	ldd	r16, Y+9	; 0x09
    23b8:	1a 85       	ldd	r17, Y+10	; 0x0a
    23ba:	10 95       	com	r17
    23bc:	01 95       	neg	r16
    23be:	1f 4f       	sbci	r17, 0xFF	; 255
    23c0:	1a 87       	std	Y+10, r17	; 0x0a
    23c2:	09 87       	std	Y+9, r16	; 0x09
		acceleration.z *= 1;
		accXangle		= (float)atan2((double)(acceleration.x) , (double)sqrt((double)(pow((double)acceleration.y,2)+pow((double)acceleration.z,2))));
    23c4:	88 27       	eor	r24, r24
    23c6:	77 fd       	sbrc	r23, 7
    23c8:	80 95       	com	r24
    23ca:	98 2f       	mov	r25, r24
    23cc:	0e 94 01 27 	call	0x4e02	; 0x4e02 <__floatsisf>
    23d0:	2b 01       	movw	r4, r22
    23d2:	3c 01       	movw	r6, r24
    23d4:	b8 01       	movw	r22, r16
    23d6:	88 27       	eor	r24, r24
    23d8:	77 fd       	sbrc	r23, 7
    23da:	80 95       	com	r24
    23dc:	98 2f       	mov	r25, r24
    23de:	0e 94 01 27 	call	0x4e02	; 0x4e02 <__floatsisf>
    23e2:	6b 8b       	std	Y+19, r22	; 0x13
    23e4:	7c 8b       	std	Y+20, r23	; 0x14
    23e6:	8d 8b       	std	Y+21, r24	; 0x15
    23e8:	9e 8b       	std	Y+22, r25	; 0x16
    23ea:	9b 01       	movw	r18, r22
    23ec:	ac 01       	movw	r20, r24
    23ee:	0e 94 1a 28 	call	0x5034	; 0x5034 <__mulsf3>
    23f2:	06 2f       	mov	r16, r22
    23f4:	f7 2e       	mov	r15, r23
    23f6:	e8 2e       	mov	r14, r24
    23f8:	9f 8b       	std	Y+23, r25	; 0x17
    23fa:	6b 85       	ldd	r22, Y+11	; 0x0b
    23fc:	7c 85       	ldd	r23, Y+12	; 0x0c
    23fe:	88 27       	eor	r24, r24
    2400:	77 fd       	sbrc	r23, 7
    2402:	80 95       	com	r24
    2404:	98 2f       	mov	r25, r24
    2406:	0e 94 01 27 	call	0x4e02	; 0x4e02 <__floatsisf>
    240a:	60 93 ce 01 	sts	0x01CE, r22
    240e:	70 93 cf 01 	sts	0x01CF, r23
    2412:	80 93 d0 01 	sts	0x01D0, r24
    2416:	90 93 d1 01 	sts	0x01D1, r25
    241a:	9b 01       	movw	r18, r22
    241c:	ac 01       	movw	r20, r24
    241e:	0e 94 1a 28 	call	0x5034	; 0x5034 <__mulsf3>
    2422:	16 2f       	mov	r17, r22
    2424:	37 2e       	mov	r3, r23
    2426:	28 2e       	mov	r2, r24
    2428:	9f 8f       	std	Y+31, r25	; 0x1f
    242a:	2f 89       	ldd	r18, Y+23	; 0x17
    242c:	60 2f       	mov	r22, r16
    242e:	7f 2d       	mov	r23, r15
    2430:	8e 2d       	mov	r24, r14
    2432:	92 2f       	mov	r25, r18
    2434:	ef 8d       	ldd	r30, Y+31	; 0x1f
    2436:	21 2f       	mov	r18, r17
    2438:	33 2d       	mov	r19, r3
    243a:	42 2d       	mov	r20, r2
    243c:	5e 2f       	mov	r21, r30
    243e:	0e 94 99 25 	call	0x4b32	; 0x4b32 <__addsf3>
    2442:	0e 94 d3 28 	call	0x51a6	; 0x51a6 <sqrt>
    2446:	9b 01       	movw	r18, r22
    2448:	ac 01       	movw	r20, r24
    244a:	c3 01       	movw	r24, r6
    244c:	b2 01       	movw	r22, r4
    244e:	0e 94 0c 26 	call	0x4c18	; 0x4c18 <atan2>
    2452:	6f 8b       	std	Y+23, r22	; 0x17
    2454:	78 8f       	std	Y+24, r23	; 0x18
    2456:	89 8f       	std	Y+25, r24	; 0x19
    2458:	9a 8f       	std	Y+26, r25	; 0x1a
		accYangle		= (float)atan2((double)(acceleration.y) , (double)sqrt((double)(pow((double)acceleration.x,2)+pow((double)acceleration.z,2))));
    245a:	c3 01       	movw	r24, r6
    245c:	b2 01       	movw	r22, r4
    245e:	a3 01       	movw	r20, r6
    2460:	92 01       	movw	r18, r4
    2462:	0e 94 1a 28 	call	0x5034	; 0x5034 <__mulsf3>
    2466:	f6 2e       	mov	r15, r22
    2468:	47 2e       	mov	r4, r23
    246a:	e8 2e       	mov	r14, r24
    246c:	09 2f       	mov	r16, r25
    246e:	8f 8d       	ldd	r24, Y+31	; 0x1f
    2470:	21 2f       	mov	r18, r17
    2472:	33 2d       	mov	r19, r3
    2474:	42 2d       	mov	r20, r2
    2476:	58 2f       	mov	r21, r24
    2478:	ca 01       	movw	r24, r20
    247a:	b9 01       	movw	r22, r18
    247c:	2f 2d       	mov	r18, r15
    247e:	34 2d       	mov	r19, r4
    2480:	4e 2d       	mov	r20, r14
    2482:	50 2f       	mov	r21, r16
    2484:	0e 94 99 25 	call	0x4b32	; 0x4b32 <__addsf3>
    2488:	0e 94 d3 28 	call	0x51a6	; 0x51a6 <sqrt>
    248c:	9b 01       	movw	r18, r22
    248e:	ac 01       	movw	r20, r24
    2490:	6b 89       	ldd	r22, Y+19	; 0x13
    2492:	7c 89       	ldd	r23, Y+20	; 0x14
    2494:	8d 89       	ldd	r24, Y+21	; 0x15
    2496:	9e 89       	ldd	r25, Y+22	; 0x16
    2498:	0e 94 0c 26 	call	0x4c18	; 0x4c18 <atan2>
    249c:	7b 01       	movw	r14, r22
    249e:	8c 01       	movw	r16, r24
	
		accXangle = ToDeg(accXangle);
    24a0:	6f 89       	ldd	r22, Y+23	; 0x17
    24a2:	78 8d       	ldd	r23, Y+24	; 0x18
    24a4:	89 8d       	ldd	r24, Y+25	; 0x19
    24a6:	9a 8d       	ldd	r25, Y+26	; 0x1a
    24a8:	20 ee       	ldi	r18, 0xE0	; 224
    24aa:	3e e2       	ldi	r19, 0x2E	; 46
    24ac:	45 e6       	ldi	r20, 0x65	; 101
    24ae:	52 e4       	ldi	r21, 0x42	; 66
    24b0:	0e 94 1a 28 	call	0x5034	; 0x5034 <__mulsf3>
    24b4:	60 93 b8 01 	sts	0x01B8, r22
    24b8:	70 93 b9 01 	sts	0x01B9, r23
    24bc:	80 93 ba 01 	sts	0x01BA, r24
    24c0:	90 93 bb 01 	sts	0x01BB, r25
		accYangle = ToDeg(accYangle);
    24c4:	c8 01       	movw	r24, r16
    24c6:	b7 01       	movw	r22, r14
    24c8:	20 ee       	ldi	r18, 0xE0	; 224
    24ca:	3e e2       	ldi	r19, 0x2E	; 46
    24cc:	45 e6       	ldi	r20, 0x65	; 101
    24ce:	52 e4       	ldi	r21, 0x42	; 66
    24d0:	0e 94 1a 28 	call	0x5034	; 0x5034 <__mulsf3>
    24d4:	60 93 c0 01 	sts	0x01C0, r22
    24d8:	70 93 c1 01 	sts	0x01C1, r23
    24dc:	80 93 c2 01 	sts	0x01C2, r24
    24e0:	90 93 c3 01 	sts	0x01C3, r25
		accZangle = acceleration.z;		
	}
			
	//GYR
	//sensitivity	=>	14.375
	if(CmpITG3205GetRotation(&rotation) != FALSE)
    24e4:	ce 01       	movw	r24, r28
    24e6:	01 96       	adiw	r24, 0x01	; 1
    24e8:	0e 94 33 05 	call	0xa66	; 0xa66 <CmpITG3205GetRotation>
    24ec:	88 23       	and	r24, r24
    24ee:	09 f4       	brne	.+2      	; 0x24f2 <SrvImuDispatcher+0x2be>
    24f0:	cb c0       	rjmp	.+406    	; 0x2688 <SrvImuDispatcher+0x454>
	{	
		//#define GYRO_ORIENTATION(X, Y, Z) {gyroADC[ROLL] =  Y; gyroADC[PITCH] = -X; gyroADC[YAW] = -Z;}
		rotation.x *= -1;
    24f2:	09 81       	ldd	r16, Y+1	; 0x01
    24f4:	1a 81       	ldd	r17, Y+2	; 0x02
    24f6:	10 95       	com	r17
    24f8:	01 95       	neg	r16
    24fa:	1f 4f       	sbci	r17, 0xFF	; 255
    24fc:	1a 83       	std	Y+2, r17	; 0x02
    24fe:	09 83       	std	Y+1, r16	; 0x01
		rotation.y *= 1;
    2500:	4b 80       	ldd	r4, Y+3	; 0x03
    2502:	5c 80       	ldd	r5, Y+4	; 0x04
		rotation.z *= -1;
    2504:	ed 80       	ldd	r14, Y+5	; 0x05
    2506:	fe 80       	ldd	r15, Y+6	; 0x06
    2508:	f0 94       	com	r15
    250a:	e1 94       	neg	r14
    250c:	f1 08       	sbc	r15, r1
    250e:	f3 94       	inc	r15
    2510:	fe 82       	std	Y+6, r15	; 0x06
    2512:	ed 82       	std	Y+5, r14	; 0x05
			
		gyroRate				=	rotation.x / 14.375 ;
		gyroYAngle	+=	(float)((float)((gyroRate * interval) / 1000000.0));
    2514:	c5 01       	movw	r24, r10
    2516:	b4 01       	movw	r22, r8
    2518:	0e 94 ff 26 	call	0x4dfe	; 0x4dfe <__floatunsisf>
    251c:	4b 01       	movw	r8, r22
    251e:	5c 01       	movw	r10, r24
		//#define GYRO_ORIENTATION(X, Y, Z) {gyroADC[ROLL] =  Y; gyroADC[PITCH] = -X; gyroADC[YAW] = -Z;}
		rotation.x *= -1;
		rotation.y *= 1;
		rotation.z *= -1;
			
		gyroRate				=	rotation.x / 14.375 ;
    2520:	b8 01       	movw	r22, r16
    2522:	88 27       	eor	r24, r24
    2524:	77 fd       	sbrc	r23, 7
    2526:	80 95       	com	r24
    2528:	98 2f       	mov	r25, r24
    252a:	0e 94 01 27 	call	0x4e02	; 0x4e02 <__floatsisf>
    252e:	20 e0       	ldi	r18, 0x00	; 0
    2530:	30 e0       	ldi	r19, 0x00	; 0
    2532:	46 e6       	ldi	r20, 0x66	; 102
    2534:	51 e4       	ldi	r21, 0x41	; 65
    2536:	0e 94 66 26 	call	0x4ccc	; 0x4ccc <__divsf3>
		gyroYAngle	+=	(float)((float)((gyroRate * interval) / 1000000.0));
    253a:	a5 01       	movw	r20, r10
    253c:	94 01       	movw	r18, r8
    253e:	0e 94 1a 28 	call	0x5034	; 0x5034 <__mulsf3>
    2542:	20 e0       	ldi	r18, 0x00	; 0
    2544:	34 e2       	ldi	r19, 0x24	; 36
    2546:	44 e7       	ldi	r20, 0x74	; 116
    2548:	59 e4       	ldi	r21, 0x49	; 73
    254a:	0e 94 66 26 	call	0x4ccc	; 0x4ccc <__divsf3>
    254e:	9b 01       	movw	r18, r22
    2550:	ac 01       	movw	r20, r24
    2552:	60 91 c4 01 	lds	r22, 0x01C4
    2556:	70 91 c5 01 	lds	r23, 0x01C5
    255a:	80 91 c6 01 	lds	r24, 0x01C6
    255e:	90 91 c7 01 	lds	r25, 0x01C7
    2562:	0e 94 99 25 	call	0x4b32	; 0x4b32 <__addsf3>
    2566:	60 93 c4 01 	sts	0x01C4, r22
    256a:	70 93 c5 01 	sts	0x01C5, r23
    256e:	80 93 c6 01 	sts	0x01C6, r24
    2572:	90 93 c7 01 	sts	0x01C7, r25
		
		gyroRate				=	rotation.y / 14.375 ;
    2576:	b2 01       	movw	r22, r4
    2578:	88 27       	eor	r24, r24
    257a:	77 fd       	sbrc	r23, 7
    257c:	80 95       	com	r24
    257e:	98 2f       	mov	r25, r24
    2580:	0e 94 01 27 	call	0x4e02	; 0x4e02 <__floatsisf>
    2584:	20 e0       	ldi	r18, 0x00	; 0
    2586:	30 e0       	ldi	r19, 0x00	; 0
    2588:	46 e6       	ldi	r20, 0x66	; 102
    258a:	51 e4       	ldi	r21, 0x41	; 65
    258c:	0e 94 66 26 	call	0x4ccc	; 0x4ccc <__divsf3>
    2590:	9b 01       	movw	r18, r22
    2592:	ac 01       	movw	r20, r24
		gyroXAngle	+=	(float)((float)((gyroRate * interval) / 1000000.0));
    2594:	c5 01       	movw	r24, r10
    2596:	b4 01       	movw	r22, r8
    2598:	0e 94 1a 28 	call	0x5034	; 0x5034 <__mulsf3>
    259c:	20 e0       	ldi	r18, 0x00	; 0
    259e:	34 e2       	ldi	r19, 0x24	; 36
    25a0:	44 e7       	ldi	r20, 0x74	; 116
    25a2:	59 e4       	ldi	r21, 0x49	; 73
    25a4:	0e 94 66 26 	call	0x4ccc	; 0x4ccc <__divsf3>
    25a8:	9b 01       	movw	r18, r22
    25aa:	ac 01       	movw	r20, r24
    25ac:	60 91 bc 01 	lds	r22, 0x01BC
    25b0:	70 91 bd 01 	lds	r23, 0x01BD
    25b4:	80 91 be 01 	lds	r24, 0x01BE
    25b8:	90 91 bf 01 	lds	r25, 0x01BF
    25bc:	0e 94 99 25 	call	0x4b32	; 0x4b32 <__addsf3>
    25c0:	60 93 bc 01 	sts	0x01BC, r22
    25c4:	70 93 bd 01 	sts	0x01BD, r23
    25c8:	80 93 be 01 	sts	0x01BE, r24
    25cc:	90 93 bf 01 	sts	0x01BF, r25
		
		gyroRate				=	rotation.z / 14.375 ;
    25d0:	b7 01       	movw	r22, r14
    25d2:	88 27       	eor	r24, r24
    25d4:	77 fd       	sbrc	r23, 7
    25d6:	80 95       	com	r24
    25d8:	98 2f       	mov	r25, r24
    25da:	0e 94 01 27 	call	0x4e02	; 0x4e02 <__floatsisf>
    25de:	20 e0       	ldi	r18, 0x00	; 0
    25e0:	30 e0       	ldi	r19, 0x00	; 0
    25e2:	46 e6       	ldi	r20, 0x66	; 102
    25e4:	51 e4       	ldi	r21, 0x41	; 65
    25e6:	0e 94 66 26 	call	0x4ccc	; 0x4ccc <__divsf3>
    25ea:	9b 01       	movw	r18, r22
    25ec:	ac 01       	movw	r20, r24
		gyroZAngle	+=	(float)((float)((gyroRate * interval) / 1000000.0));
    25ee:	c5 01       	movw	r24, r10
    25f0:	b4 01       	movw	r22, r8
    25f2:	0e 94 1a 28 	call	0x5034	; 0x5034 <__mulsf3>
    25f6:	20 e0       	ldi	r18, 0x00	; 0
    25f8:	34 e2       	ldi	r19, 0x24	; 36
    25fa:	44 e7       	ldi	r20, 0x74	; 116
    25fc:	59 e4       	ldi	r21, 0x49	; 73
    25fe:	0e 94 66 26 	call	0x4ccc	; 0x4ccc <__divsf3>
    2602:	20 91 c8 01 	lds	r18, 0x01C8
    2606:	30 91 c9 01 	lds	r19, 0x01C9
    260a:	40 91 ca 01 	lds	r20, 0x01CA
    260e:	50 91 cb 01 	lds	r21, 0x01CB
    2612:	0e 94 99 25 	call	0x4b32	; 0x4b32 <__addsf3>
    2616:	e6 2e       	mov	r14, r22
    2618:	07 2f       	mov	r16, r23
    261a:	88 2e       	mov	r8, r24
    261c:	19 2f       	mov	r17, r25
    261e:	86 2f       	mov	r24, r22
    2620:	90 2f       	mov	r25, r16
    2622:	a8 2d       	mov	r26, r8
    2624:	b1 2f       	mov	r27, r17
    2626:	80 93 c8 01 	sts	0x01C8, r24
    262a:	90 93 c9 01 	sts	0x01C9, r25
    262e:	a0 93 ca 01 	sts	0x01CA, r26
    2632:	b0 93 cb 01 	sts	0x01CB, r27
		if(gyroZAngle < 0)
    2636:	6e 2d       	mov	r22, r14
    2638:	70 2f       	mov	r23, r16
    263a:	88 2d       	mov	r24, r8
    263c:	91 2f       	mov	r25, r17
    263e:	20 e0       	ldi	r18, 0x00	; 0
    2640:	30 e0       	ldi	r19, 0x00	; 0
    2642:	a9 01       	movw	r20, r18
    2644:	0e 94 5f 26 	call	0x4cbe	; 0x4cbe <__cmpsf2>
    2648:	87 fd       	sbrc	r24, 7
    264a:	75 c2       	rjmp	.+1258   	; 0x2b36 <SrvImuDispatcher+0x902>
		{
			gyroZAngle += 360.0;
		}
		else if(gyroZAngle > 360)
    264c:	6e 2d       	mov	r22, r14
    264e:	70 2f       	mov	r23, r16
    2650:	88 2d       	mov	r24, r8
    2652:	91 2f       	mov	r25, r17
    2654:	20 e0       	ldi	r18, 0x00	; 0
    2656:	30 e0       	ldi	r19, 0x00	; 0
    2658:	44 eb       	ldi	r20, 0xB4	; 180
    265a:	53 e4       	ldi	r21, 0x43	; 67
    265c:	0e 94 0f 28 	call	0x501e	; 0x501e <__gesf2>
    2660:	18 16       	cp	r1, r24
    2662:	94 f4       	brge	.+36     	; 0x2688 <SrvImuDispatcher+0x454>
		{
			gyroZAngle -= 360.0;
    2664:	6e 2d       	mov	r22, r14
    2666:	70 2f       	mov	r23, r16
    2668:	88 2d       	mov	r24, r8
    266a:	91 2f       	mov	r25, r17
    266c:	20 e0       	ldi	r18, 0x00	; 0
    266e:	30 e0       	ldi	r19, 0x00	; 0
    2670:	44 eb       	ldi	r20, 0xB4	; 180
    2672:	53 e4       	ldi	r21, 0x43	; 67
    2674:	0e 94 98 25 	call	0x4b30	; 0x4b30 <__subsf3>
    2678:	60 93 c8 01 	sts	0x01C8, r22
    267c:	70 93 c9 01 	sts	0x01C9, r23
    2680:	80 93 ca 01 	sts	0x01CA, r24
    2684:	90 93 cb 01 	sts	0x01CB, r25
		}
	}		
	//MAG
	if(CmpHMC5883GetHeading(&magnet) != FALSE)
    2688:	ce 01       	movw	r24, r28
    268a:	0d 96       	adiw	r24, 0x0d	; 13
    268c:	0e 94 8c 04 	call	0x918	; 0x918 <CmpHMC5883GetHeading>
    2690:	88 23       	and	r24, r24
    2692:	09 f4       	brne	.+2      	; 0x2696 <SrvImuDispatcher+0x462>
    2694:	0b c1       	rjmp	.+534    	; 0x28ac <SrvImuDispatcher+0x678>
	{
		//#define MAG_ORIENTATION(X, Y, Z)  {magADC[ROLL]  =  -X; magADC[PITCH]  =  Y; magADC[YAW]  = -Z;}
		magnet.x *= -1;
    2696:	0d 85       	ldd	r16, Y+13	; 0x0d
    2698:	1e 85       	ldd	r17, Y+14	; 0x0e
    269a:	10 95       	com	r17
    269c:	01 95       	neg	r16
    269e:	1f 4f       	sbci	r17, 0xFF	; 255
    26a0:	1e 87       	std	Y+14, r17	; 0x0e
    26a2:	0d 87       	std	Y+13, r16	; 0x0d
		magnet.y *= 1;
    26a4:	2f 84       	ldd	r2, Y+15	; 0x0f
    26a6:	38 88       	ldd	r3, Y+16	; 0x10
		magnet.z *= -1;	
    26a8:	e9 88       	ldd	r14, Y+17	; 0x11
    26aa:	fa 88       	ldd	r15, Y+18	; 0x12
    26ac:	f0 94       	com	r15
    26ae:	e1 94       	neg	r14
    26b0:	f1 08       	sbc	r15, r1
    26b2:	f3 94       	inc	r15
    26b4:	fa 8a       	std	Y+18, r15	; 0x12
    26b6:	e9 8a       	std	Y+17, r14	; 0x11

		
		//on doit etre en dessous des 40 deg
		if(!(accXangle > 40 || accXangle < -40 || accYangle > 40 || accYangle < -40))
    26b8:	80 90 b8 01 	lds	r8, 0x01B8
    26bc:	90 90 b9 01 	lds	r9, 0x01B9
    26c0:	a0 90 ba 01 	lds	r10, 0x01BA
    26c4:	b0 90 bb 01 	lds	r11, 0x01BB
    26c8:	c5 01       	movw	r24, r10
    26ca:	b4 01       	movw	r22, r8
    26cc:	20 e0       	ldi	r18, 0x00	; 0
    26ce:	30 e0       	ldi	r19, 0x00	; 0
    26d0:	40 e2       	ldi	r20, 0x20	; 32
    26d2:	52 e4       	ldi	r21, 0x42	; 66
    26d4:	0e 94 0f 28 	call	0x501e	; 0x501e <__gesf2>
    26d8:	18 16       	cp	r1, r24
    26da:	0c f0       	brlt	.+2      	; 0x26de <SrvImuDispatcher+0x4aa>
    26dc:	f0 c0       	rjmp	.+480    	; 0x28be <SrvImuDispatcher+0x68a>
		
		// ********************* Mesure des capteurs ******************************
		SrvImuComputeSensors( temp_dernier_cycle );
		
		// ********************* Fusion des capteurs ******************************		
		imu_reel.roulis   = SrvKalmanFilterX( accXangle, gyroXAngle, temp_dernier_cycle ) * 10U;
    26de:	40 90 bc 01 	lds	r4, 0x01BC
    26e2:	50 90 bd 01 	lds	r5, 0x01BD
    26e6:	60 90 be 01 	lds	r6, 0x01BE
    26ea:	70 90 bf 01 	lds	r7, 0x01BF
    26ee:	60 91 b0 01 	lds	r22, 0x01B0
    26f2:	70 91 b1 01 	lds	r23, 0x01B1
    26f6:	80 91 b2 01 	lds	r24, 0x01B2
    26fa:	90 91 b3 01 	lds	r25, 0x01B3
    26fe:	0e 94 ff 26 	call	0x4dfe	; 0x4dfe <__floatunsisf>
    2702:	7b 01       	movw	r14, r22
    2704:	8c 01       	movw	r16, r24
    2706:	c5 01       	movw	r24, r10
    2708:	b4 01       	movw	r22, r8
    270a:	a3 01       	movw	r20, r6
    270c:	92 01       	movw	r18, r4
    270e:	0e 94 40 16 	call	0x2c80	; 0x2c80 <SrvKalmanFilterX>
    2712:	20 e0       	ldi	r18, 0x00	; 0
    2714:	30 e0       	ldi	r19, 0x00	; 0
    2716:	40 e2       	ldi	r20, 0x20	; 32
    2718:	51 e4       	ldi	r21, 0x41	; 65
    271a:	0e 94 1a 28 	call	0x5034	; 0x5034 <__mulsf3>
    271e:	0e 94 ce 26 	call	0x4d9c	; 0x4d9c <__fixsfsi>
    2722:	70 93 be 02 	sts	0x02BE, r23
    2726:	60 93 bd 02 	sts	0x02BD, r22
		imu_reel.tangage  = SrvKalmanFilterY( accYangle, gyroYAngle, temp_dernier_cycle ) * 10U;
    272a:	80 90 c0 01 	lds	r8, 0x01C0
    272e:	90 90 c1 01 	lds	r9, 0x01C1
    2732:	a0 90 c2 01 	lds	r10, 0x01C2
    2736:	b0 90 c3 01 	lds	r11, 0x01C3
    273a:	40 90 c4 01 	lds	r4, 0x01C4
    273e:	50 90 c5 01 	lds	r5, 0x01C5
    2742:	60 90 c6 01 	lds	r6, 0x01C6
    2746:	70 90 c7 01 	lds	r7, 0x01C7
    274a:	60 91 b0 01 	lds	r22, 0x01B0
    274e:	70 91 b1 01 	lds	r23, 0x01B1
    2752:	80 91 b2 01 	lds	r24, 0x01B2
    2756:	90 91 b3 01 	lds	r25, 0x01B3
    275a:	0e 94 ff 26 	call	0x4dfe	; 0x4dfe <__floatunsisf>
    275e:	7b 01       	movw	r14, r22
    2760:	8c 01       	movw	r16, r24
    2762:	c5 01       	movw	r24, r10
    2764:	b4 01       	movw	r22, r8
    2766:	a3 01       	movw	r20, r6
    2768:	92 01       	movw	r18, r4
    276a:	0e 94 87 18 	call	0x310e	; 0x310e <SrvKalmanFilterY>
    276e:	20 e0       	ldi	r18, 0x00	; 0
    2770:	30 e0       	ldi	r19, 0x00	; 0
    2772:	40 e2       	ldi	r20, 0x20	; 32
    2774:	51 e4       	ldi	r21, 0x41	; 65
    2776:	0e 94 1a 28 	call	0x5034	; 0x5034 <__mulsf3>
    277a:	0e 94 ce 26 	call	0x4d9c	; 0x4d9c <__fixsfsi>
    277e:	70 93 c0 02 	sts	0x02C0, r23
    2782:	60 93 bf 02 	sts	0x02BF, r22
		imu_reel.lacet    = gyroZAngle;
    2786:	60 91 c8 01 	lds	r22, 0x01C8
    278a:	70 91 c9 01 	lds	r23, 0x01C9
    278e:	80 91 ca 01 	lds	r24, 0x01CA
    2792:	90 91 cb 01 	lds	r25, 0x01CB
    2796:	0e 94 ce 26 	call	0x4d9c	; 0x4d9c <__fixsfsi>
    279a:	70 93 c2 02 	sts	0x02C2, r23
    279e:	60 93 c1 02 	sts	0x02C1, r22
		imu_reel.nord	  = direction;
    27a2:	80 91 cc 01 	lds	r24, 0x01CC
    27a6:	90 91 cd 01 	lds	r25, 0x01CD
    27aa:	90 93 c4 02 	sts	0x02C4, r25
    27ae:	80 93 c3 02 	sts	0x02C3, r24
		
		//imu_reel.altitude = SrvKalmanFilterAlt( imu_reel.altitude, (accZangle - BMA180_ACC_1G), temp_dernier_cycle );
		
		
		// ********************* PID **********************************************
		pid_erreur_roulis	= SrvPIDCompute( 0U , imu_desire.roulis					, imu_reel.roulis);
    27b2:	60 91 d8 02 	lds	r22, 0x02D8
    27b6:	70 91 d9 02 	lds	r23, 0x02D9
    27ba:	88 27       	eor	r24, r24
    27bc:	77 fd       	sbrc	r23, 7
    27be:	80 95       	com	r24
    27c0:	98 2f       	mov	r25, r24
    27c2:	0e 94 01 27 	call	0x4e02	; 0x4e02 <__floatsisf>
    27c6:	4b 01       	movw	r8, r22
    27c8:	5c 01       	movw	r10, r24
    27ca:	60 91 bd 02 	lds	r22, 0x02BD
    27ce:	70 91 be 02 	lds	r23, 0x02BE
    27d2:	88 27       	eor	r24, r24
    27d4:	77 fd       	sbrc	r23, 7
    27d6:	80 95       	com	r24
    27d8:	98 2f       	mov	r25, r24
    27da:	0e 94 01 27 	call	0x4e02	; 0x4e02 <__floatsisf>
    27de:	8b 01       	movw	r16, r22
    27e0:	9c 01       	movw	r18, r24
    27e2:	80 e0       	ldi	r24, 0x00	; 0
    27e4:	b5 01       	movw	r22, r10
    27e6:	a4 01       	movw	r20, r8
    27e8:	0e 94 5f 21 	call	0x42be	; 0x42be <SrvPIDCompute>
    27ec:	90 93 cd 02 	sts	0x02CD, r25
    27f0:	80 93 cc 02 	sts	0x02CC, r24
		pid_erreur_tangage	= SrvPIDCompute( 1U , imu_desire.tangage				, imu_reel.tangage);
    27f4:	60 91 da 02 	lds	r22, 0x02DA
    27f8:	70 91 db 02 	lds	r23, 0x02DB
    27fc:	88 27       	eor	r24, r24
    27fe:	77 fd       	sbrc	r23, 7
    2800:	80 95       	com	r24
    2802:	98 2f       	mov	r25, r24
    2804:	0e 94 01 27 	call	0x4e02	; 0x4e02 <__floatsisf>
    2808:	4b 01       	movw	r8, r22
    280a:	5c 01       	movw	r10, r24
    280c:	60 91 bf 02 	lds	r22, 0x02BF
    2810:	70 91 c0 02 	lds	r23, 0x02C0
    2814:	88 27       	eor	r24, r24
    2816:	77 fd       	sbrc	r23, 7
    2818:	80 95       	com	r24
    281a:	98 2f       	mov	r25, r24
    281c:	0e 94 01 27 	call	0x4e02	; 0x4e02 <__floatsisf>
    2820:	8b 01       	movw	r16, r22
    2822:	9c 01       	movw	r18, r24
    2824:	81 e0       	ldi	r24, 0x01	; 1
    2826:	b5 01       	movw	r22, r10
    2828:	a4 01       	movw	r20, r8
    282a:	0e 94 5f 21 	call	0x42be	; 0x42be <SrvPIDCompute>
    282e:	90 93 d1 02 	sts	0x02D1, r25
    2832:	80 93 d0 02 	sts	0x02D0, r24
		pid_erreur_lacet	= SrvPIDCompute( 2U , imu_reel.lacet + imu_desire.lacet	, imu_reel.lacet);
    2836:	00 91 c1 02 	lds	r16, 0x02C1
    283a:	10 91 c2 02 	lds	r17, 0x02C2
    283e:	60 91 dc 02 	lds	r22, 0x02DC
    2842:	70 91 dd 02 	lds	r23, 0x02DD
    2846:	60 0f       	add	r22, r16
    2848:	71 1f       	adc	r23, r17
    284a:	88 27       	eor	r24, r24
    284c:	77 fd       	sbrc	r23, 7
    284e:	80 95       	com	r24
    2850:	98 2f       	mov	r25, r24
    2852:	0e 94 01 27 	call	0x4e02	; 0x4e02 <__floatsisf>
    2856:	4b 01       	movw	r8, r22
    2858:	5c 01       	movw	r10, r24
    285a:	b8 01       	movw	r22, r16
    285c:	88 27       	eor	r24, r24
    285e:	77 fd       	sbrc	r23, 7
    2860:	80 95       	com	r24
    2862:	98 2f       	mov	r25, r24
    2864:	0e 94 01 27 	call	0x4e02	; 0x4e02 <__floatsisf>
    2868:	8b 01       	movw	r16, r22
    286a:	9c 01       	movw	r18, r24
    286c:	82 e0       	ldi	r24, 0x02	; 2
    286e:	b5 01       	movw	r22, r10
    2870:	a4 01       	movw	r20, r8
    2872:	0e 94 5f 21 	call	0x42be	; 0x42be <SrvPIDCompute>
    2876:	ac 01       	movw	r20, r24
    2878:	90 93 bc 02 	sts	0x02BC, r25
    287c:	80 93 bb 02 	sts	0x02BB, r24
		if(imu_reel.maintient_altitude == TRUE)
    2880:	80 91 c9 02 	lds	r24, 0x02C9
    2884:	81 30       	cpi	r24, 0x01	; 1
    2886:	09 f4       	brne	.+2      	; 0x288a <SrvImuDispatcher+0x656>
    2888:	69 c1       	rjmp	.+722    	; 0x2b5c <SrvImuDispatcher+0x928>
		{
			pid_erreur_altitude	= SrvPIDCompute( 3U , imu_desire.altitude, imu_reel.altitude);
			//SrvMotorApplyRelativeSpeed(pid_erreur_altitude);
		}
		// ********************* Moteurs ******************************************
		SrvMotorUpdate(pid_erreur_roulis, pid_erreur_tangage, pid_erreur_lacet);
    288a:	60 91 d0 02 	lds	r22, 0x02D0
    288e:	70 91 d1 02 	lds	r23, 0x02D1
    2892:	80 91 cc 02 	lds	r24, 0x02CC
    2896:	90 91 cd 02 	lds	r25, 0x02CD
    289a:	0e 94 76 1f 	call	0x3eec	; 0x3eec <SrvMotorUpdate>
		speed = SrvMotorGetSpeed();
    289e:	0e 94 c3 20 	call	0x4186	; 0x4186 <SrvMotorGetSpeed>
    28a2:	90 93 d3 02 	sts	0x02D3, r25
    28a6:	80 93 d2 02 	sts	0x02D2, r24
    28aa:	e5 cc       	rjmp	.-1590   	; 0x2276 <SrvImuDispatcher+0x42>
		{
			gyroZAngle -= 360.0;
		}
	}		
	//MAG
	if(CmpHMC5883GetHeading(&magnet) != FALSE)
    28ac:	80 90 b8 01 	lds	r8, 0x01B8
    28b0:	90 90 b9 01 	lds	r9, 0x01B9
    28b4:	a0 90 ba 01 	lds	r10, 0x01BA
    28b8:	b0 90 bb 01 	lds	r11, 0x01BB
    28bc:	10 cf       	rjmp	.-480    	; 0x26de <SrvImuDispatcher+0x4aa>
		magnet.y *= 1;
		magnet.z *= -1;	

		
		//on doit etre en dessous des 40 deg
		if(!(accXangle > 40 || accXangle < -40 || accYangle > 40 || accYangle < -40))
    28be:	c5 01       	movw	r24, r10
    28c0:	b4 01       	movw	r22, r8
    28c2:	20 e0       	ldi	r18, 0x00	; 0
    28c4:	30 e0       	ldi	r19, 0x00	; 0
    28c6:	40 e2       	ldi	r20, 0x20	; 32
    28c8:	52 ec       	ldi	r21, 0xC2	; 194
    28ca:	0e 94 5f 26 	call	0x4cbe	; 0x4cbe <__cmpsf2>
    28ce:	87 fd       	sbrc	r24, 7
    28d0:	06 cf       	rjmp	.-500    	; 0x26de <SrvImuDispatcher+0x4aa>
    28d2:	40 90 c0 01 	lds	r4, 0x01C0
    28d6:	50 90 c1 01 	lds	r5, 0x01C1
    28da:	60 90 c2 01 	lds	r6, 0x01C2
    28de:	70 90 c3 01 	lds	r7, 0x01C3
    28e2:	c3 01       	movw	r24, r6
    28e4:	b2 01       	movw	r22, r4
    28e6:	20 e0       	ldi	r18, 0x00	; 0
    28e8:	30 e0       	ldi	r19, 0x00	; 0
    28ea:	40 e2       	ldi	r20, 0x20	; 32
    28ec:	52 e4       	ldi	r21, 0x42	; 66
    28ee:	0e 94 0f 28 	call	0x501e	; 0x501e <__gesf2>
    28f2:	18 16       	cp	r1, r24
    28f4:	0c f4       	brge	.+2      	; 0x28f8 <SrvImuDispatcher+0x6c4>
    28f6:	f3 ce       	rjmp	.-538    	; 0x26de <SrvImuDispatcher+0x4aa>
    28f8:	c3 01       	movw	r24, r6
    28fa:	b2 01       	movw	r22, r4
    28fc:	20 e0       	ldi	r18, 0x00	; 0
    28fe:	30 e0       	ldi	r19, 0x00	; 0
    2900:	40 e2       	ldi	r20, 0x20	; 32
    2902:	52 ec       	ldi	r21, 0xC2	; 194
    2904:	0e 94 5f 26 	call	0x4cbe	; 0x4cbe <__cmpsf2>
    2908:	87 fd       	sbrc	r24, 7
    290a:	e9 ce       	rjmp	.-558    	; 0x26de <SrvImuDispatcher+0x4aa>
		{
			//compensation avec l'accelerometre
			float cosRoll = cos(ToRad(accYangle));
    290c:	c3 01       	movw	r24, r6
    290e:	b2 01       	movw	r22, r4
    2910:	25 e3       	ldi	r18, 0x35	; 53
    2912:	3a ef       	ldi	r19, 0xFA	; 250
    2914:	4e e8       	ldi	r20, 0x8E	; 142
    2916:	5c e3       	ldi	r21, 0x3C	; 60
    2918:	0e 94 1a 28 	call	0x5034	; 0x5034 <__mulsf3>
    291c:	46 2e       	mov	r4, r22
    291e:	77 2e       	mov	r7, r23
    2920:	68 2e       	mov	r6, r24
    2922:	59 2e       	mov	r5, r25
    2924:	0e 94 63 26 	call	0x4cc6	; 0x4cc6 <cos>
    2928:	6f 8b       	std	Y+23, r22	; 0x17
    292a:	78 8f       	std	Y+24, r23	; 0x18
    292c:	89 8f       	std	Y+25, r24	; 0x19
    292e:	9a 8f       	std	Y+26, r25	; 0x1a
			float sinRoll = sin(ToRad(accYangle));  
    2930:	64 2d       	mov	r22, r4
    2932:	77 2d       	mov	r23, r7
    2934:	86 2d       	mov	r24, r6
    2936:	95 2d       	mov	r25, r5
    2938:	0e 94 c9 28 	call	0x5192	; 0x5192 <sin>
    293c:	6b 8b       	std	Y+19, r22	; 0x13
    293e:	7c 8b       	std	Y+20, r23	; 0x14
    2940:	8d 8b       	std	Y+21, r24	; 0x15
    2942:	9e 8b       	std	Y+22, r25	; 0x16
			float cosPitch = cos(ToRad(accXangle));
    2944:	c5 01       	movw	r24, r10
    2946:	b4 01       	movw	r22, r8
    2948:	25 e3       	ldi	r18, 0x35	; 53
    294a:	3a ef       	ldi	r19, 0xFA	; 250
    294c:	4e e8       	ldi	r20, 0x8E	; 142
    294e:	5c e3       	ldi	r21, 0x3C	; 60
    2950:	0e 94 1a 28 	call	0x5034	; 0x5034 <__mulsf3>
    2954:	76 2e       	mov	r7, r22
    2956:	67 2e       	mov	r6, r23
    2958:	58 2e       	mov	r5, r24
    295a:	49 2e       	mov	r4, r25
    295c:	a3 01       	movw	r20, r6
    295e:	92 01       	movw	r18, r4
    2960:	65 2f       	mov	r22, r21
    2962:	74 2f       	mov	r23, r20
    2964:	83 2f       	mov	r24, r19
    2966:	92 2f       	mov	r25, r18
    2968:	0e 94 63 26 	call	0x4cc6	; 0x4cc6 <cos>
    296c:	6b 8f       	std	Y+27, r22	; 0x1b
    296e:	7c 8f       	std	Y+28, r23	; 0x1c
    2970:	8d 8f       	std	Y+29, r24	; 0x1d
    2972:	9e 8f       	std	Y+30, r25	; 0x1e
			float sinPitch = sin(ToRad(accXangle));
    2974:	a3 01       	movw	r20, r6
    2976:	92 01       	movw	r18, r4
    2978:	65 2f       	mov	r22, r21
    297a:	74 2f       	mov	r23, r20
    297c:	83 2f       	mov	r24, r19
    297e:	92 2f       	mov	r25, r18
    2980:	0e 94 c9 28 	call	0x5192	; 0x5192 <sin>
    2984:	6f 8f       	std	Y+31, r22	; 0x1f
    2986:	78 a3       	std	Y+32, r23	; 0x20
    2988:	89 a3       	std	Y+33, r24	; 0x21
    298a:	9a a3       	std	Y+34, r25	; 0x22
			
			float Xh = magnet.x * cosPitch + magnet.z * sinPitch;
    298c:	b8 01       	movw	r22, r16
    298e:	88 27       	eor	r24, r24
    2990:	77 fd       	sbrc	r23, 7
    2992:	80 95       	com	r24
    2994:	98 2f       	mov	r25, r24
    2996:	0e 94 01 27 	call	0x4e02	; 0x4e02 <__floatsisf>
    299a:	2b 01       	movw	r4, r22
    299c:	3c 01       	movw	r6, r24
    299e:	b7 01       	movw	r22, r14
    29a0:	88 27       	eor	r24, r24
    29a2:	77 fd       	sbrc	r23, 7
    29a4:	80 95       	com	r24
    29a6:	98 2f       	mov	r25, r24
    29a8:	0e 94 01 27 	call	0x4e02	; 0x4e02 <__floatsisf>
    29ac:	7b 01       	movw	r14, r22
    29ae:	8c 01       	movw	r16, r24
			float Yh = magnet.x * sinRoll * sinPitch + magnet.y * cosRoll - magnet.z * sinRoll * cosPitch;		
    29b0:	6b 89       	ldd	r22, Y+19	; 0x13
    29b2:	7c 89       	ldd	r23, Y+20	; 0x14
    29b4:	8d 89       	ldd	r24, Y+21	; 0x15
    29b6:	9e 89       	ldd	r25, Y+22	; 0x16
    29b8:	a3 01       	movw	r20, r6
    29ba:	92 01       	movw	r18, r4
    29bc:	0e 94 1a 28 	call	0x5034	; 0x5034 <__mulsf3>
    29c0:	9b 01       	movw	r18, r22
    29c2:	ac 01       	movw	r20, r24
    29c4:	6f 8d       	ldd	r22, Y+31	; 0x1f
    29c6:	78 a1       	ldd	r23, Y+32	; 0x20
    29c8:	89 a1       	ldd	r24, Y+33	; 0x21
    29ca:	9a a1       	ldd	r25, Y+34	; 0x22
    29cc:	0e 94 1a 28 	call	0x5034	; 0x5034 <__mulsf3>
    29d0:	6b a3       	std	Y+35, r22	; 0x23
    29d2:	7c a3       	std	Y+36, r23	; 0x24
    29d4:	8d a3       	std	Y+37, r24	; 0x25
    29d6:	9e a3       	std	Y+38, r25	; 0x26
    29d8:	b1 01       	movw	r22, r2
    29da:	88 27       	eor	r24, r24
    29dc:	77 fd       	sbrc	r23, 7
    29de:	80 95       	com	r24
    29e0:	98 2f       	mov	r25, r24
    29e2:	0e 94 01 27 	call	0x4e02	; 0x4e02 <__floatsisf>
    29e6:	9b 01       	movw	r18, r22
    29e8:	ac 01       	movw	r20, r24
    29ea:	6f 89       	ldd	r22, Y+23	; 0x17
    29ec:	78 8d       	ldd	r23, Y+24	; 0x18
    29ee:	89 8d       	ldd	r24, Y+25	; 0x19
    29f0:	9a 8d       	ldd	r25, Y+26	; 0x1a
    29f2:	0e 94 1a 28 	call	0x5034	; 0x5034 <__mulsf3>
    29f6:	9b 01       	movw	r18, r22
    29f8:	ac 01       	movw	r20, r24
    29fa:	6b a1       	ldd	r22, Y+35	; 0x23
    29fc:	7c a1       	ldd	r23, Y+36	; 0x24
    29fe:	8d a1       	ldd	r24, Y+37	; 0x25
    2a00:	9e a1       	ldd	r25, Y+38	; 0x26
    2a02:	0e 94 99 25 	call	0x4b32	; 0x4b32 <__addsf3>
    2a06:	6f 8b       	std	Y+23, r22	; 0x17
    2a08:	78 8f       	std	Y+24, r23	; 0x18
    2a0a:	89 8f       	std	Y+25, r24	; 0x19
    2a0c:	9a 8f       	std	Y+26, r25	; 0x1a
    2a0e:	6b 89       	ldd	r22, Y+19	; 0x13
    2a10:	7c 89       	ldd	r23, Y+20	; 0x14
    2a12:	8d 89       	ldd	r24, Y+21	; 0x15
    2a14:	9e 89       	ldd	r25, Y+22	; 0x16
    2a16:	a8 01       	movw	r20, r16
    2a18:	97 01       	movw	r18, r14
    2a1a:	0e 94 1a 28 	call	0x5034	; 0x5034 <__mulsf3>
    2a1e:	9b 01       	movw	r18, r22
    2a20:	ac 01       	movw	r20, r24
    2a22:	6b 8d       	ldd	r22, Y+27	; 0x1b
    2a24:	7c 8d       	ldd	r23, Y+28	; 0x1c
    2a26:	8d 8d       	ldd	r24, Y+29	; 0x1d
    2a28:	9e 8d       	ldd	r25, Y+30	; 0x1e
    2a2a:	0e 94 1a 28 	call	0x5034	; 0x5034 <__mulsf3>
    2a2e:	9b 01       	movw	r18, r22
    2a30:	ac 01       	movw	r20, r24
    2a32:	6f 89       	ldd	r22, Y+23	; 0x17
    2a34:	78 8d       	ldd	r23, Y+24	; 0x18
    2a36:	89 8d       	ldd	r24, Y+25	; 0x19
    2a38:	9a 8d       	ldd	r25, Y+26	; 0x1a
    2a3a:	0e 94 98 25 	call	0x4b30	; 0x4b30 <__subsf3>
    2a3e:	6b 8b       	std	Y+19, r22	; 0x13
    2a40:	7c 8b       	std	Y+20, r23	; 0x14
    2a42:	8d 8b       	std	Y+21, r24	; 0x15
    2a44:	9e 8b       	std	Y+22, r25	; 0x16
			float cosRoll = cos(ToRad(accYangle));
			float sinRoll = sin(ToRad(accYangle));  
			float cosPitch = cos(ToRad(accXangle));
			float sinPitch = sin(ToRad(accXangle));
			
			float Xh = magnet.x * cosPitch + magnet.z * sinPitch;
    2a46:	6b 8d       	ldd	r22, Y+27	; 0x1b
    2a48:	7c 8d       	ldd	r23, Y+28	; 0x1c
    2a4a:	8d 8d       	ldd	r24, Y+29	; 0x1d
    2a4c:	9e 8d       	ldd	r25, Y+30	; 0x1e
    2a4e:	a3 01       	movw	r20, r6
    2a50:	92 01       	movw	r18, r4
    2a52:	0e 94 1a 28 	call	0x5034	; 0x5034 <__mulsf3>
    2a56:	2b 01       	movw	r4, r22
    2a58:	3c 01       	movw	r6, r24
    2a5a:	6f 8d       	ldd	r22, Y+31	; 0x1f
    2a5c:	78 a1       	ldd	r23, Y+32	; 0x20
    2a5e:	89 a1       	ldd	r24, Y+33	; 0x21
    2a60:	9a a1       	ldd	r25, Y+34	; 0x22
    2a62:	a8 01       	movw	r20, r16
    2a64:	97 01       	movw	r18, r14
    2a66:	0e 94 1a 28 	call	0x5034	; 0x5034 <__mulsf3>
    2a6a:	9b 01       	movw	r18, r22
    2a6c:	ac 01       	movw	r20, r24
    2a6e:	c3 01       	movw	r24, r6
    2a70:	b2 01       	movw	r22, r4
    2a72:	0e 94 99 25 	call	0x4b32	; 0x4b32 <__addsf3>
    2a76:	9b 01       	movw	r18, r22
    2a78:	ac 01       	movw	r20, r24
			float Yh = magnet.x * sinRoll * sinPitch + magnet.y * cosRoll - magnet.z * sinRoll * cosPitch;		
			float heading = atan2(Yh, Xh) - (LOCAL_MAGNETIC_DECLINAISON / 1000);
    2a7a:	6b 89       	ldd	r22, Y+19	; 0x13
    2a7c:	7c 89       	ldd	r23, Y+20	; 0x14
    2a7e:	8d 89       	ldd	r24, Y+21	; 0x15
    2a80:	9e 89       	ldd	r25, Y+22	; 0x16
    2a82:	0e 94 0c 26 	call	0x4c18	; 0x4c18 <atan2>
    2a86:	2a ec       	ldi	r18, 0xCA	; 202
    2a88:	37 e3       	ldi	r19, 0x37	; 55
    2a8a:	4b e5       	ldi	r20, 0x5B	; 91
    2a8c:	5c e3       	ldi	r21, 0x3C	; 60
    2a8e:	0e 94 98 25 	call	0x4b30	; 0x4b30 <__subsf3>
    2a92:	16 2f       	mov	r17, r22
    2a94:	07 2f       	mov	r16, r23
    2a96:	f8 2e       	mov	r15, r24
    2a98:	e9 2e       	mov	r14, r25
			if(heading < 0)
    2a9a:	a8 01       	movw	r20, r16
    2a9c:	97 01       	movw	r18, r14
    2a9e:	65 2f       	mov	r22, r21
    2aa0:	74 2f       	mov	r23, r20
    2aa2:	83 2f       	mov	r24, r19
    2aa4:	92 2f       	mov	r25, r18
    2aa6:	20 e0       	ldi	r18, 0x00	; 0
    2aa8:	30 e0       	ldi	r19, 0x00	; 0
    2aaa:	a9 01       	movw	r20, r18
    2aac:	0e 94 5f 26 	call	0x4cbe	; 0x4cbe <__cmpsf2>
    2ab0:	87 ff       	sbrs	r24, 7
    2ab2:	10 c0       	rjmp	.+32     	; 0x2ad4 <SrvImuDispatcher+0x8a0>
			{
				heading += 2*M_PI;
    2ab4:	a8 01       	movw	r20, r16
    2ab6:	97 01       	movw	r18, r14
    2ab8:	65 2f       	mov	r22, r21
    2aba:	74 2f       	mov	r23, r20
    2abc:	83 2f       	mov	r24, r19
    2abe:	92 2f       	mov	r25, r18
    2ac0:	2b ed       	ldi	r18, 0xDB	; 219
    2ac2:	3f e0       	ldi	r19, 0x0F	; 15
    2ac4:	49 ec       	ldi	r20, 0xC9	; 201
    2ac6:	50 e4       	ldi	r21, 0x40	; 64
    2ac8:	0e 94 99 25 	call	0x4b32	; 0x4b32 <__addsf3>
    2acc:	16 2f       	mov	r17, r22
    2ace:	07 2f       	mov	r16, r23
    2ad0:	f8 2e       	mov	r15, r24
    2ad2:	e9 2e       	mov	r14, r25
			}
			if(heading > 2*M_PI)
    2ad4:	a8 01       	movw	r20, r16
    2ad6:	97 01       	movw	r18, r14
    2ad8:	65 2f       	mov	r22, r21
    2ada:	70 2f       	mov	r23, r16
    2adc:	83 2f       	mov	r24, r19
    2ade:	9e 2d       	mov	r25, r14
    2ae0:	2b ed       	ldi	r18, 0xDB	; 219
    2ae2:	3f e0       	ldi	r19, 0x0F	; 15
    2ae4:	49 ec       	ldi	r20, 0xC9	; 201
    2ae6:	50 e4       	ldi	r21, 0x40	; 64
    2ae8:	0e 94 0f 28 	call	0x501e	; 0x501e <__gesf2>
    2aec:	18 16       	cp	r1, r24
    2aee:	84 f4       	brge	.+32     	; 0x2b10 <SrvImuDispatcher+0x8dc>
			{
				heading -= 2*M_PI;
    2af0:	a8 01       	movw	r20, r16
    2af2:	97 01       	movw	r18, r14
    2af4:	65 2f       	mov	r22, r21
    2af6:	70 2f       	mov	r23, r16
    2af8:	83 2f       	mov	r24, r19
    2afa:	9e 2d       	mov	r25, r14
    2afc:	2b ed       	ldi	r18, 0xDB	; 219
    2afe:	3f e0       	ldi	r19, 0x0F	; 15
    2b00:	49 ec       	ldi	r20, 0xC9	; 201
    2b02:	50 e4       	ldi	r21, 0x40	; 64
    2b04:	0e 94 98 25 	call	0x4b30	; 0x4b30 <__subsf3>
    2b08:	16 2f       	mov	r17, r22
    2b0a:	07 2f       	mov	r16, r23
    2b0c:	f8 2e       	mov	r15, r24
    2b0e:	e9 2e       	mov	r14, r25
			}
			direction = ToDeg(heading);
    2b10:	a8 01       	movw	r20, r16
    2b12:	97 01       	movw	r18, r14
    2b14:	65 2f       	mov	r22, r21
    2b16:	70 2f       	mov	r23, r16
    2b18:	83 2f       	mov	r24, r19
    2b1a:	9e 2d       	mov	r25, r14
    2b1c:	20 ee       	ldi	r18, 0xE0	; 224
    2b1e:	3e e2       	ldi	r19, 0x2E	; 46
    2b20:	45 e6       	ldi	r20, 0x65	; 101
    2b22:	52 e4       	ldi	r21, 0x42	; 66
    2b24:	0e 94 1a 28 	call	0x5034	; 0x5034 <__mulsf3>
    2b28:	0e 94 d3 26 	call	0x4da6	; 0x4da6 <__fixunssfsi>
    2b2c:	70 93 cd 01 	sts	0x01CD, r23
    2b30:	60 93 cc 01 	sts	0x01CC, r22
    2b34:	d4 cd       	rjmp	.-1112   	; 0x26de <SrvImuDispatcher+0x4aa>
		
		gyroRate				=	rotation.z / 14.375 ;
		gyroZAngle	+=	(float)((float)((gyroRate * interval) / 1000000.0));
		if(gyroZAngle < 0)
		{
			gyroZAngle += 360.0;
    2b36:	6e 2d       	mov	r22, r14
    2b38:	70 2f       	mov	r23, r16
    2b3a:	88 2d       	mov	r24, r8
    2b3c:	91 2f       	mov	r25, r17
    2b3e:	20 e0       	ldi	r18, 0x00	; 0
    2b40:	30 e0       	ldi	r19, 0x00	; 0
    2b42:	44 eb       	ldi	r20, 0xB4	; 180
    2b44:	53 e4       	ldi	r21, 0x43	; 67
    2b46:	0e 94 99 25 	call	0x4b32	; 0x4b32 <__addsf3>
    2b4a:	60 93 c8 01 	sts	0x01C8, r22
    2b4e:	70 93 c9 01 	sts	0x01C9, r23
    2b52:	80 93 ca 01 	sts	0x01CA, r24
    2b56:	90 93 cb 01 	sts	0x01CB, r25
    2b5a:	96 cd       	rjmp	.-1236   	; 0x2688 <SrvImuDispatcher+0x454>
		pid_erreur_roulis	= SrvPIDCompute( 0U , imu_desire.roulis					, imu_reel.roulis);
		pid_erreur_tangage	= SrvPIDCompute( 1U , imu_desire.tangage				, imu_reel.tangage);
		pid_erreur_lacet	= SrvPIDCompute( 2U , imu_reel.lacet + imu_desire.lacet	, imu_reel.lacet);
		if(imu_reel.maintient_altitude == TRUE)
		{
			pid_erreur_altitude	= SrvPIDCompute( 3U , imu_desire.altitude, imu_reel.altitude);
    2b5c:	60 91 e0 02 	lds	r22, 0x02E0
    2b60:	70 91 e1 02 	lds	r23, 0x02E1
    2b64:	80 e0       	ldi	r24, 0x00	; 0
    2b66:	90 e0       	ldi	r25, 0x00	; 0
    2b68:	0e 94 ff 26 	call	0x4dfe	; 0x4dfe <__floatunsisf>
    2b6c:	4b 01       	movw	r8, r22
    2b6e:	5c 01       	movw	r10, r24
    2b70:	60 91 c5 02 	lds	r22, 0x02C5
    2b74:	70 91 c6 02 	lds	r23, 0x02C6
    2b78:	80 e0       	ldi	r24, 0x00	; 0
    2b7a:	90 e0       	ldi	r25, 0x00	; 0
    2b7c:	0e 94 ff 26 	call	0x4dfe	; 0x4dfe <__floatunsisf>
    2b80:	8b 01       	movw	r16, r22
    2b82:	9c 01       	movw	r18, r24
    2b84:	83 e0       	ldi	r24, 0x03	; 3
    2b86:	b5 01       	movw	r22, r10
    2b88:	a4 01       	movw	r20, r8
    2b8a:	0e 94 5f 21 	call	0x42be	; 0x42be <SrvPIDCompute>
    2b8e:	90 93 cf 02 	sts	0x02CF, r25
    2b92:	80 93 ce 02 	sts	0x02CE, r24
    2b96:	40 91 bb 02 	lds	r20, 0x02BB
    2b9a:	50 91 bc 02 	lds	r21, 0x02BC
    2b9e:	75 ce       	rjmp	.-790    	; 0x288a <SrvImuDispatcher+0x656>

00002ba0 <SrvImuSensorsSetAltitudeDepart>:
/************************************************************************/
/*Enregistre l altitude de depart                                       */
/************************************************************************/
void SrvImuSensorsSetAltitudeDepart( void )
{
	altitude_depart = imu_reel.altitude;
    2ba0:	80 91 c5 02 	lds	r24, 0x02C5
    2ba4:	90 91 c6 02 	lds	r25, 0x02C6
    2ba8:	90 93 ab 01 	sts	0x01AB, r25
    2bac:	80 93 aa 01 	sts	0x01AA, r24
}
    2bb0:	08 95       	ret

00002bb2 <SrvImuSensorsSetAltitudeMaintient>:
/************************************************************************/
/*Enregistre l altitude de maintient                                    */
/************************************************************************/
void SrvImuSensorsSetAltitudeMaintient( Int8U altitude )
{
	if(altitude != 0U)
    2bb2:	88 23       	and	r24, r24
    2bb4:	19 f4       	brne	.+6      	; 0x2bbc <SrvImuSensorsSetAltitudeMaintient+0xa>
		imu_reel.maintient_altitude = TRUE;
		imu_desire.altitude = altitude_depart + altitude;
	}
	else
	{
		imu_reel.maintient_altitude = FALSE;
    2bb6:	10 92 c9 02 	sts	0x02C9, r1
    2bba:	08 95       	ret
/************************************************************************/
void SrvImuSensorsSetAltitudeMaintient( Int8U altitude )
{
	if(altitude != 0U)
	{
		imu_reel.maintient_altitude = TRUE;
    2bbc:	91 e0       	ldi	r25, 0x01	; 1
    2bbe:	90 93 c9 02 	sts	0x02C9, r25
		imu_desire.altitude = altitude_depart + altitude;
    2bc2:	20 91 aa 01 	lds	r18, 0x01AA
    2bc6:	30 91 ab 01 	lds	r19, 0x01AB
    2bca:	28 0f       	add	r18, r24
    2bcc:	31 1d       	adc	r19, r1
    2bce:	30 93 e1 02 	sts	0x02E1, r19
    2bd2:	20 93 e0 02 	sts	0x02E0, r18
    2bd6:	08 95       	ret

00002bd8 <SrvImuSensorsCalibration>:

/************************************************************************/
/*Calibration des capteurs                                              */
/************************************************************************/
void SrvImuSensorsCalibration( void )
{
    2bd8:	9f 92       	push	r9
    2bda:	af 92       	push	r10
    2bdc:	bf 92       	push	r11
    2bde:	cf 92       	push	r12
    2be0:	df 92       	push	r13
    2be2:	ef 92       	push	r14
    2be4:	ff 92       	push	r15
    2be6:	0f 93       	push	r16
    2be8:	1f 93       	push	r17
    2bea:	df 93       	push	r29
    2bec:	cf 93       	push	r28
    2bee:	cd b7       	in	r28, 0x3d	; 61
    2bf0:	de b7       	in	r29, 0x3e	; 62
    2bf2:	62 97       	sbiw	r28, 0x12	; 18
    2bf4:	0f b6       	in	r0, 0x3f	; 63
    2bf6:	f8 94       	cli
    2bf8:	de bf       	out	0x3e, r29	; 62
    2bfa:	0f be       	out	0x3f, r0	; 63
    2bfc:	cd bf       	out	0x3d, r28	; 61
	S_Gyr_Angle rotation;
	S_Acc_Angle acceleration;
	S_Mag_Angle magnet;

	Boolean calibrate = FALSE;
	Int8U sensors_calibrations = 0U;
    2bfe:	bb 24       	eor	r11, r11
    2c00:	97 e0       	ldi	r25, 0x07	; 7
    2c02:	e9 2e       	mov	r14, r25
    2c04:	f1 2c       	mov	r15, r1
    2c06:	ec 0e       	add	r14, r28
    2c08:	fd 1e       	adc	r15, r29
    2c0a:	8e 01       	movw	r16, r28
    2c0c:	0f 5f       	subi	r16, 0xFF	; 255
    2c0e:	1f 4f       	sbci	r17, 0xFF	; 255
    2c10:	8d e0       	ldi	r24, 0x0D	; 13
    2c12:	c8 2e       	mov	r12, r24
    2c14:	d1 2c       	mov	r13, r1
    2c16:	cc 0e       	add	r12, r28
    2c18:	dd 1e       	adc	r13, r29
	do
	{
		//ACC
		CmpBMA180GetAcceleration(&acceleration);
    2c1a:	c7 01       	movw	r24, r14
    2c1c:	0e 94 24 01 	call	0x248	; 0x248 <CmpBMA180GetAcceleration>
		//GYR
		CmpITG3205GetRotation(&rotation);
    2c20:	c8 01       	movw	r24, r16
    2c22:	0e 94 33 05 	call	0xa66	; 0xa66 <CmpITG3205GetRotation>
		//MAG
		CmpHMC5883GetHeading(&magnet);
    2c26:	c6 01       	movw	r24, r12
    2c28:	0e 94 8c 04 	call	0x918	; 0x918 <CmpHMC5883GetHeading>
		
		sensors_calibrations |= CmpITG3205IsCalibrate();
    2c2c:	0e 94 27 05 	call	0xa4e	; 0xa4e <CmpITG3205IsCalibrate>
    2c30:	a8 2e       	mov	r10, r24
		sensors_calibrations |= CmpBMA180IsCalibrate()  << 1U;
    2c32:	0e 94 18 01 	call	0x230	; 0x230 <CmpBMA180IsCalibrate>
    2c36:	98 2e       	mov	r9, r24
		sensors_calibrations |= CmpHMC5883IsCalibrate() << 2U;
    2c38:	0e 94 86 04 	call	0x90c	; 0x90c <CmpHMC5883IsCalibrate>
		CmpITG3205GetRotation(&rotation);
		//MAG
		CmpHMC5883GetHeading(&magnet);
		
		sensors_calibrations |= CmpITG3205IsCalibrate();
		sensors_calibrations |= CmpBMA180IsCalibrate()  << 1U;
    2c3c:	99 0c       	add	r9, r9
		sensors_calibrations |= CmpHMC5883IsCalibrate() << 2U;
    2c3e:	88 0f       	add	r24, r24
    2c40:	88 0f       	add	r24, r24
		CmpITG3205GetRotation(&rotation);
		//MAG
		CmpHMC5883GetHeading(&magnet);
		
		sensors_calibrations |= CmpITG3205IsCalibrate();
		sensors_calibrations |= CmpBMA180IsCalibrate()  << 1U;
    2c42:	89 29       	or	r24, r9
		//GYR
		CmpITG3205GetRotation(&rotation);
		//MAG
		CmpHMC5883GetHeading(&magnet);
		
		sensors_calibrations |= CmpITG3205IsCalibrate();
    2c44:	ba 28       	or	r11, r10
		sensors_calibrations |= CmpBMA180IsCalibrate()  << 1U;
		sensors_calibrations |= CmpHMC5883IsCalibrate() << 2U;
    2c46:	b8 2a       	or	r11, r24
		
		if(	sensors_calibrations == 7U )
    2c48:	8b 2d       	mov	r24, r11
    2c4a:	87 30       	cpi	r24, 0x07	; 7
    2c4c:	29 f0       	breq	.+10     	; 0x2c58 <SrvImuSensorsCalibration+0x80>
			DrvEepromConfigure();
		}
		else
		{
			//on attends 20ms
			DrvTimerDelayMs(STD_LOOP_TIME);
    2c4e:	84 e1       	ldi	r24, 0x14	; 20
    2c50:	90 e0       	ldi	r25, 0x00	; 0
    2c52:	0e 94 30 0a 	call	0x1460	; 0x1460 <DrvTimerDelayMs>
    2c56:	e1 cf       	rjmp	.-62     	; 0x2c1a <SrvImuSensorsCalibration+0x42>
		if(	sensors_calibrations == 7U )
		{
			//la calibration est fini
			calibrate = TRUE;
			//on valide dans l'eeprom les données des capteurs calibrés
			DrvEepromConfigure();
    2c58:	0e 94 f0 06 	call	0xde0	; 0xde0 <DrvEepromConfigure>
		{
			//on attends 20ms
			DrvTimerDelayMs(STD_LOOP_TIME);
		}
	} while (!calibrate);
}
    2c5c:	62 96       	adiw	r28, 0x12	; 18
    2c5e:	0f b6       	in	r0, 0x3f	; 63
    2c60:	f8 94       	cli
    2c62:	de bf       	out	0x3e, r29	; 62
    2c64:	0f be       	out	0x3f, r0	; 63
    2c66:	cd bf       	out	0x3d, r28	; 61
    2c68:	cf 91       	pop	r28
    2c6a:	df 91       	pop	r29
    2c6c:	1f 91       	pop	r17
    2c6e:	0f 91       	pop	r16
    2c70:	ff 90       	pop	r15
    2c72:	ef 90       	pop	r14
    2c74:	df 90       	pop	r13
    2c76:	cf 90       	pop	r12
    2c78:	bf 90       	pop	r11
    2c7a:	af 90       	pop	r10
    2c7c:	9f 90       	pop	r9
    2c7e:	08 95       	ret

00002c80 <SrvKalmanFilterX>:
double dtX, yX, SX;
double KX_0, KX_1;

////////////////////////////////////////PUBLIC FONCTIONS////////////////////////////////////////
double SrvKalmanFilterX(double newAngle, double newRate, double dtime)
{
    2c80:	2f 92       	push	r2
    2c82:	3f 92       	push	r3
    2c84:	4f 92       	push	r4
    2c86:	5f 92       	push	r5
    2c88:	6f 92       	push	r6
    2c8a:	7f 92       	push	r7
    2c8c:	8f 92       	push	r8
    2c8e:	9f 92       	push	r9
    2c90:	af 92       	push	r10
    2c92:	bf 92       	push	r11
    2c94:	cf 92       	push	r12
    2c96:	df 92       	push	r13
    2c98:	ef 92       	push	r14
    2c9a:	ff 92       	push	r15
    2c9c:	0f 93       	push	r16
    2c9e:	1f 93       	push	r17
    2ca0:	df 93       	push	r29
    2ca2:	cf 93       	push	r28
    2ca4:	cd b7       	in	r28, 0x3d	; 61
    2ca6:	de b7       	in	r29, 0x3e	; 62
    2ca8:	6d 97       	sbiw	r28, 0x1d	; 29
    2caa:	0f b6       	in	r0, 0x3f	; 63
    2cac:	f8 94       	cli
    2cae:	de bf       	out	0x3e, r29	; 62
    2cb0:	0f be       	out	0x3f, r0	; 63
    2cb2:	cd bf       	out	0x3d, r28	; 61
    2cb4:	69 8f       	std	Y+25, r22	; 0x19
    2cb6:	7a 8f       	std	Y+26, r23	; 0x1a
    2cb8:	8b 8f       	std	Y+27, r24	; 0x1b
    2cba:	9c 8f       	std	Y+28, r25	; 0x1c
    2cbc:	59 01       	movw	r10, r18
    2cbe:	6a 01       	movw	r12, r20
    2cc0:	c8 01       	movw	r24, r16
    2cc2:	b7 01       	movw	r22, r14
	dtX = dtime / 10000.0; // Convert from microseconds to seconds
    2cc4:	20 e0       	ldi	r18, 0x00	; 0
    2cc6:	30 e4       	ldi	r19, 0x40	; 64
    2cc8:	4c e1       	ldi	r20, 0x1C	; 28
    2cca:	56 e4       	ldi	r21, 0x46	; 70
    2ccc:	0e 94 66 26 	call	0x4ccc	; 0x4ccc <__divsf3>
    2cd0:	69 83       	std	Y+1, r22	; 0x01
    2cd2:	7a 83       	std	Y+2, r23	; 0x02
    2cd4:	8b 83       	std	Y+3, r24	; 0x03
    2cd6:	9c 83       	std	Y+4, r25	; 0x04
    2cd8:	7b 01       	movw	r14, r22
    2cda:	8c 01       	movw	r16, r24
    2cdc:	cb 01       	movw	r24, r22
    2cde:	ab 81       	ldd	r26, Y+3	; 0x03
    2ce0:	bc 81       	ldd	r27, Y+4	; 0x04
    2ce2:	80 93 75 03 	sts	0x0375, r24
    2ce6:	90 93 76 03 	sts	0x0376, r25
    2cea:	a0 93 77 03 	sts	0x0377, r26
    2cee:	b0 93 78 03 	sts	0x0378, r27

	// Discrete Kalman filter time update equations - Time Update ("Predict")
	// Update xhat - Project the state ahead
	angleX += dtX * (newRate - biasX);
    2cf2:	80 91 de 01 	lds	r24, 0x01DE
    2cf6:	90 91 df 01 	lds	r25, 0x01DF
    2cfa:	a0 91 e0 01 	lds	r26, 0x01E0
    2cfe:	b0 91 e1 01 	lds	r27, 0x01E1
    2d02:	8d 87       	std	Y+13, r24	; 0x0d
    2d04:	9e 87       	std	Y+14, r25	; 0x0e
    2d06:	af 87       	std	Y+15, r26	; 0x0f
    2d08:	b8 8b       	std	Y+16, r27	; 0x10
    2d0a:	c6 01       	movw	r24, r12
    2d0c:	b5 01       	movw	r22, r10
    2d0e:	2d 85       	ldd	r18, Y+13	; 0x0d
    2d10:	3e 85       	ldd	r19, Y+14	; 0x0e
    2d12:	4f 85       	ldd	r20, Y+15	; 0x0f
    2d14:	58 89       	ldd	r21, Y+16	; 0x10
    2d16:	0e 94 98 25 	call	0x4b30	; 0x4b30 <__subsf3>
    2d1a:	9b 01       	movw	r18, r22
    2d1c:	ac 01       	movw	r20, r24
    2d1e:	69 81       	ldd	r22, Y+1	; 0x01
    2d20:	7a 81       	ldd	r23, Y+2	; 0x02
    2d22:	8b 81       	ldd	r24, Y+3	; 0x03
    2d24:	9c 81       	ldd	r25, Y+4	; 0x04
    2d26:	0e 94 1a 28 	call	0x5034	; 0x5034 <__mulsf3>
    2d2a:	20 91 da 01 	lds	r18, 0x01DA
    2d2e:	30 91 db 01 	lds	r19, 0x01DB
    2d32:	40 91 dc 01 	lds	r20, 0x01DC
    2d36:	50 91 dd 01 	lds	r21, 0x01DD
    2d3a:	0e 94 99 25 	call	0x4b32	; 0x4b32 <__addsf3>
    2d3e:	6d 83       	std	Y+5, r22	; 0x05
    2d40:	7e 83       	std	Y+6, r23	; 0x06
    2d42:	8f 83       	std	Y+7, r24	; 0x07
    2d44:	98 87       	std	Y+8, r25	; 0x08

	// Update estimation error covariance - Project the error covariance ahead
	PX_00 += -dtX * (PX_10 + PX_01) + Q_angleX * dtX;
    2d46:	17 fb       	bst	r17, 7
    2d48:	10 95       	com	r17
    2d4a:	17 f9       	bld	r17, 7
    2d4c:	10 95       	com	r17
    2d4e:	60 90 ea 01 	lds	r6, 0x01EA
    2d52:	70 90 eb 01 	lds	r7, 0x01EB
    2d56:	80 90 ec 01 	lds	r8, 0x01EC
    2d5a:	90 90 ed 01 	lds	r9, 0x01ED
    2d5e:	a0 90 e6 01 	lds	r10, 0x01E6
    2d62:	b0 90 e7 01 	lds	r11, 0x01E7
    2d66:	c0 90 e8 01 	lds	r12, 0x01E8
    2d6a:	d0 90 e9 01 	lds	r13, 0x01E9
    2d6e:	c4 01       	movw	r24, r8
    2d70:	b3 01       	movw	r22, r6
    2d72:	a6 01       	movw	r20, r12
    2d74:	95 01       	movw	r18, r10
    2d76:	0e 94 99 25 	call	0x4b32	; 0x4b32 <__addsf3>
    2d7a:	9b 01       	movw	r18, r22
    2d7c:	ac 01       	movw	r20, r24
    2d7e:	c8 01       	movw	r24, r16
    2d80:	b7 01       	movw	r22, r14
    2d82:	0e 94 1a 28 	call	0x5034	; 0x5034 <__mulsf3>
    2d86:	1b 01       	movw	r2, r22
    2d88:	2c 01       	movw	r4, r24
    2d8a:	69 81       	ldd	r22, Y+1	; 0x01
    2d8c:	7a 81       	ldd	r23, Y+2	; 0x02
    2d8e:	8b 81       	ldd	r24, Y+3	; 0x03
    2d90:	9c 81       	ldd	r25, Y+4	; 0x04
    2d92:	2f e6       	ldi	r18, 0x6F	; 111
    2d94:	32 e1       	ldi	r19, 0x12	; 18
    2d96:	43 e8       	ldi	r20, 0x83	; 131
    2d98:	5a e3       	ldi	r21, 0x3A	; 58
    2d9a:	0e 94 1a 28 	call	0x5034	; 0x5034 <__mulsf3>
    2d9e:	9b 01       	movw	r18, r22
    2da0:	ac 01       	movw	r20, r24
    2da2:	c2 01       	movw	r24, r4
    2da4:	b1 01       	movw	r22, r2
    2da6:	0e 94 99 25 	call	0x4b32	; 0x4b32 <__addsf3>
    2daa:	20 91 e2 01 	lds	r18, 0x01E2
    2dae:	30 91 e3 01 	lds	r19, 0x01E3
    2db2:	40 91 e4 01 	lds	r20, 0x01E4
    2db6:	50 91 e5 01 	lds	r21, 0x01E5
    2dba:	0e 94 99 25 	call	0x4b32	; 0x4b32 <__addsf3>
    2dbe:	26 2e       	mov	r2, r22
    2dc0:	47 2e       	mov	r4, r23
    2dc2:	38 2e       	mov	r3, r24
    2dc4:	99 87       	std	Y+9, r25	; 0x09
	PX_01 += -dtX * PX_11;
    2dc6:	80 91 ee 01 	lds	r24, 0x01EE
    2dca:	90 91 ef 01 	lds	r25, 0x01EF
    2dce:	a0 91 f0 01 	lds	r26, 0x01F0
    2dd2:	b0 91 f1 01 	lds	r27, 0x01F1
    2dd6:	89 8b       	std	Y+17, r24	; 0x11
    2dd8:	9a 8b       	std	Y+18, r25	; 0x12
    2dda:	ab 8b       	std	Y+19, r26	; 0x13
    2ddc:	bc 8b       	std	Y+20, r27	; 0x14
    2dde:	c8 01       	movw	r24, r16
    2de0:	b7 01       	movw	r22, r14
    2de2:	29 89       	ldd	r18, Y+17	; 0x11
    2de4:	3a 89       	ldd	r19, Y+18	; 0x12
    2de6:	4b 89       	ldd	r20, Y+19	; 0x13
    2de8:	5c 89       	ldd	r21, Y+20	; 0x14
    2dea:	0e 94 1a 28 	call	0x5034	; 0x5034 <__mulsf3>
    2dee:	f6 2e       	mov	r15, r22
    2df0:	07 2f       	mov	r16, r23
    2df2:	18 2f       	mov	r17, r24
    2df4:	e9 2e       	mov	r14, r25
    2df6:	c6 01       	movw	r24, r12
    2df8:	b5 01       	movw	r22, r10
    2dfa:	2f 2d       	mov	r18, r15
    2dfc:	30 2f       	mov	r19, r16
    2dfe:	41 2f       	mov	r20, r17
    2e00:	5e 2d       	mov	r21, r14
    2e02:	0e 94 99 25 	call	0x4b32	; 0x4b32 <__addsf3>
    2e06:	6d 8b       	std	Y+21, r22	; 0x15
    2e08:	7e 8b       	std	Y+22, r23	; 0x16
    2e0a:	8f 8b       	std	Y+23, r24	; 0x17
    2e0c:	98 8f       	std	Y+24, r25	; 0x18
	PX_10 += -dtX * PX_11;
    2e0e:	c4 01       	movw	r24, r8
    2e10:	b3 01       	movw	r22, r6
    2e12:	2f 2d       	mov	r18, r15
    2e14:	30 2f       	mov	r19, r16
    2e16:	41 2f       	mov	r20, r17
    2e18:	5e 2d       	mov	r21, r14
    2e1a:	0e 94 99 25 	call	0x4b32	; 0x4b32 <__addsf3>
    2e1e:	66 2e       	mov	r6, r22
    2e20:	97 2e       	mov	r9, r23
    2e22:	88 2e       	mov	r8, r24
    2e24:	79 2e       	mov	r7, r25
	PX_11 += +Q_gyroX * dtX;

	// Discrete Kalman filter measurement update equations - Measurement Update ("Correct")
	// Calculate Kalman gain - Compute the Kalman gain
	SX = PX_00 + R_angleX;
    2e26:	29 85       	ldd	r18, Y+9	; 0x09
    2e28:	62 2d       	mov	r22, r2
    2e2a:	74 2d       	mov	r23, r4
    2e2c:	83 2d       	mov	r24, r3
    2e2e:	92 2f       	mov	r25, r18
    2e30:	2f e8       	ldi	r18, 0x8F	; 143
    2e32:	32 ec       	ldi	r19, 0xC2	; 194
    2e34:	45 ef       	ldi	r20, 0xF5	; 245
    2e36:	5c e3       	ldi	r21, 0x3C	; 60
    2e38:	0e 94 99 25 	call	0x4b32	; 0x4b32 <__addsf3>
    2e3c:	e6 2e       	mov	r14, r22
    2e3e:	d7 2e       	mov	r13, r23
    2e40:	c8 2e       	mov	r12, r24
    2e42:	b9 2e       	mov	r11, r25
    2e44:	86 2f       	mov	r24, r22
    2e46:	9d 2d       	mov	r25, r13
    2e48:	ac 2d       	mov	r26, r12
    2e4a:	bb 2d       	mov	r27, r11
    2e4c:	80 93 7d 03 	sts	0x037D, r24
    2e50:	90 93 7e 03 	sts	0x037E, r25
    2e54:	a0 93 7f 03 	sts	0x037F, r26
    2e58:	b0 93 80 03 	sts	0x0380, r27
	KX_0 = PX_00 / SX;
    2e5c:	29 85       	ldd	r18, Y+9	; 0x09
    2e5e:	62 2d       	mov	r22, r2
    2e60:	74 2d       	mov	r23, r4
    2e62:	83 2d       	mov	r24, r3
    2e64:	92 2f       	mov	r25, r18
    2e66:	2e 2d       	mov	r18, r14
    2e68:	3d 2d       	mov	r19, r13
    2e6a:	4c 2d       	mov	r20, r12
    2e6c:	5b 2d       	mov	r21, r11
    2e6e:	0e 94 66 26 	call	0x4ccc	; 0x4ccc <__divsf3>
    2e72:	f6 2e       	mov	r15, r22
    2e74:	07 2f       	mov	r16, r23
    2e76:	18 2f       	mov	r17, r24
    2e78:	a9 2e       	mov	r10, r25
    2e7a:	86 2f       	mov	r24, r22
    2e7c:	90 2f       	mov	r25, r16
    2e7e:	a1 2f       	mov	r26, r17
    2e80:	ba 2d       	mov	r27, r10
    2e82:	80 93 5d 03 	sts	0x035D, r24
    2e86:	90 93 5e 03 	sts	0x035E, r25
    2e8a:	a0 93 5f 03 	sts	0x035F, r26
    2e8e:	b0 93 60 03 	sts	0x0360, r27
	KX_1 = PX_10 / SX;
    2e92:	66 2d       	mov	r22, r6
    2e94:	79 2d       	mov	r23, r9
    2e96:	88 2d       	mov	r24, r8
    2e98:	97 2d       	mov	r25, r7
    2e9a:	2e 2d       	mov	r18, r14
    2e9c:	3d 2d       	mov	r19, r13
    2e9e:	4c 2d       	mov	r20, r12
    2ea0:	5b 2d       	mov	r21, r11
    2ea2:	0e 94 66 26 	call	0x4ccc	; 0x4ccc <__divsf3>
    2ea6:	56 2e       	mov	r5, r22
    2ea8:	7a 87       	std	Y+10, r23	; 0x0a
    2eaa:	8b 87       	std	Y+11, r24	; 0x0b
    2eac:	9c 87       	std	Y+12, r25	; 0x0c
    2eae:	47 2f       	mov	r20, r23
    2eb0:	38 2f       	mov	r19, r24
    2eb2:	29 2f       	mov	r18, r25
    2eb4:	86 2f       	mov	r24, r22
    2eb6:	94 2f       	mov	r25, r20
    2eb8:	a3 2f       	mov	r26, r19
    2eba:	b2 2f       	mov	r27, r18
    2ebc:	80 93 6d 03 	sts	0x036D, r24
    2ec0:	90 93 6e 03 	sts	0x036E, r25
    2ec4:	a0 93 6f 03 	sts	0x036F, r26
    2ec8:	b0 93 70 03 	sts	0x0370, r27

	// Calculate angle and resting rate - Update estimate with measurement zk
	yX = newAngle - angleX;
    2ecc:	69 8d       	ldd	r22, Y+25	; 0x19
    2ece:	7a 8d       	ldd	r23, Y+26	; 0x1a
    2ed0:	8b 8d       	ldd	r24, Y+27	; 0x1b
    2ed2:	9c 8d       	ldd	r25, Y+28	; 0x1c
    2ed4:	bd 81       	ldd	r27, Y+5	; 0x05
    2ed6:	ae 81       	ldd	r26, Y+6	; 0x06
    2ed8:	ef 80       	ldd	r14, Y+7	; 0x07
    2eda:	d8 84       	ldd	r13, Y+8	; 0x08
    2edc:	2b 2f       	mov	r18, r27
    2ede:	3a 2f       	mov	r19, r26
    2ee0:	4e 2d       	mov	r20, r14
    2ee2:	5d 2d       	mov	r21, r13
    2ee4:	0e 94 98 25 	call	0x4b30	; 0x4b30 <__subsf3>
    2ee8:	e6 2e       	mov	r14, r22
    2eea:	d7 2e       	mov	r13, r23
    2eec:	c8 2e       	mov	r12, r24
    2eee:	b9 2e       	mov	r11, r25
    2ef0:	86 2f       	mov	r24, r22
    2ef2:	9d 2d       	mov	r25, r13
    2ef4:	ac 2d       	mov	r26, r12
    2ef6:	bb 2d       	mov	r27, r11
    2ef8:	80 93 71 03 	sts	0x0371, r24
    2efc:	90 93 72 03 	sts	0x0372, r25
    2f00:	a0 93 73 03 	sts	0x0373, r26
    2f04:	b0 93 74 03 	sts	0x0374, r27
	angleX += KX_0 * yX;
    2f08:	6f 2d       	mov	r22, r15
    2f0a:	70 2f       	mov	r23, r16
    2f0c:	81 2f       	mov	r24, r17
    2f0e:	9a 2d       	mov	r25, r10
    2f10:	2e 2d       	mov	r18, r14
    2f12:	3d 2d       	mov	r19, r13
    2f14:	4c 2d       	mov	r20, r12
    2f16:	5b 2d       	mov	r21, r11
    2f18:	0e 94 1a 28 	call	0x5034	; 0x5034 <__mulsf3>
    2f1c:	9b 01       	movw	r18, r22
    2f1e:	ac 01       	movw	r20, r24
    2f20:	bd 81       	ldd	r27, Y+5	; 0x05
    2f22:	ae 81       	ldd	r26, Y+6	; 0x06
    2f24:	9f 81       	ldd	r25, Y+7	; 0x07
    2f26:	99 8f       	std	Y+25, r25	; 0x19
    2f28:	e8 85       	ldd	r30, Y+8	; 0x08
    2f2a:	ed 8f       	std	Y+29, r30	; 0x1d
    2f2c:	6b 2f       	mov	r22, r27
    2f2e:	7a 2f       	mov	r23, r26
    2f30:	89 2f       	mov	r24, r25
    2f32:	9e 2f       	mov	r25, r30
    2f34:	0e 94 99 25 	call	0x4b32	; 0x4b32 <__addsf3>
    2f38:	6d 83       	std	Y+5, r22	; 0x05
    2f3a:	7e 83       	std	Y+6, r23	; 0x06
    2f3c:	8f 83       	std	Y+7, r24	; 0x07
    2f3e:	98 87       	std	Y+8, r25	; 0x08
    2f40:	47 2f       	mov	r20, r23
    2f42:	38 2f       	mov	r19, r24
    2f44:	29 2f       	mov	r18, r25
    2f46:	86 2f       	mov	r24, r22
    2f48:	94 2f       	mov	r25, r20
    2f4a:	a3 2f       	mov	r26, r19
    2f4c:	b2 2f       	mov	r27, r18
    2f4e:	80 93 da 01 	sts	0x01DA, r24
    2f52:	90 93 db 01 	sts	0x01DB, r25
    2f56:	a0 93 dc 01 	sts	0x01DC, r26
    2f5a:	b0 93 dd 01 	sts	0x01DD, r27
	biasX += KX_1 * yX;
    2f5e:	4a 85       	ldd	r20, Y+10	; 0x0a
    2f60:	3b 85       	ldd	r19, Y+11	; 0x0b
    2f62:	2c 85       	ldd	r18, Y+12	; 0x0c
    2f64:	65 2d       	mov	r22, r5
    2f66:	74 2f       	mov	r23, r20
    2f68:	83 2f       	mov	r24, r19
    2f6a:	92 2f       	mov	r25, r18
    2f6c:	2e 2d       	mov	r18, r14
    2f6e:	3d 2d       	mov	r19, r13
    2f70:	4c 2d       	mov	r20, r12
    2f72:	5b 2d       	mov	r21, r11
    2f74:	0e 94 1a 28 	call	0x5034	; 0x5034 <__mulsf3>
    2f78:	9b 01       	movw	r18, r22
    2f7a:	ac 01       	movw	r20, r24
    2f7c:	6d 85       	ldd	r22, Y+13	; 0x0d
    2f7e:	7e 85       	ldd	r23, Y+14	; 0x0e
    2f80:	8f 85       	ldd	r24, Y+15	; 0x0f
    2f82:	98 89       	ldd	r25, Y+16	; 0x10
    2f84:	0e 94 99 25 	call	0x4b32	; 0x4b32 <__addsf3>
    2f88:	60 93 de 01 	sts	0x01DE, r22
    2f8c:	70 93 df 01 	sts	0x01DF, r23
    2f90:	80 93 e0 01 	sts	0x01E0, r24
    2f94:	90 93 e1 01 	sts	0x01E1, r25

	// Calculate estimation error covariance - Update the error covariance
	PX_00 -= KX_0 * PX_00;
    2f98:	29 85       	ldd	r18, Y+9	; 0x09
    2f9a:	62 2d       	mov	r22, r2
    2f9c:	74 2d       	mov	r23, r4
    2f9e:	83 2d       	mov	r24, r3
    2fa0:	92 2f       	mov	r25, r18
    2fa2:	2f 2d       	mov	r18, r15
    2fa4:	30 2f       	mov	r19, r16
    2fa6:	41 2f       	mov	r20, r17
    2fa8:	5a 2d       	mov	r21, r10
    2faa:	0e 94 1a 28 	call	0x5034	; 0x5034 <__mulsf3>
    2fae:	9b 01       	movw	r18, r22
    2fb0:	ac 01       	movw	r20, r24
    2fb2:	d9 84       	ldd	r13, Y+9	; 0x09
    2fb4:	62 2d       	mov	r22, r2
    2fb6:	74 2d       	mov	r23, r4
    2fb8:	83 2d       	mov	r24, r3
    2fba:	9d 2d       	mov	r25, r13
    2fbc:	0e 94 98 25 	call	0x4b30	; 0x4b30 <__subsf3>
    2fc0:	e6 2e       	mov	r14, r22
    2fc2:	d7 2e       	mov	r13, r23
    2fc4:	c8 2e       	mov	r12, r24
    2fc6:	b9 2e       	mov	r11, r25
    2fc8:	86 2f       	mov	r24, r22
    2fca:	9d 2d       	mov	r25, r13
    2fcc:	ac 2d       	mov	r26, r12
    2fce:	bb 2d       	mov	r27, r11
    2fd0:	80 93 e2 01 	sts	0x01E2, r24
    2fd4:	90 93 e3 01 	sts	0x01E3, r25
    2fd8:	a0 93 e4 01 	sts	0x01E4, r26
    2fdc:	b0 93 e5 01 	sts	0x01E5, r27
	PX_01 -= KX_0 * PX_01;
    2fe0:	5d 89       	ldd	r21, Y+21	; 0x15
    2fe2:	4e 89       	ldd	r20, Y+22	; 0x16
    2fe4:	3f 89       	ldd	r19, Y+23	; 0x17
    2fe6:	28 8d       	ldd	r18, Y+24	; 0x18
    2fe8:	65 2f       	mov	r22, r21
    2fea:	74 2f       	mov	r23, r20
    2fec:	83 2f       	mov	r24, r19
    2fee:	92 2f       	mov	r25, r18
    2ff0:	2f 2d       	mov	r18, r15
    2ff2:	30 2f       	mov	r19, r16
    2ff4:	41 2f       	mov	r20, r17
    2ff6:	5a 2d       	mov	r21, r10
    2ff8:	0e 94 1a 28 	call	0x5034	; 0x5034 <__mulsf3>
    2ffc:	9b 01       	movw	r18, r22
    2ffe:	ac 01       	movw	r20, r24
    3000:	bd 89       	ldd	r27, Y+21	; 0x15
    3002:	ae 89       	ldd	r26, Y+22	; 0x16
    3004:	1f 89       	ldd	r17, Y+23	; 0x17
    3006:	08 8d       	ldd	r16, Y+24	; 0x18
    3008:	6b 2f       	mov	r22, r27
    300a:	7a 2f       	mov	r23, r26
    300c:	81 2f       	mov	r24, r17
    300e:	90 2f       	mov	r25, r16
    3010:	0e 94 98 25 	call	0x4b30	; 0x4b30 <__subsf3>
    3014:	f6 2e       	mov	r15, r22
    3016:	07 2f       	mov	r16, r23
    3018:	18 2f       	mov	r17, r24
    301a:	a9 2e       	mov	r10, r25
    301c:	86 2f       	mov	r24, r22
    301e:	90 2f       	mov	r25, r16
    3020:	a1 2f       	mov	r26, r17
    3022:	ba 2d       	mov	r27, r10
    3024:	80 93 e6 01 	sts	0x01E6, r24
    3028:	90 93 e7 01 	sts	0x01E7, r25
    302c:	a0 93 e8 01 	sts	0x01E8, r26
    3030:	b0 93 e9 01 	sts	0x01E9, r27
	PX_10 -= KX_1 * PX_00;
    3034:	4a 85       	ldd	r20, Y+10	; 0x0a
    3036:	3b 85       	ldd	r19, Y+11	; 0x0b
    3038:	2c 85       	ldd	r18, Y+12	; 0x0c
    303a:	65 2d       	mov	r22, r5
    303c:	74 2f       	mov	r23, r20
    303e:	83 2f       	mov	r24, r19
    3040:	92 2f       	mov	r25, r18
    3042:	2e 2d       	mov	r18, r14
    3044:	3d 2d       	mov	r19, r13
    3046:	4c 2d       	mov	r20, r12
    3048:	5b 2d       	mov	r21, r11
    304a:	0e 94 1a 28 	call	0x5034	; 0x5034 <__mulsf3>
    304e:	9b 01       	movw	r18, r22
    3050:	ac 01       	movw	r20, r24
    3052:	66 2d       	mov	r22, r6
    3054:	79 2d       	mov	r23, r9
    3056:	88 2d       	mov	r24, r8
    3058:	97 2d       	mov	r25, r7
    305a:	0e 94 98 25 	call	0x4b30	; 0x4b30 <__subsf3>
    305e:	60 93 ea 01 	sts	0x01EA, r22
    3062:	70 93 eb 01 	sts	0x01EB, r23
    3066:	80 93 ec 01 	sts	0x01EC, r24
    306a:	90 93 ed 01 	sts	0x01ED, r25

	// Update estimation error covariance - Project the error covariance ahead
	PX_00 += -dtX * (PX_10 + PX_01) + Q_angleX * dtX;
	PX_01 += -dtX * PX_11;
	PX_10 += -dtX * PX_11;
	PX_11 += +Q_gyroX * dtX;
    306e:	69 81       	ldd	r22, Y+1	; 0x01
    3070:	7a 81       	ldd	r23, Y+2	; 0x02
    3072:	8b 81       	ldd	r24, Y+3	; 0x03
    3074:	9c 81       	ldd	r25, Y+4	; 0x04
    3076:	26 ea       	ldi	r18, 0xA6	; 166
    3078:	3b e9       	ldi	r19, 0x9B	; 155
    307a:	44 e4       	ldi	r20, 0x44	; 68
    307c:	5b e3       	ldi	r21, 0x3B	; 59
    307e:	0e 94 1a 28 	call	0x5034	; 0x5034 <__mulsf3>
    3082:	9b 01       	movw	r18, r22
    3084:	ac 01       	movw	r20, r24
    3086:	69 89       	ldd	r22, Y+17	; 0x11
    3088:	7a 89       	ldd	r23, Y+18	; 0x12
    308a:	8b 89       	ldd	r24, Y+19	; 0x13
    308c:	9c 89       	ldd	r25, Y+20	; 0x14
    308e:	0e 94 99 25 	call	0x4b32	; 0x4b32 <__addsf3>
    3092:	3b 01       	movw	r6, r22
    3094:	4c 01       	movw	r8, r24

	// Calculate estimation error covariance - Update the error covariance
	PX_00 -= KX_0 * PX_00;
	PX_01 -= KX_0 * PX_01;
	PX_10 -= KX_1 * PX_00;
	PX_11 -= KX_1 * PX_01;
    3096:	4a 85       	ldd	r20, Y+10	; 0x0a
    3098:	3b 85       	ldd	r19, Y+11	; 0x0b
    309a:	2c 85       	ldd	r18, Y+12	; 0x0c
    309c:	65 2d       	mov	r22, r5
    309e:	74 2f       	mov	r23, r20
    30a0:	83 2f       	mov	r24, r19
    30a2:	92 2f       	mov	r25, r18
    30a4:	2f 2d       	mov	r18, r15
    30a6:	30 2f       	mov	r19, r16
    30a8:	41 2f       	mov	r20, r17
    30aa:	5a 2d       	mov	r21, r10
    30ac:	0e 94 1a 28 	call	0x5034	; 0x5034 <__mulsf3>
    30b0:	9b 01       	movw	r18, r22
    30b2:	ac 01       	movw	r20, r24
    30b4:	c4 01       	movw	r24, r8
    30b6:	b3 01       	movw	r22, r6
    30b8:	0e 94 98 25 	call	0x4b30	; 0x4b30 <__subsf3>
    30bc:	60 93 ee 01 	sts	0x01EE, r22
    30c0:	70 93 ef 01 	sts	0x01EF, r23
    30c4:	80 93 f0 01 	sts	0x01F0, r24
    30c8:	90 93 f1 01 	sts	0x01F1, r25

	return angleX;
}
    30cc:	5d 81       	ldd	r21, Y+5	; 0x05
    30ce:	4e 81       	ldd	r20, Y+6	; 0x06
    30d0:	3f 81       	ldd	r19, Y+7	; 0x07
    30d2:	28 85       	ldd	r18, Y+8	; 0x08
    30d4:	65 2f       	mov	r22, r21
    30d6:	74 2f       	mov	r23, r20
    30d8:	83 2f       	mov	r24, r19
    30da:	92 2f       	mov	r25, r18
    30dc:	6d 96       	adiw	r28, 0x1d	; 29
    30de:	0f b6       	in	r0, 0x3f	; 63
    30e0:	f8 94       	cli
    30e2:	de bf       	out	0x3e, r29	; 62
    30e4:	0f be       	out	0x3f, r0	; 63
    30e6:	cd bf       	out	0x3d, r28	; 61
    30e8:	cf 91       	pop	r28
    30ea:	df 91       	pop	r29
    30ec:	1f 91       	pop	r17
    30ee:	0f 91       	pop	r16
    30f0:	ff 90       	pop	r15
    30f2:	ef 90       	pop	r14
    30f4:	df 90       	pop	r13
    30f6:	cf 90       	pop	r12
    30f8:	bf 90       	pop	r11
    30fa:	af 90       	pop	r10
    30fc:	9f 90       	pop	r9
    30fe:	8f 90       	pop	r8
    3100:	7f 90       	pop	r7
    3102:	6f 90       	pop	r6
    3104:	5f 90       	pop	r5
    3106:	4f 90       	pop	r4
    3108:	3f 90       	pop	r3
    310a:	2f 90       	pop	r2
    310c:	08 95       	ret

0000310e <SrvKalmanFilterY>:
double PY_00 = 0, PY_01 = 0, PY_10 = 0, PY_11 = 0;
double dtY, yY, SY;
double KY_0, KY_1;

double SrvKalmanFilterY(double newAngle, double newRate, double dtime)
{
    310e:	2f 92       	push	r2
    3110:	3f 92       	push	r3
    3112:	4f 92       	push	r4
    3114:	5f 92       	push	r5
    3116:	6f 92       	push	r6
    3118:	7f 92       	push	r7
    311a:	8f 92       	push	r8
    311c:	9f 92       	push	r9
    311e:	af 92       	push	r10
    3120:	bf 92       	push	r11
    3122:	cf 92       	push	r12
    3124:	df 92       	push	r13
    3126:	ef 92       	push	r14
    3128:	ff 92       	push	r15
    312a:	0f 93       	push	r16
    312c:	1f 93       	push	r17
    312e:	df 93       	push	r29
    3130:	cf 93       	push	r28
    3132:	cd b7       	in	r28, 0x3d	; 61
    3134:	de b7       	in	r29, 0x3e	; 62
    3136:	6d 97       	sbiw	r28, 0x1d	; 29
    3138:	0f b6       	in	r0, 0x3f	; 63
    313a:	f8 94       	cli
    313c:	de bf       	out	0x3e, r29	; 62
    313e:	0f be       	out	0x3f, r0	; 63
    3140:	cd bf       	out	0x3d, r28	; 61
    3142:	69 8f       	std	Y+25, r22	; 0x19
    3144:	7a 8f       	std	Y+26, r23	; 0x1a
    3146:	8b 8f       	std	Y+27, r24	; 0x1b
    3148:	9c 8f       	std	Y+28, r25	; 0x1c
    314a:	59 01       	movw	r10, r18
    314c:	6a 01       	movw	r12, r20
    314e:	c8 01       	movw	r24, r16
    3150:	b7 01       	movw	r22, r14
	dtY = dtime / 10000.0; // Convert from microseconds to seconds
    3152:	20 e0       	ldi	r18, 0x00	; 0
    3154:	30 e4       	ldi	r19, 0x40	; 64
    3156:	4c e1       	ldi	r20, 0x1C	; 28
    3158:	56 e4       	ldi	r21, 0x46	; 70
    315a:	0e 94 66 26 	call	0x4ccc	; 0x4ccc <__divsf3>
    315e:	69 83       	std	Y+1, r22	; 0x01
    3160:	7a 83       	std	Y+2, r23	; 0x02
    3162:	8b 83       	std	Y+3, r24	; 0x03
    3164:	9c 83       	std	Y+4, r25	; 0x04
    3166:	7b 01       	movw	r14, r22
    3168:	8c 01       	movw	r16, r24
    316a:	cb 01       	movw	r24, r22
    316c:	ab 81       	ldd	r26, Y+3	; 0x03
    316e:	bc 81       	ldd	r27, Y+4	; 0x04
    3170:	80 93 61 03 	sts	0x0361, r24
    3174:	90 93 62 03 	sts	0x0362, r25
    3178:	a0 93 63 03 	sts	0x0363, r26
    317c:	b0 93 64 03 	sts	0x0364, r27

	// Discrete Kalman filter time update equations - Time Update ("Predict")
	// Update xhat - Project the state ahead
	angleY += dtY * (newRate - biasY);
    3180:	80 91 f6 01 	lds	r24, 0x01F6
    3184:	90 91 f7 01 	lds	r25, 0x01F7
    3188:	a0 91 f8 01 	lds	r26, 0x01F8
    318c:	b0 91 f9 01 	lds	r27, 0x01F9
    3190:	8d 87       	std	Y+13, r24	; 0x0d
    3192:	9e 87       	std	Y+14, r25	; 0x0e
    3194:	af 87       	std	Y+15, r26	; 0x0f
    3196:	b8 8b       	std	Y+16, r27	; 0x10
    3198:	c6 01       	movw	r24, r12
    319a:	b5 01       	movw	r22, r10
    319c:	2d 85       	ldd	r18, Y+13	; 0x0d
    319e:	3e 85       	ldd	r19, Y+14	; 0x0e
    31a0:	4f 85       	ldd	r20, Y+15	; 0x0f
    31a2:	58 89       	ldd	r21, Y+16	; 0x10
    31a4:	0e 94 98 25 	call	0x4b30	; 0x4b30 <__subsf3>
    31a8:	9b 01       	movw	r18, r22
    31aa:	ac 01       	movw	r20, r24
    31ac:	69 81       	ldd	r22, Y+1	; 0x01
    31ae:	7a 81       	ldd	r23, Y+2	; 0x02
    31b0:	8b 81       	ldd	r24, Y+3	; 0x03
    31b2:	9c 81       	ldd	r25, Y+4	; 0x04
    31b4:	0e 94 1a 28 	call	0x5034	; 0x5034 <__mulsf3>
    31b8:	20 91 f2 01 	lds	r18, 0x01F2
    31bc:	30 91 f3 01 	lds	r19, 0x01F3
    31c0:	40 91 f4 01 	lds	r20, 0x01F4
    31c4:	50 91 f5 01 	lds	r21, 0x01F5
    31c8:	0e 94 99 25 	call	0x4b32	; 0x4b32 <__addsf3>
    31cc:	6d 83       	std	Y+5, r22	; 0x05
    31ce:	7e 83       	std	Y+6, r23	; 0x06
    31d0:	8f 83       	std	Y+7, r24	; 0x07
    31d2:	98 87       	std	Y+8, r25	; 0x08

	// Update estimation error covariance - Project the error covariance ahead
	PY_00 += -dtY * (PY_10 + PY_01) + Q_angleY * dtY;
    31d4:	17 fb       	bst	r17, 7
    31d6:	10 95       	com	r17
    31d8:	17 f9       	bld	r17, 7
    31da:	10 95       	com	r17
    31dc:	60 90 02 02 	lds	r6, 0x0202
    31e0:	70 90 03 02 	lds	r7, 0x0203
    31e4:	80 90 04 02 	lds	r8, 0x0204
    31e8:	90 90 05 02 	lds	r9, 0x0205
    31ec:	a0 90 fe 01 	lds	r10, 0x01FE
    31f0:	b0 90 ff 01 	lds	r11, 0x01FF
    31f4:	c0 90 00 02 	lds	r12, 0x0200
    31f8:	d0 90 01 02 	lds	r13, 0x0201
    31fc:	c4 01       	movw	r24, r8
    31fe:	b3 01       	movw	r22, r6
    3200:	a6 01       	movw	r20, r12
    3202:	95 01       	movw	r18, r10
    3204:	0e 94 99 25 	call	0x4b32	; 0x4b32 <__addsf3>
    3208:	9b 01       	movw	r18, r22
    320a:	ac 01       	movw	r20, r24
    320c:	c8 01       	movw	r24, r16
    320e:	b7 01       	movw	r22, r14
    3210:	0e 94 1a 28 	call	0x5034	; 0x5034 <__mulsf3>
    3214:	1b 01       	movw	r2, r22
    3216:	2c 01       	movw	r4, r24
    3218:	69 81       	ldd	r22, Y+1	; 0x01
    321a:	7a 81       	ldd	r23, Y+2	; 0x02
    321c:	8b 81       	ldd	r24, Y+3	; 0x03
    321e:	9c 81       	ldd	r25, Y+4	; 0x04
    3220:	2f e6       	ldi	r18, 0x6F	; 111
    3222:	32 e1       	ldi	r19, 0x12	; 18
    3224:	43 e8       	ldi	r20, 0x83	; 131
    3226:	5a e3       	ldi	r21, 0x3A	; 58
    3228:	0e 94 1a 28 	call	0x5034	; 0x5034 <__mulsf3>
    322c:	9b 01       	movw	r18, r22
    322e:	ac 01       	movw	r20, r24
    3230:	c2 01       	movw	r24, r4
    3232:	b1 01       	movw	r22, r2
    3234:	0e 94 99 25 	call	0x4b32	; 0x4b32 <__addsf3>
    3238:	20 91 fa 01 	lds	r18, 0x01FA
    323c:	30 91 fb 01 	lds	r19, 0x01FB
    3240:	40 91 fc 01 	lds	r20, 0x01FC
    3244:	50 91 fd 01 	lds	r21, 0x01FD
    3248:	0e 94 99 25 	call	0x4b32	; 0x4b32 <__addsf3>
    324c:	26 2e       	mov	r2, r22
    324e:	47 2e       	mov	r4, r23
    3250:	38 2e       	mov	r3, r24
    3252:	99 87       	std	Y+9, r25	; 0x09
	PY_01 += -dtY * PY_11;
    3254:	80 91 06 02 	lds	r24, 0x0206
    3258:	90 91 07 02 	lds	r25, 0x0207
    325c:	a0 91 08 02 	lds	r26, 0x0208
    3260:	b0 91 09 02 	lds	r27, 0x0209
    3264:	89 8b       	std	Y+17, r24	; 0x11
    3266:	9a 8b       	std	Y+18, r25	; 0x12
    3268:	ab 8b       	std	Y+19, r26	; 0x13
    326a:	bc 8b       	std	Y+20, r27	; 0x14
    326c:	c8 01       	movw	r24, r16
    326e:	b7 01       	movw	r22, r14
    3270:	29 89       	ldd	r18, Y+17	; 0x11
    3272:	3a 89       	ldd	r19, Y+18	; 0x12
    3274:	4b 89       	ldd	r20, Y+19	; 0x13
    3276:	5c 89       	ldd	r21, Y+20	; 0x14
    3278:	0e 94 1a 28 	call	0x5034	; 0x5034 <__mulsf3>
    327c:	f6 2e       	mov	r15, r22
    327e:	07 2f       	mov	r16, r23
    3280:	18 2f       	mov	r17, r24
    3282:	e9 2e       	mov	r14, r25
    3284:	c6 01       	movw	r24, r12
    3286:	b5 01       	movw	r22, r10
    3288:	2f 2d       	mov	r18, r15
    328a:	30 2f       	mov	r19, r16
    328c:	41 2f       	mov	r20, r17
    328e:	5e 2d       	mov	r21, r14
    3290:	0e 94 99 25 	call	0x4b32	; 0x4b32 <__addsf3>
    3294:	6d 8b       	std	Y+21, r22	; 0x15
    3296:	7e 8b       	std	Y+22, r23	; 0x16
    3298:	8f 8b       	std	Y+23, r24	; 0x17
    329a:	98 8f       	std	Y+24, r25	; 0x18
	PY_10 += -dtY * PY_11;
    329c:	c4 01       	movw	r24, r8
    329e:	b3 01       	movw	r22, r6
    32a0:	2f 2d       	mov	r18, r15
    32a2:	30 2f       	mov	r19, r16
    32a4:	41 2f       	mov	r20, r17
    32a6:	5e 2d       	mov	r21, r14
    32a8:	0e 94 99 25 	call	0x4b32	; 0x4b32 <__addsf3>
    32ac:	66 2e       	mov	r6, r22
    32ae:	97 2e       	mov	r9, r23
    32b0:	88 2e       	mov	r8, r24
    32b2:	79 2e       	mov	r7, r25
	PY_11 += +Q_gyroY * dtY;

	// Discrete Kalman filter measurement update equations - Measurement Update ("Correct")
	// Calculate Kalman gain - Compute the Kalman gain
	SY = PY_00 + R_angleY;
    32b4:	29 85       	ldd	r18, Y+9	; 0x09
    32b6:	62 2d       	mov	r22, r2
    32b8:	74 2d       	mov	r23, r4
    32ba:	83 2d       	mov	r24, r3
    32bc:	92 2f       	mov	r25, r18
    32be:	2f e8       	ldi	r18, 0x8F	; 143
    32c0:	32 ec       	ldi	r19, 0xC2	; 194
    32c2:	45 ef       	ldi	r20, 0xF5	; 245
    32c4:	5c e3       	ldi	r21, 0x3C	; 60
    32c6:	0e 94 99 25 	call	0x4b32	; 0x4b32 <__addsf3>
    32ca:	e6 2e       	mov	r14, r22
    32cc:	d7 2e       	mov	r13, r23
    32ce:	c8 2e       	mov	r12, r24
    32d0:	b9 2e       	mov	r11, r25
    32d2:	86 2f       	mov	r24, r22
    32d4:	9d 2d       	mov	r25, r13
    32d6:	ac 2d       	mov	r26, r12
    32d8:	bb 2d       	mov	r27, r11
    32da:	80 93 79 03 	sts	0x0379, r24
    32de:	90 93 7a 03 	sts	0x037A, r25
    32e2:	a0 93 7b 03 	sts	0x037B, r26
    32e6:	b0 93 7c 03 	sts	0x037C, r27
	KY_0 = PY_00 / SY;
    32ea:	29 85       	ldd	r18, Y+9	; 0x09
    32ec:	62 2d       	mov	r22, r2
    32ee:	74 2d       	mov	r23, r4
    32f0:	83 2d       	mov	r24, r3
    32f2:	92 2f       	mov	r25, r18
    32f4:	2e 2d       	mov	r18, r14
    32f6:	3d 2d       	mov	r19, r13
    32f8:	4c 2d       	mov	r20, r12
    32fa:	5b 2d       	mov	r21, r11
    32fc:	0e 94 66 26 	call	0x4ccc	; 0x4ccc <__divsf3>
    3300:	f6 2e       	mov	r15, r22
    3302:	07 2f       	mov	r16, r23
    3304:	18 2f       	mov	r17, r24
    3306:	a9 2e       	mov	r10, r25
    3308:	86 2f       	mov	r24, r22
    330a:	90 2f       	mov	r25, r16
    330c:	a1 2f       	mov	r26, r17
    330e:	ba 2d       	mov	r27, r10
    3310:	80 93 91 03 	sts	0x0391, r24
    3314:	90 93 92 03 	sts	0x0392, r25
    3318:	a0 93 93 03 	sts	0x0393, r26
    331c:	b0 93 94 03 	sts	0x0394, r27
	KY_1 = PY_10 / SY;
    3320:	66 2d       	mov	r22, r6
    3322:	79 2d       	mov	r23, r9
    3324:	88 2d       	mov	r24, r8
    3326:	97 2d       	mov	r25, r7
    3328:	2e 2d       	mov	r18, r14
    332a:	3d 2d       	mov	r19, r13
    332c:	4c 2d       	mov	r20, r12
    332e:	5b 2d       	mov	r21, r11
    3330:	0e 94 66 26 	call	0x4ccc	; 0x4ccc <__divsf3>
    3334:	56 2e       	mov	r5, r22
    3336:	7a 87       	std	Y+10, r23	; 0x0a
    3338:	8b 87       	std	Y+11, r24	; 0x0b
    333a:	9c 87       	std	Y+12, r25	; 0x0c
    333c:	47 2f       	mov	r20, r23
    333e:	38 2f       	mov	r19, r24
    3340:	29 2f       	mov	r18, r25
    3342:	86 2f       	mov	r24, r22
    3344:	94 2f       	mov	r25, r20
    3346:	a3 2f       	mov	r26, r19
    3348:	b2 2f       	mov	r27, r18
    334a:	80 93 a5 03 	sts	0x03A5, r24
    334e:	90 93 a6 03 	sts	0x03A6, r25
    3352:	a0 93 a7 03 	sts	0x03A7, r26
    3356:	b0 93 a8 03 	sts	0x03A8, r27

	// Calculate angle and resting rate - Update estimate with measurement zk
	yY = newAngle - angleY;
    335a:	69 8d       	ldd	r22, Y+25	; 0x19
    335c:	7a 8d       	ldd	r23, Y+26	; 0x1a
    335e:	8b 8d       	ldd	r24, Y+27	; 0x1b
    3360:	9c 8d       	ldd	r25, Y+28	; 0x1c
    3362:	bd 81       	ldd	r27, Y+5	; 0x05
    3364:	ae 81       	ldd	r26, Y+6	; 0x06
    3366:	ef 80       	ldd	r14, Y+7	; 0x07
    3368:	d8 84       	ldd	r13, Y+8	; 0x08
    336a:	2b 2f       	mov	r18, r27
    336c:	3a 2f       	mov	r19, r26
    336e:	4e 2d       	mov	r20, r14
    3370:	5d 2d       	mov	r21, r13
    3372:	0e 94 98 25 	call	0x4b30	; 0x4b30 <__subsf3>
    3376:	e6 2e       	mov	r14, r22
    3378:	d7 2e       	mov	r13, r23
    337a:	c8 2e       	mov	r12, r24
    337c:	b9 2e       	mov	r11, r25
    337e:	86 2f       	mov	r24, r22
    3380:	9d 2d       	mov	r25, r13
    3382:	ac 2d       	mov	r26, r12
    3384:	bb 2d       	mov	r27, r11
    3386:	80 93 59 03 	sts	0x0359, r24
    338a:	90 93 5a 03 	sts	0x035A, r25
    338e:	a0 93 5b 03 	sts	0x035B, r26
    3392:	b0 93 5c 03 	sts	0x035C, r27
	angleY += KY_0 * yY;
    3396:	6f 2d       	mov	r22, r15
    3398:	70 2f       	mov	r23, r16
    339a:	81 2f       	mov	r24, r17
    339c:	9a 2d       	mov	r25, r10
    339e:	2e 2d       	mov	r18, r14
    33a0:	3d 2d       	mov	r19, r13
    33a2:	4c 2d       	mov	r20, r12
    33a4:	5b 2d       	mov	r21, r11
    33a6:	0e 94 1a 28 	call	0x5034	; 0x5034 <__mulsf3>
    33aa:	9b 01       	movw	r18, r22
    33ac:	ac 01       	movw	r20, r24
    33ae:	bd 81       	ldd	r27, Y+5	; 0x05
    33b0:	ae 81       	ldd	r26, Y+6	; 0x06
    33b2:	9f 81       	ldd	r25, Y+7	; 0x07
    33b4:	99 8f       	std	Y+25, r25	; 0x19
    33b6:	e8 85       	ldd	r30, Y+8	; 0x08
    33b8:	ed 8f       	std	Y+29, r30	; 0x1d
    33ba:	6b 2f       	mov	r22, r27
    33bc:	7a 2f       	mov	r23, r26
    33be:	89 2f       	mov	r24, r25
    33c0:	9e 2f       	mov	r25, r30
    33c2:	0e 94 99 25 	call	0x4b32	; 0x4b32 <__addsf3>
    33c6:	6d 83       	std	Y+5, r22	; 0x05
    33c8:	7e 83       	std	Y+6, r23	; 0x06
    33ca:	8f 83       	std	Y+7, r24	; 0x07
    33cc:	98 87       	std	Y+8, r25	; 0x08
    33ce:	47 2f       	mov	r20, r23
    33d0:	38 2f       	mov	r19, r24
    33d2:	29 2f       	mov	r18, r25
    33d4:	86 2f       	mov	r24, r22
    33d6:	94 2f       	mov	r25, r20
    33d8:	a3 2f       	mov	r26, r19
    33da:	b2 2f       	mov	r27, r18
    33dc:	80 93 f2 01 	sts	0x01F2, r24
    33e0:	90 93 f3 01 	sts	0x01F3, r25
    33e4:	a0 93 f4 01 	sts	0x01F4, r26
    33e8:	b0 93 f5 01 	sts	0x01F5, r27
	biasY += KY_1 * yY;
    33ec:	4a 85       	ldd	r20, Y+10	; 0x0a
    33ee:	3b 85       	ldd	r19, Y+11	; 0x0b
    33f0:	2c 85       	ldd	r18, Y+12	; 0x0c
    33f2:	65 2d       	mov	r22, r5
    33f4:	74 2f       	mov	r23, r20
    33f6:	83 2f       	mov	r24, r19
    33f8:	92 2f       	mov	r25, r18
    33fa:	2e 2d       	mov	r18, r14
    33fc:	3d 2d       	mov	r19, r13
    33fe:	4c 2d       	mov	r20, r12
    3400:	5b 2d       	mov	r21, r11
    3402:	0e 94 1a 28 	call	0x5034	; 0x5034 <__mulsf3>
    3406:	9b 01       	movw	r18, r22
    3408:	ac 01       	movw	r20, r24
    340a:	6d 85       	ldd	r22, Y+13	; 0x0d
    340c:	7e 85       	ldd	r23, Y+14	; 0x0e
    340e:	8f 85       	ldd	r24, Y+15	; 0x0f
    3410:	98 89       	ldd	r25, Y+16	; 0x10
    3412:	0e 94 99 25 	call	0x4b32	; 0x4b32 <__addsf3>
    3416:	60 93 f6 01 	sts	0x01F6, r22
    341a:	70 93 f7 01 	sts	0x01F7, r23
    341e:	80 93 f8 01 	sts	0x01F8, r24
    3422:	90 93 f9 01 	sts	0x01F9, r25

	// Calculate estimation error covariance - Update the error covariance
	PY_00 -= KY_0 * PY_00;
    3426:	29 85       	ldd	r18, Y+9	; 0x09
    3428:	62 2d       	mov	r22, r2
    342a:	74 2d       	mov	r23, r4
    342c:	83 2d       	mov	r24, r3
    342e:	92 2f       	mov	r25, r18
    3430:	2f 2d       	mov	r18, r15
    3432:	30 2f       	mov	r19, r16
    3434:	41 2f       	mov	r20, r17
    3436:	5a 2d       	mov	r21, r10
    3438:	0e 94 1a 28 	call	0x5034	; 0x5034 <__mulsf3>
    343c:	9b 01       	movw	r18, r22
    343e:	ac 01       	movw	r20, r24
    3440:	d9 84       	ldd	r13, Y+9	; 0x09
    3442:	62 2d       	mov	r22, r2
    3444:	74 2d       	mov	r23, r4
    3446:	83 2d       	mov	r24, r3
    3448:	9d 2d       	mov	r25, r13
    344a:	0e 94 98 25 	call	0x4b30	; 0x4b30 <__subsf3>
    344e:	e6 2e       	mov	r14, r22
    3450:	d7 2e       	mov	r13, r23
    3452:	c8 2e       	mov	r12, r24
    3454:	b9 2e       	mov	r11, r25
    3456:	86 2f       	mov	r24, r22
    3458:	9d 2d       	mov	r25, r13
    345a:	ac 2d       	mov	r26, r12
    345c:	bb 2d       	mov	r27, r11
    345e:	80 93 fa 01 	sts	0x01FA, r24
    3462:	90 93 fb 01 	sts	0x01FB, r25
    3466:	a0 93 fc 01 	sts	0x01FC, r26
    346a:	b0 93 fd 01 	sts	0x01FD, r27
	PY_01 -= KY_0 * PY_01;
    346e:	5d 89       	ldd	r21, Y+21	; 0x15
    3470:	4e 89       	ldd	r20, Y+22	; 0x16
    3472:	3f 89       	ldd	r19, Y+23	; 0x17
    3474:	28 8d       	ldd	r18, Y+24	; 0x18
    3476:	65 2f       	mov	r22, r21
    3478:	74 2f       	mov	r23, r20
    347a:	83 2f       	mov	r24, r19
    347c:	92 2f       	mov	r25, r18
    347e:	2f 2d       	mov	r18, r15
    3480:	30 2f       	mov	r19, r16
    3482:	41 2f       	mov	r20, r17
    3484:	5a 2d       	mov	r21, r10
    3486:	0e 94 1a 28 	call	0x5034	; 0x5034 <__mulsf3>
    348a:	9b 01       	movw	r18, r22
    348c:	ac 01       	movw	r20, r24
    348e:	bd 89       	ldd	r27, Y+21	; 0x15
    3490:	ae 89       	ldd	r26, Y+22	; 0x16
    3492:	1f 89       	ldd	r17, Y+23	; 0x17
    3494:	08 8d       	ldd	r16, Y+24	; 0x18
    3496:	6b 2f       	mov	r22, r27
    3498:	7a 2f       	mov	r23, r26
    349a:	81 2f       	mov	r24, r17
    349c:	90 2f       	mov	r25, r16
    349e:	0e 94 98 25 	call	0x4b30	; 0x4b30 <__subsf3>
    34a2:	f6 2e       	mov	r15, r22
    34a4:	07 2f       	mov	r16, r23
    34a6:	18 2f       	mov	r17, r24
    34a8:	a9 2e       	mov	r10, r25
    34aa:	86 2f       	mov	r24, r22
    34ac:	90 2f       	mov	r25, r16
    34ae:	a1 2f       	mov	r26, r17
    34b0:	ba 2d       	mov	r27, r10
    34b2:	80 93 fe 01 	sts	0x01FE, r24
    34b6:	90 93 ff 01 	sts	0x01FF, r25
    34ba:	a0 93 00 02 	sts	0x0200, r26
    34be:	b0 93 01 02 	sts	0x0201, r27
	PY_10 -= KY_1 * PY_00;
    34c2:	4a 85       	ldd	r20, Y+10	; 0x0a
    34c4:	3b 85       	ldd	r19, Y+11	; 0x0b
    34c6:	2c 85       	ldd	r18, Y+12	; 0x0c
    34c8:	65 2d       	mov	r22, r5
    34ca:	74 2f       	mov	r23, r20
    34cc:	83 2f       	mov	r24, r19
    34ce:	92 2f       	mov	r25, r18
    34d0:	2e 2d       	mov	r18, r14
    34d2:	3d 2d       	mov	r19, r13
    34d4:	4c 2d       	mov	r20, r12
    34d6:	5b 2d       	mov	r21, r11
    34d8:	0e 94 1a 28 	call	0x5034	; 0x5034 <__mulsf3>
    34dc:	9b 01       	movw	r18, r22
    34de:	ac 01       	movw	r20, r24
    34e0:	66 2d       	mov	r22, r6
    34e2:	79 2d       	mov	r23, r9
    34e4:	88 2d       	mov	r24, r8
    34e6:	97 2d       	mov	r25, r7
    34e8:	0e 94 98 25 	call	0x4b30	; 0x4b30 <__subsf3>
    34ec:	60 93 02 02 	sts	0x0202, r22
    34f0:	70 93 03 02 	sts	0x0203, r23
    34f4:	80 93 04 02 	sts	0x0204, r24
    34f8:	90 93 05 02 	sts	0x0205, r25

	// Update estimation error covariance - Project the error covariance ahead
	PY_00 += -dtY * (PY_10 + PY_01) + Q_angleY * dtY;
	PY_01 += -dtY * PY_11;
	PY_10 += -dtY * PY_11;
	PY_11 += +Q_gyroY * dtY;
    34fc:	69 81       	ldd	r22, Y+1	; 0x01
    34fe:	7a 81       	ldd	r23, Y+2	; 0x02
    3500:	8b 81       	ldd	r24, Y+3	; 0x03
    3502:	9c 81       	ldd	r25, Y+4	; 0x04
    3504:	26 ea       	ldi	r18, 0xA6	; 166
    3506:	3b e9       	ldi	r19, 0x9B	; 155
    3508:	44 e4       	ldi	r20, 0x44	; 68
    350a:	5b e3       	ldi	r21, 0x3B	; 59
    350c:	0e 94 1a 28 	call	0x5034	; 0x5034 <__mulsf3>
    3510:	9b 01       	movw	r18, r22
    3512:	ac 01       	movw	r20, r24
    3514:	69 89       	ldd	r22, Y+17	; 0x11
    3516:	7a 89       	ldd	r23, Y+18	; 0x12
    3518:	8b 89       	ldd	r24, Y+19	; 0x13
    351a:	9c 89       	ldd	r25, Y+20	; 0x14
    351c:	0e 94 99 25 	call	0x4b32	; 0x4b32 <__addsf3>
    3520:	3b 01       	movw	r6, r22
    3522:	4c 01       	movw	r8, r24

	// Calculate estimation error covariance - Update the error covariance
	PY_00 -= KY_0 * PY_00;
	PY_01 -= KY_0 * PY_01;
	PY_10 -= KY_1 * PY_00;
	PY_11 -= KY_1 * PY_01;
    3524:	4a 85       	ldd	r20, Y+10	; 0x0a
    3526:	3b 85       	ldd	r19, Y+11	; 0x0b
    3528:	2c 85       	ldd	r18, Y+12	; 0x0c
    352a:	65 2d       	mov	r22, r5
    352c:	74 2f       	mov	r23, r20
    352e:	83 2f       	mov	r24, r19
    3530:	92 2f       	mov	r25, r18
    3532:	2f 2d       	mov	r18, r15
    3534:	30 2f       	mov	r19, r16
    3536:	41 2f       	mov	r20, r17
    3538:	5a 2d       	mov	r21, r10
    353a:	0e 94 1a 28 	call	0x5034	; 0x5034 <__mulsf3>
    353e:	9b 01       	movw	r18, r22
    3540:	ac 01       	movw	r20, r24
    3542:	c4 01       	movw	r24, r8
    3544:	b3 01       	movw	r22, r6
    3546:	0e 94 98 25 	call	0x4b30	; 0x4b30 <__subsf3>
    354a:	60 93 06 02 	sts	0x0206, r22
    354e:	70 93 07 02 	sts	0x0207, r23
    3552:	80 93 08 02 	sts	0x0208, r24
    3556:	90 93 09 02 	sts	0x0209, r25

	return angleY;
}
    355a:	5d 81       	ldd	r21, Y+5	; 0x05
    355c:	4e 81       	ldd	r20, Y+6	; 0x06
    355e:	3f 81       	ldd	r19, Y+7	; 0x07
    3560:	28 85       	ldd	r18, Y+8	; 0x08
    3562:	65 2f       	mov	r22, r21
    3564:	74 2f       	mov	r23, r20
    3566:	83 2f       	mov	r24, r19
    3568:	92 2f       	mov	r25, r18
    356a:	6d 96       	adiw	r28, 0x1d	; 29
    356c:	0f b6       	in	r0, 0x3f	; 63
    356e:	f8 94       	cli
    3570:	de bf       	out	0x3e, r29	; 62
    3572:	0f be       	out	0x3f, r0	; 63
    3574:	cd bf       	out	0x3d, r28	; 61
    3576:	cf 91       	pop	r28
    3578:	df 91       	pop	r29
    357a:	1f 91       	pop	r17
    357c:	0f 91       	pop	r16
    357e:	ff 90       	pop	r15
    3580:	ef 90       	pop	r14
    3582:	df 90       	pop	r13
    3584:	cf 90       	pop	r12
    3586:	bf 90       	pop	r11
    3588:	af 90       	pop	r10
    358a:	9f 90       	pop	r9
    358c:	8f 90       	pop	r8
    358e:	7f 90       	pop	r7
    3590:	6f 90       	pop	r6
    3592:	5f 90       	pop	r5
    3594:	4f 90       	pop	r4
    3596:	3f 90       	pop	r3
    3598:	2f 90       	pop	r2
    359a:	08 95       	ret

0000359c <SrvKalmanFilterZ>:
double PZ_00 = 0, PZ_01 = 0, PZ_10 = 0, PZ_11 = 0;
double dtZ, ZZ, SZ;
double KZ_0, KZ_1;

double SrvKalmanFilterZ(double newAngle, double newRate, double dtime)
{
    359c:	2f 92       	push	r2
    359e:	3f 92       	push	r3
    35a0:	4f 92       	push	r4
    35a2:	5f 92       	push	r5
    35a4:	6f 92       	push	r6
    35a6:	7f 92       	push	r7
    35a8:	8f 92       	push	r8
    35aa:	9f 92       	push	r9
    35ac:	af 92       	push	r10
    35ae:	bf 92       	push	r11
    35b0:	cf 92       	push	r12
    35b2:	df 92       	push	r13
    35b4:	ef 92       	push	r14
    35b6:	ff 92       	push	r15
    35b8:	0f 93       	push	r16
    35ba:	1f 93       	push	r17
    35bc:	df 93       	push	r29
    35be:	cf 93       	push	r28
    35c0:	cd b7       	in	r28, 0x3d	; 61
    35c2:	de b7       	in	r29, 0x3e	; 62
    35c4:	6d 97       	sbiw	r28, 0x1d	; 29
    35c6:	0f b6       	in	r0, 0x3f	; 63
    35c8:	f8 94       	cli
    35ca:	de bf       	out	0x3e, r29	; 62
    35cc:	0f be       	out	0x3f, r0	; 63
    35ce:	cd bf       	out	0x3d, r28	; 61
    35d0:	69 8f       	std	Y+25, r22	; 0x19
    35d2:	7a 8f       	std	Y+26, r23	; 0x1a
    35d4:	8b 8f       	std	Y+27, r24	; 0x1b
    35d6:	9c 8f       	std	Y+28, r25	; 0x1c
    35d8:	59 01       	movw	r10, r18
    35da:	6a 01       	movw	r12, r20
    35dc:	c8 01       	movw	r24, r16
    35de:	b7 01       	movw	r22, r14
	dtZ = dtime / 10000.0; // Convert from microseconds to seconds
    35e0:	20 e0       	ldi	r18, 0x00	; 0
    35e2:	30 e4       	ldi	r19, 0x40	; 64
    35e4:	4c e1       	ldi	r20, 0x1C	; 28
    35e6:	56 e4       	ldi	r21, 0x46	; 70
    35e8:	0e 94 66 26 	call	0x4ccc	; 0x4ccc <__divsf3>
    35ec:	69 83       	std	Y+1, r22	; 0x01
    35ee:	7a 83       	std	Y+2, r23	; 0x02
    35f0:	8b 83       	std	Y+3, r24	; 0x03
    35f2:	9c 83       	std	Y+4, r25	; 0x04
    35f4:	7b 01       	movw	r14, r22
    35f6:	8c 01       	movw	r16, r24
    35f8:	cb 01       	movw	r24, r22
    35fa:	ab 81       	ldd	r26, Y+3	; 0x03
    35fc:	bc 81       	ldd	r27, Y+4	; 0x04
    35fe:	80 93 99 03 	sts	0x0399, r24
    3602:	90 93 9a 03 	sts	0x039A, r25
    3606:	a0 93 9b 03 	sts	0x039B, r26
    360a:	b0 93 9c 03 	sts	0x039C, r27

	// Discrete Kalman filter time update equations - Time Update ("Predict")
	// Update xhat - Project the state ahead
	angleZ += dtZ * (newRate - biasZ);
    360e:	80 91 0e 02 	lds	r24, 0x020E
    3612:	90 91 0f 02 	lds	r25, 0x020F
    3616:	a0 91 10 02 	lds	r26, 0x0210
    361a:	b0 91 11 02 	lds	r27, 0x0211
    361e:	8d 87       	std	Y+13, r24	; 0x0d
    3620:	9e 87       	std	Y+14, r25	; 0x0e
    3622:	af 87       	std	Y+15, r26	; 0x0f
    3624:	b8 8b       	std	Y+16, r27	; 0x10
    3626:	c6 01       	movw	r24, r12
    3628:	b5 01       	movw	r22, r10
    362a:	2d 85       	ldd	r18, Y+13	; 0x0d
    362c:	3e 85       	ldd	r19, Y+14	; 0x0e
    362e:	4f 85       	ldd	r20, Y+15	; 0x0f
    3630:	58 89       	ldd	r21, Y+16	; 0x10
    3632:	0e 94 98 25 	call	0x4b30	; 0x4b30 <__subsf3>
    3636:	9b 01       	movw	r18, r22
    3638:	ac 01       	movw	r20, r24
    363a:	69 81       	ldd	r22, Y+1	; 0x01
    363c:	7a 81       	ldd	r23, Y+2	; 0x02
    363e:	8b 81       	ldd	r24, Y+3	; 0x03
    3640:	9c 81       	ldd	r25, Y+4	; 0x04
    3642:	0e 94 1a 28 	call	0x5034	; 0x5034 <__mulsf3>
    3646:	20 91 0a 02 	lds	r18, 0x020A
    364a:	30 91 0b 02 	lds	r19, 0x020B
    364e:	40 91 0c 02 	lds	r20, 0x020C
    3652:	50 91 0d 02 	lds	r21, 0x020D
    3656:	0e 94 99 25 	call	0x4b32	; 0x4b32 <__addsf3>
    365a:	6d 83       	std	Y+5, r22	; 0x05
    365c:	7e 83       	std	Y+6, r23	; 0x06
    365e:	8f 83       	std	Y+7, r24	; 0x07
    3660:	98 87       	std	Y+8, r25	; 0x08

	// Update estimation error covariance - Project the error covariance ahead
	PZ_00 += -dtZ * (PZ_10 + PZ_01) + Q_angleZ * dtZ;
    3662:	17 fb       	bst	r17, 7
    3664:	10 95       	com	r17
    3666:	17 f9       	bld	r17, 7
    3668:	10 95       	com	r17
    366a:	60 90 1a 02 	lds	r6, 0x021A
    366e:	70 90 1b 02 	lds	r7, 0x021B
    3672:	80 90 1c 02 	lds	r8, 0x021C
    3676:	90 90 1d 02 	lds	r9, 0x021D
    367a:	a0 90 16 02 	lds	r10, 0x0216
    367e:	b0 90 17 02 	lds	r11, 0x0217
    3682:	c0 90 18 02 	lds	r12, 0x0218
    3686:	d0 90 19 02 	lds	r13, 0x0219
    368a:	c4 01       	movw	r24, r8
    368c:	b3 01       	movw	r22, r6
    368e:	a6 01       	movw	r20, r12
    3690:	95 01       	movw	r18, r10
    3692:	0e 94 99 25 	call	0x4b32	; 0x4b32 <__addsf3>
    3696:	9b 01       	movw	r18, r22
    3698:	ac 01       	movw	r20, r24
    369a:	c8 01       	movw	r24, r16
    369c:	b7 01       	movw	r22, r14
    369e:	0e 94 1a 28 	call	0x5034	; 0x5034 <__mulsf3>
    36a2:	1b 01       	movw	r2, r22
    36a4:	2c 01       	movw	r4, r24
    36a6:	69 81       	ldd	r22, Y+1	; 0x01
    36a8:	7a 81       	ldd	r23, Y+2	; 0x02
    36aa:	8b 81       	ldd	r24, Y+3	; 0x03
    36ac:	9c 81       	ldd	r25, Y+4	; 0x04
    36ae:	2f e6       	ldi	r18, 0x6F	; 111
    36b0:	32 e1       	ldi	r19, 0x12	; 18
    36b2:	43 e8       	ldi	r20, 0x83	; 131
    36b4:	5a e3       	ldi	r21, 0x3A	; 58
    36b6:	0e 94 1a 28 	call	0x5034	; 0x5034 <__mulsf3>
    36ba:	9b 01       	movw	r18, r22
    36bc:	ac 01       	movw	r20, r24
    36be:	c2 01       	movw	r24, r4
    36c0:	b1 01       	movw	r22, r2
    36c2:	0e 94 99 25 	call	0x4b32	; 0x4b32 <__addsf3>
    36c6:	20 91 12 02 	lds	r18, 0x0212
    36ca:	30 91 13 02 	lds	r19, 0x0213
    36ce:	40 91 14 02 	lds	r20, 0x0214
    36d2:	50 91 15 02 	lds	r21, 0x0215
    36d6:	0e 94 99 25 	call	0x4b32	; 0x4b32 <__addsf3>
    36da:	26 2e       	mov	r2, r22
    36dc:	47 2e       	mov	r4, r23
    36de:	38 2e       	mov	r3, r24
    36e0:	99 87       	std	Y+9, r25	; 0x09
	PZ_01 += -dtZ * PZ_11;
    36e2:	80 91 1e 02 	lds	r24, 0x021E
    36e6:	90 91 1f 02 	lds	r25, 0x021F
    36ea:	a0 91 20 02 	lds	r26, 0x0220
    36ee:	b0 91 21 02 	lds	r27, 0x0221
    36f2:	89 8b       	std	Y+17, r24	; 0x11
    36f4:	9a 8b       	std	Y+18, r25	; 0x12
    36f6:	ab 8b       	std	Y+19, r26	; 0x13
    36f8:	bc 8b       	std	Y+20, r27	; 0x14
    36fa:	c8 01       	movw	r24, r16
    36fc:	b7 01       	movw	r22, r14
    36fe:	29 89       	ldd	r18, Y+17	; 0x11
    3700:	3a 89       	ldd	r19, Y+18	; 0x12
    3702:	4b 89       	ldd	r20, Y+19	; 0x13
    3704:	5c 89       	ldd	r21, Y+20	; 0x14
    3706:	0e 94 1a 28 	call	0x5034	; 0x5034 <__mulsf3>
    370a:	f6 2e       	mov	r15, r22
    370c:	07 2f       	mov	r16, r23
    370e:	18 2f       	mov	r17, r24
    3710:	e9 2e       	mov	r14, r25
    3712:	c6 01       	movw	r24, r12
    3714:	b5 01       	movw	r22, r10
    3716:	2f 2d       	mov	r18, r15
    3718:	30 2f       	mov	r19, r16
    371a:	41 2f       	mov	r20, r17
    371c:	5e 2d       	mov	r21, r14
    371e:	0e 94 99 25 	call	0x4b32	; 0x4b32 <__addsf3>
    3722:	6d 8b       	std	Y+21, r22	; 0x15
    3724:	7e 8b       	std	Y+22, r23	; 0x16
    3726:	8f 8b       	std	Y+23, r24	; 0x17
    3728:	98 8f       	std	Y+24, r25	; 0x18
	PZ_10 += -dtZ * PZ_11;
    372a:	c4 01       	movw	r24, r8
    372c:	b3 01       	movw	r22, r6
    372e:	2f 2d       	mov	r18, r15
    3730:	30 2f       	mov	r19, r16
    3732:	41 2f       	mov	r20, r17
    3734:	5e 2d       	mov	r21, r14
    3736:	0e 94 99 25 	call	0x4b32	; 0x4b32 <__addsf3>
    373a:	66 2e       	mov	r6, r22
    373c:	97 2e       	mov	r9, r23
    373e:	88 2e       	mov	r8, r24
    3740:	79 2e       	mov	r7, r25
	PZ_11 += +Q_gyroZ * dtZ;

	// Discrete Kalman filter measurement update equations - Measurement Update ("Correct")
	// Calculate Kalman gain - Compute the Kalman gain
	SZ = PZ_00 + R_angleZ;
    3742:	29 85       	ldd	r18, Y+9	; 0x09
    3744:	62 2d       	mov	r22, r2
    3746:	74 2d       	mov	r23, r4
    3748:	83 2d       	mov	r24, r3
    374a:	92 2f       	mov	r25, r18
    374c:	2f e8       	ldi	r18, 0x8F	; 143
    374e:	32 ec       	ldi	r19, 0xC2	; 194
    3750:	45 ef       	ldi	r20, 0xF5	; 245
    3752:	5c e3       	ldi	r21, 0x3C	; 60
    3754:	0e 94 99 25 	call	0x4b32	; 0x4b32 <__addsf3>
    3758:	e6 2e       	mov	r14, r22
    375a:	d7 2e       	mov	r13, r23
    375c:	c8 2e       	mov	r12, r24
    375e:	b9 2e       	mov	r11, r25
    3760:	86 2f       	mov	r24, r22
    3762:	9d 2d       	mov	r25, r13
    3764:	ac 2d       	mov	r26, r12
    3766:	bb 2d       	mov	r27, r11
    3768:	80 93 95 03 	sts	0x0395, r24
    376c:	90 93 96 03 	sts	0x0396, r25
    3770:	a0 93 97 03 	sts	0x0397, r26
    3774:	b0 93 98 03 	sts	0x0398, r27
	KZ_0 = PZ_00 / SZ;
    3778:	29 85       	ldd	r18, Y+9	; 0x09
    377a:	62 2d       	mov	r22, r2
    377c:	74 2d       	mov	r23, r4
    377e:	83 2d       	mov	r24, r3
    3780:	92 2f       	mov	r25, r18
    3782:	2e 2d       	mov	r18, r14
    3784:	3d 2d       	mov	r19, r13
    3786:	4c 2d       	mov	r20, r12
    3788:	5b 2d       	mov	r21, r11
    378a:	0e 94 66 26 	call	0x4ccc	; 0x4ccc <__divsf3>
    378e:	f6 2e       	mov	r15, r22
    3790:	07 2f       	mov	r16, r23
    3792:	18 2f       	mov	r17, r24
    3794:	a9 2e       	mov	r10, r25
    3796:	86 2f       	mov	r24, r22
    3798:	90 2f       	mov	r25, r16
    379a:	a1 2f       	mov	r26, r17
    379c:	ba 2d       	mov	r27, r10
    379e:	80 93 89 03 	sts	0x0389, r24
    37a2:	90 93 8a 03 	sts	0x038A, r25
    37a6:	a0 93 8b 03 	sts	0x038B, r26
    37aa:	b0 93 8c 03 	sts	0x038C, r27
	KZ_1 = PZ_10 / SZ;
    37ae:	66 2d       	mov	r22, r6
    37b0:	79 2d       	mov	r23, r9
    37b2:	88 2d       	mov	r24, r8
    37b4:	97 2d       	mov	r25, r7
    37b6:	2e 2d       	mov	r18, r14
    37b8:	3d 2d       	mov	r19, r13
    37ba:	4c 2d       	mov	r20, r12
    37bc:	5b 2d       	mov	r21, r11
    37be:	0e 94 66 26 	call	0x4ccc	; 0x4ccc <__divsf3>
    37c2:	56 2e       	mov	r5, r22
    37c4:	7a 87       	std	Y+10, r23	; 0x0a
    37c6:	8b 87       	std	Y+11, r24	; 0x0b
    37c8:	9c 87       	std	Y+12, r25	; 0x0c
    37ca:	47 2f       	mov	r20, r23
    37cc:	38 2f       	mov	r19, r24
    37ce:	29 2f       	mov	r18, r25
    37d0:	86 2f       	mov	r24, r22
    37d2:	94 2f       	mov	r25, r20
    37d4:	a3 2f       	mov	r26, r19
    37d6:	b2 2f       	mov	r27, r18
    37d8:	80 93 9d 03 	sts	0x039D, r24
    37dc:	90 93 9e 03 	sts	0x039E, r25
    37e0:	a0 93 9f 03 	sts	0x039F, r26
    37e4:	b0 93 a0 03 	sts	0x03A0, r27

	// Calculate angle and resting rate - Update estimate with measurement zk
	ZZ = newAngle - angleZ;
    37e8:	69 8d       	ldd	r22, Y+25	; 0x19
    37ea:	7a 8d       	ldd	r23, Y+26	; 0x1a
    37ec:	8b 8d       	ldd	r24, Y+27	; 0x1b
    37ee:	9c 8d       	ldd	r25, Y+28	; 0x1c
    37f0:	bd 81       	ldd	r27, Y+5	; 0x05
    37f2:	ae 81       	ldd	r26, Y+6	; 0x06
    37f4:	ef 80       	ldd	r14, Y+7	; 0x07
    37f6:	d8 84       	ldd	r13, Y+8	; 0x08
    37f8:	2b 2f       	mov	r18, r27
    37fa:	3a 2f       	mov	r19, r26
    37fc:	4e 2d       	mov	r20, r14
    37fe:	5d 2d       	mov	r21, r13
    3800:	0e 94 98 25 	call	0x4b30	; 0x4b30 <__subsf3>
    3804:	e6 2e       	mov	r14, r22
    3806:	d7 2e       	mov	r13, r23
    3808:	c8 2e       	mov	r12, r24
    380a:	b9 2e       	mov	r11, r25
    380c:	86 2f       	mov	r24, r22
    380e:	9d 2d       	mov	r25, r13
    3810:	ac 2d       	mov	r26, r12
    3812:	bb 2d       	mov	r27, r11
    3814:	80 93 81 03 	sts	0x0381, r24
    3818:	90 93 82 03 	sts	0x0382, r25
    381c:	a0 93 83 03 	sts	0x0383, r26
    3820:	b0 93 84 03 	sts	0x0384, r27
	angleZ += KZ_0 * ZZ;
    3824:	6f 2d       	mov	r22, r15
    3826:	70 2f       	mov	r23, r16
    3828:	81 2f       	mov	r24, r17
    382a:	9a 2d       	mov	r25, r10
    382c:	2e 2d       	mov	r18, r14
    382e:	3d 2d       	mov	r19, r13
    3830:	4c 2d       	mov	r20, r12
    3832:	5b 2d       	mov	r21, r11
    3834:	0e 94 1a 28 	call	0x5034	; 0x5034 <__mulsf3>
    3838:	9b 01       	movw	r18, r22
    383a:	ac 01       	movw	r20, r24
    383c:	bd 81       	ldd	r27, Y+5	; 0x05
    383e:	ae 81       	ldd	r26, Y+6	; 0x06
    3840:	9f 81       	ldd	r25, Y+7	; 0x07
    3842:	99 8f       	std	Y+25, r25	; 0x19
    3844:	e8 85       	ldd	r30, Y+8	; 0x08
    3846:	ed 8f       	std	Y+29, r30	; 0x1d
    3848:	6b 2f       	mov	r22, r27
    384a:	7a 2f       	mov	r23, r26
    384c:	89 2f       	mov	r24, r25
    384e:	9e 2f       	mov	r25, r30
    3850:	0e 94 99 25 	call	0x4b32	; 0x4b32 <__addsf3>
    3854:	6d 83       	std	Y+5, r22	; 0x05
    3856:	7e 83       	std	Y+6, r23	; 0x06
    3858:	8f 83       	std	Y+7, r24	; 0x07
    385a:	98 87       	std	Y+8, r25	; 0x08
    385c:	47 2f       	mov	r20, r23
    385e:	38 2f       	mov	r19, r24
    3860:	29 2f       	mov	r18, r25
    3862:	86 2f       	mov	r24, r22
    3864:	94 2f       	mov	r25, r20
    3866:	a3 2f       	mov	r26, r19
    3868:	b2 2f       	mov	r27, r18
    386a:	80 93 0a 02 	sts	0x020A, r24
    386e:	90 93 0b 02 	sts	0x020B, r25
    3872:	a0 93 0c 02 	sts	0x020C, r26
    3876:	b0 93 0d 02 	sts	0x020D, r27
	biasZ += KZ_1 * ZZ;
    387a:	4a 85       	ldd	r20, Y+10	; 0x0a
    387c:	3b 85       	ldd	r19, Y+11	; 0x0b
    387e:	2c 85       	ldd	r18, Y+12	; 0x0c
    3880:	65 2d       	mov	r22, r5
    3882:	74 2f       	mov	r23, r20
    3884:	83 2f       	mov	r24, r19
    3886:	92 2f       	mov	r25, r18
    3888:	2e 2d       	mov	r18, r14
    388a:	3d 2d       	mov	r19, r13
    388c:	4c 2d       	mov	r20, r12
    388e:	5b 2d       	mov	r21, r11
    3890:	0e 94 1a 28 	call	0x5034	; 0x5034 <__mulsf3>
    3894:	9b 01       	movw	r18, r22
    3896:	ac 01       	movw	r20, r24
    3898:	6d 85       	ldd	r22, Y+13	; 0x0d
    389a:	7e 85       	ldd	r23, Y+14	; 0x0e
    389c:	8f 85       	ldd	r24, Y+15	; 0x0f
    389e:	98 89       	ldd	r25, Y+16	; 0x10
    38a0:	0e 94 99 25 	call	0x4b32	; 0x4b32 <__addsf3>
    38a4:	60 93 0e 02 	sts	0x020E, r22
    38a8:	70 93 0f 02 	sts	0x020F, r23
    38ac:	80 93 10 02 	sts	0x0210, r24
    38b0:	90 93 11 02 	sts	0x0211, r25

	// Calculate estimation error covariance - Update the error covariance
	PZ_00 -= KZ_0 * PZ_00;
    38b4:	29 85       	ldd	r18, Y+9	; 0x09
    38b6:	62 2d       	mov	r22, r2
    38b8:	74 2d       	mov	r23, r4
    38ba:	83 2d       	mov	r24, r3
    38bc:	92 2f       	mov	r25, r18
    38be:	2f 2d       	mov	r18, r15
    38c0:	30 2f       	mov	r19, r16
    38c2:	41 2f       	mov	r20, r17
    38c4:	5a 2d       	mov	r21, r10
    38c6:	0e 94 1a 28 	call	0x5034	; 0x5034 <__mulsf3>
    38ca:	9b 01       	movw	r18, r22
    38cc:	ac 01       	movw	r20, r24
    38ce:	d9 84       	ldd	r13, Y+9	; 0x09
    38d0:	62 2d       	mov	r22, r2
    38d2:	74 2d       	mov	r23, r4
    38d4:	83 2d       	mov	r24, r3
    38d6:	9d 2d       	mov	r25, r13
    38d8:	0e 94 98 25 	call	0x4b30	; 0x4b30 <__subsf3>
    38dc:	e6 2e       	mov	r14, r22
    38de:	d7 2e       	mov	r13, r23
    38e0:	c8 2e       	mov	r12, r24
    38e2:	b9 2e       	mov	r11, r25
    38e4:	86 2f       	mov	r24, r22
    38e6:	9d 2d       	mov	r25, r13
    38e8:	ac 2d       	mov	r26, r12
    38ea:	bb 2d       	mov	r27, r11
    38ec:	80 93 12 02 	sts	0x0212, r24
    38f0:	90 93 13 02 	sts	0x0213, r25
    38f4:	a0 93 14 02 	sts	0x0214, r26
    38f8:	b0 93 15 02 	sts	0x0215, r27
	PZ_01 -= KZ_0 * PZ_01;
    38fc:	5d 89       	ldd	r21, Y+21	; 0x15
    38fe:	4e 89       	ldd	r20, Y+22	; 0x16
    3900:	3f 89       	ldd	r19, Y+23	; 0x17
    3902:	28 8d       	ldd	r18, Y+24	; 0x18
    3904:	65 2f       	mov	r22, r21
    3906:	74 2f       	mov	r23, r20
    3908:	83 2f       	mov	r24, r19
    390a:	92 2f       	mov	r25, r18
    390c:	2f 2d       	mov	r18, r15
    390e:	30 2f       	mov	r19, r16
    3910:	41 2f       	mov	r20, r17
    3912:	5a 2d       	mov	r21, r10
    3914:	0e 94 1a 28 	call	0x5034	; 0x5034 <__mulsf3>
    3918:	9b 01       	movw	r18, r22
    391a:	ac 01       	movw	r20, r24
    391c:	bd 89       	ldd	r27, Y+21	; 0x15
    391e:	ae 89       	ldd	r26, Y+22	; 0x16
    3920:	1f 89       	ldd	r17, Y+23	; 0x17
    3922:	08 8d       	ldd	r16, Y+24	; 0x18
    3924:	6b 2f       	mov	r22, r27
    3926:	7a 2f       	mov	r23, r26
    3928:	81 2f       	mov	r24, r17
    392a:	90 2f       	mov	r25, r16
    392c:	0e 94 98 25 	call	0x4b30	; 0x4b30 <__subsf3>
    3930:	f6 2e       	mov	r15, r22
    3932:	07 2f       	mov	r16, r23
    3934:	18 2f       	mov	r17, r24
    3936:	a9 2e       	mov	r10, r25
    3938:	86 2f       	mov	r24, r22
    393a:	90 2f       	mov	r25, r16
    393c:	a1 2f       	mov	r26, r17
    393e:	ba 2d       	mov	r27, r10
    3940:	80 93 16 02 	sts	0x0216, r24
    3944:	90 93 17 02 	sts	0x0217, r25
    3948:	a0 93 18 02 	sts	0x0218, r26
    394c:	b0 93 19 02 	sts	0x0219, r27
	PZ_10 -= KZ_1 * PZ_00;
    3950:	4a 85       	ldd	r20, Y+10	; 0x0a
    3952:	3b 85       	ldd	r19, Y+11	; 0x0b
    3954:	2c 85       	ldd	r18, Y+12	; 0x0c
    3956:	65 2d       	mov	r22, r5
    3958:	74 2f       	mov	r23, r20
    395a:	83 2f       	mov	r24, r19
    395c:	92 2f       	mov	r25, r18
    395e:	2e 2d       	mov	r18, r14
    3960:	3d 2d       	mov	r19, r13
    3962:	4c 2d       	mov	r20, r12
    3964:	5b 2d       	mov	r21, r11
    3966:	0e 94 1a 28 	call	0x5034	; 0x5034 <__mulsf3>
    396a:	9b 01       	movw	r18, r22
    396c:	ac 01       	movw	r20, r24
    396e:	66 2d       	mov	r22, r6
    3970:	79 2d       	mov	r23, r9
    3972:	88 2d       	mov	r24, r8
    3974:	97 2d       	mov	r25, r7
    3976:	0e 94 98 25 	call	0x4b30	; 0x4b30 <__subsf3>
    397a:	60 93 1a 02 	sts	0x021A, r22
    397e:	70 93 1b 02 	sts	0x021B, r23
    3982:	80 93 1c 02 	sts	0x021C, r24
    3986:	90 93 1d 02 	sts	0x021D, r25

	// Update estimation error covariance - Project the error covariance ahead
	PZ_00 += -dtZ * (PZ_10 + PZ_01) + Q_angleZ * dtZ;
	PZ_01 += -dtZ * PZ_11;
	PZ_10 += -dtZ * PZ_11;
	PZ_11 += +Q_gyroZ * dtZ;
    398a:	69 81       	ldd	r22, Y+1	; 0x01
    398c:	7a 81       	ldd	r23, Y+2	; 0x02
    398e:	8b 81       	ldd	r24, Y+3	; 0x03
    3990:	9c 81       	ldd	r25, Y+4	; 0x04
    3992:	26 ea       	ldi	r18, 0xA6	; 166
    3994:	3b e9       	ldi	r19, 0x9B	; 155
    3996:	44 e4       	ldi	r20, 0x44	; 68
    3998:	5b e3       	ldi	r21, 0x3B	; 59
    399a:	0e 94 1a 28 	call	0x5034	; 0x5034 <__mulsf3>
    399e:	9b 01       	movw	r18, r22
    39a0:	ac 01       	movw	r20, r24
    39a2:	69 89       	ldd	r22, Y+17	; 0x11
    39a4:	7a 89       	ldd	r23, Y+18	; 0x12
    39a6:	8b 89       	ldd	r24, Y+19	; 0x13
    39a8:	9c 89       	ldd	r25, Y+20	; 0x14
    39aa:	0e 94 99 25 	call	0x4b32	; 0x4b32 <__addsf3>
    39ae:	3b 01       	movw	r6, r22
    39b0:	4c 01       	movw	r8, r24

	// Calculate estimation error covariance - Update the error covariance
	PZ_00 -= KZ_0 * PZ_00;
	PZ_01 -= KZ_0 * PZ_01;
	PZ_10 -= KZ_1 * PZ_00;
	PZ_11 -= KZ_1 * PZ_01;
    39b2:	4a 85       	ldd	r20, Y+10	; 0x0a
    39b4:	3b 85       	ldd	r19, Y+11	; 0x0b
    39b6:	2c 85       	ldd	r18, Y+12	; 0x0c
    39b8:	65 2d       	mov	r22, r5
    39ba:	74 2f       	mov	r23, r20
    39bc:	83 2f       	mov	r24, r19
    39be:	92 2f       	mov	r25, r18
    39c0:	2f 2d       	mov	r18, r15
    39c2:	30 2f       	mov	r19, r16
    39c4:	41 2f       	mov	r20, r17
    39c6:	5a 2d       	mov	r21, r10
    39c8:	0e 94 1a 28 	call	0x5034	; 0x5034 <__mulsf3>
    39cc:	9b 01       	movw	r18, r22
    39ce:	ac 01       	movw	r20, r24
    39d0:	c4 01       	movw	r24, r8
    39d2:	b3 01       	movw	r22, r6
    39d4:	0e 94 98 25 	call	0x4b30	; 0x4b30 <__subsf3>
    39d8:	60 93 1e 02 	sts	0x021E, r22
    39dc:	70 93 1f 02 	sts	0x021F, r23
    39e0:	80 93 20 02 	sts	0x0220, r24
    39e4:	90 93 21 02 	sts	0x0221, r25

	return angleZ;
}
    39e8:	5d 81       	ldd	r21, Y+5	; 0x05
    39ea:	4e 81       	ldd	r20, Y+6	; 0x06
    39ec:	3f 81       	ldd	r19, Y+7	; 0x07
    39ee:	28 85       	ldd	r18, Y+8	; 0x08
    39f0:	65 2f       	mov	r22, r21
    39f2:	74 2f       	mov	r23, r20
    39f4:	83 2f       	mov	r24, r19
    39f6:	92 2f       	mov	r25, r18
    39f8:	6d 96       	adiw	r28, 0x1d	; 29
    39fa:	0f b6       	in	r0, 0x3f	; 63
    39fc:	f8 94       	cli
    39fe:	de bf       	out	0x3e, r29	; 62
    3a00:	0f be       	out	0x3f, r0	; 63
    3a02:	cd bf       	out	0x3d, r28	; 61
    3a04:	cf 91       	pop	r28
    3a06:	df 91       	pop	r29
    3a08:	1f 91       	pop	r17
    3a0a:	0f 91       	pop	r16
    3a0c:	ff 90       	pop	r15
    3a0e:	ef 90       	pop	r14
    3a10:	df 90       	pop	r13
    3a12:	cf 90       	pop	r12
    3a14:	bf 90       	pop	r11
    3a16:	af 90       	pop	r10
    3a18:	9f 90       	pop	r9
    3a1a:	8f 90       	pop	r8
    3a1c:	7f 90       	pop	r7
    3a1e:	6f 90       	pop	r6
    3a20:	5f 90       	pop	r5
    3a22:	4f 90       	pop	r4
    3a24:	3f 90       	pop	r3
    3a26:	2f 90       	pop	r2
    3a28:	08 95       	ret

00003a2a <SrvKalmanFilterAlt>:
double PALT_00 = 0, PALT_01 = 0, PALT_10 = 0, PALT_11 = 0;
double dtALT, ZALT, SALT;
double KALT_0, KALT_1;

double SrvKalmanFilterAlt(double newAngle, double newRate, double dtime)
{
    3a2a:	2f 92       	push	r2
    3a2c:	3f 92       	push	r3
    3a2e:	4f 92       	push	r4
    3a30:	5f 92       	push	r5
    3a32:	6f 92       	push	r6
    3a34:	7f 92       	push	r7
    3a36:	8f 92       	push	r8
    3a38:	9f 92       	push	r9
    3a3a:	af 92       	push	r10
    3a3c:	bf 92       	push	r11
    3a3e:	cf 92       	push	r12
    3a40:	df 92       	push	r13
    3a42:	ef 92       	push	r14
    3a44:	ff 92       	push	r15
    3a46:	0f 93       	push	r16
    3a48:	1f 93       	push	r17
    3a4a:	df 93       	push	r29
    3a4c:	cf 93       	push	r28
    3a4e:	cd b7       	in	r28, 0x3d	; 61
    3a50:	de b7       	in	r29, 0x3e	; 62
    3a52:	6d 97       	sbiw	r28, 0x1d	; 29
    3a54:	0f b6       	in	r0, 0x3f	; 63
    3a56:	f8 94       	cli
    3a58:	de bf       	out	0x3e, r29	; 62
    3a5a:	0f be       	out	0x3f, r0	; 63
    3a5c:	cd bf       	out	0x3d, r28	; 61
    3a5e:	69 8f       	std	Y+25, r22	; 0x19
    3a60:	7a 8f       	std	Y+26, r23	; 0x1a
    3a62:	8b 8f       	std	Y+27, r24	; 0x1b
    3a64:	9c 8f       	std	Y+28, r25	; 0x1c
    3a66:	59 01       	movw	r10, r18
    3a68:	6a 01       	movw	r12, r20
    3a6a:	c8 01       	movw	r24, r16
    3a6c:	b7 01       	movw	r22, r14
	dtALT = dtime / 10000.0; // Convert from microseconds to seconds
    3a6e:	20 e0       	ldi	r18, 0x00	; 0
    3a70:	30 e4       	ldi	r19, 0x40	; 64
    3a72:	4c e1       	ldi	r20, 0x1C	; 28
    3a74:	56 e4       	ldi	r21, 0x46	; 70
    3a76:	0e 94 66 26 	call	0x4ccc	; 0x4ccc <__divsf3>
    3a7a:	69 83       	std	Y+1, r22	; 0x01
    3a7c:	7a 83       	std	Y+2, r23	; 0x02
    3a7e:	8b 83       	std	Y+3, r24	; 0x03
    3a80:	9c 83       	std	Y+4, r25	; 0x04
    3a82:	7b 01       	movw	r14, r22
    3a84:	8c 01       	movw	r16, r24
    3a86:	cb 01       	movw	r24, r22
    3a88:	ab 81       	ldd	r26, Y+3	; 0x03
    3a8a:	bc 81       	ldd	r27, Y+4	; 0x04
    3a8c:	80 93 69 03 	sts	0x0369, r24
    3a90:	90 93 6a 03 	sts	0x036A, r25
    3a94:	a0 93 6b 03 	sts	0x036B, r26
    3a98:	b0 93 6c 03 	sts	0x036C, r27

	// Discrete Kalman filter time update equations - Time Update ("Predict")
	// Update xhat - Project the state ahead
	angleALT += dtALT * (newRate - biasALT);
    3a9c:	80 91 26 02 	lds	r24, 0x0226
    3aa0:	90 91 27 02 	lds	r25, 0x0227
    3aa4:	a0 91 28 02 	lds	r26, 0x0228
    3aa8:	b0 91 29 02 	lds	r27, 0x0229
    3aac:	8d 87       	std	Y+13, r24	; 0x0d
    3aae:	9e 87       	std	Y+14, r25	; 0x0e
    3ab0:	af 87       	std	Y+15, r26	; 0x0f
    3ab2:	b8 8b       	std	Y+16, r27	; 0x10
    3ab4:	c6 01       	movw	r24, r12
    3ab6:	b5 01       	movw	r22, r10
    3ab8:	2d 85       	ldd	r18, Y+13	; 0x0d
    3aba:	3e 85       	ldd	r19, Y+14	; 0x0e
    3abc:	4f 85       	ldd	r20, Y+15	; 0x0f
    3abe:	58 89       	ldd	r21, Y+16	; 0x10
    3ac0:	0e 94 98 25 	call	0x4b30	; 0x4b30 <__subsf3>
    3ac4:	9b 01       	movw	r18, r22
    3ac6:	ac 01       	movw	r20, r24
    3ac8:	69 81       	ldd	r22, Y+1	; 0x01
    3aca:	7a 81       	ldd	r23, Y+2	; 0x02
    3acc:	8b 81       	ldd	r24, Y+3	; 0x03
    3ace:	9c 81       	ldd	r25, Y+4	; 0x04
    3ad0:	0e 94 1a 28 	call	0x5034	; 0x5034 <__mulsf3>
    3ad4:	20 91 22 02 	lds	r18, 0x0222
    3ad8:	30 91 23 02 	lds	r19, 0x0223
    3adc:	40 91 24 02 	lds	r20, 0x0224
    3ae0:	50 91 25 02 	lds	r21, 0x0225
    3ae4:	0e 94 99 25 	call	0x4b32	; 0x4b32 <__addsf3>
    3ae8:	6d 83       	std	Y+5, r22	; 0x05
    3aea:	7e 83       	std	Y+6, r23	; 0x06
    3aec:	8f 83       	std	Y+7, r24	; 0x07
    3aee:	98 87       	std	Y+8, r25	; 0x08

	// Update estimation error covariance - Project the error covariance ahead
	PALT_00 += -dtALT * (PALT_10 + PALT_01) + Q_baroALT * dtALT;
    3af0:	17 fb       	bst	r17, 7
    3af2:	10 95       	com	r17
    3af4:	17 f9       	bld	r17, 7
    3af6:	10 95       	com	r17
    3af8:	60 90 32 02 	lds	r6, 0x0232
    3afc:	70 90 33 02 	lds	r7, 0x0233
    3b00:	80 90 34 02 	lds	r8, 0x0234
    3b04:	90 90 35 02 	lds	r9, 0x0235
    3b08:	a0 90 2e 02 	lds	r10, 0x022E
    3b0c:	b0 90 2f 02 	lds	r11, 0x022F
    3b10:	c0 90 30 02 	lds	r12, 0x0230
    3b14:	d0 90 31 02 	lds	r13, 0x0231
    3b18:	c4 01       	movw	r24, r8
    3b1a:	b3 01       	movw	r22, r6
    3b1c:	a6 01       	movw	r20, r12
    3b1e:	95 01       	movw	r18, r10
    3b20:	0e 94 99 25 	call	0x4b32	; 0x4b32 <__addsf3>
    3b24:	9b 01       	movw	r18, r22
    3b26:	ac 01       	movw	r20, r24
    3b28:	c8 01       	movw	r24, r16
    3b2a:	b7 01       	movw	r22, r14
    3b2c:	0e 94 1a 28 	call	0x5034	; 0x5034 <__mulsf3>
    3b30:	1b 01       	movw	r2, r22
    3b32:	2c 01       	movw	r4, r24
    3b34:	69 81       	ldd	r22, Y+1	; 0x01
    3b36:	7a 81       	ldd	r23, Y+2	; 0x02
    3b38:	8b 81       	ldd	r24, Y+3	; 0x03
    3b3a:	9c 81       	ldd	r25, Y+4	; 0x04
    3b3c:	2f e6       	ldi	r18, 0x6F	; 111
    3b3e:	32 e1       	ldi	r19, 0x12	; 18
    3b40:	43 e8       	ldi	r20, 0x83	; 131
    3b42:	5a e3       	ldi	r21, 0x3A	; 58
    3b44:	0e 94 1a 28 	call	0x5034	; 0x5034 <__mulsf3>
    3b48:	9b 01       	movw	r18, r22
    3b4a:	ac 01       	movw	r20, r24
    3b4c:	c2 01       	movw	r24, r4
    3b4e:	b1 01       	movw	r22, r2
    3b50:	0e 94 99 25 	call	0x4b32	; 0x4b32 <__addsf3>
    3b54:	20 91 2a 02 	lds	r18, 0x022A
    3b58:	30 91 2b 02 	lds	r19, 0x022B
    3b5c:	40 91 2c 02 	lds	r20, 0x022C
    3b60:	50 91 2d 02 	lds	r21, 0x022D
    3b64:	0e 94 99 25 	call	0x4b32	; 0x4b32 <__addsf3>
    3b68:	26 2e       	mov	r2, r22
    3b6a:	47 2e       	mov	r4, r23
    3b6c:	38 2e       	mov	r3, r24
    3b6e:	99 87       	std	Y+9, r25	; 0x09
	PALT_01 += -dtALT * PALT_11;
    3b70:	80 91 36 02 	lds	r24, 0x0236
    3b74:	90 91 37 02 	lds	r25, 0x0237
    3b78:	a0 91 38 02 	lds	r26, 0x0238
    3b7c:	b0 91 39 02 	lds	r27, 0x0239
    3b80:	89 8b       	std	Y+17, r24	; 0x11
    3b82:	9a 8b       	std	Y+18, r25	; 0x12
    3b84:	ab 8b       	std	Y+19, r26	; 0x13
    3b86:	bc 8b       	std	Y+20, r27	; 0x14
    3b88:	c8 01       	movw	r24, r16
    3b8a:	b7 01       	movw	r22, r14
    3b8c:	29 89       	ldd	r18, Y+17	; 0x11
    3b8e:	3a 89       	ldd	r19, Y+18	; 0x12
    3b90:	4b 89       	ldd	r20, Y+19	; 0x13
    3b92:	5c 89       	ldd	r21, Y+20	; 0x14
    3b94:	0e 94 1a 28 	call	0x5034	; 0x5034 <__mulsf3>
    3b98:	f6 2e       	mov	r15, r22
    3b9a:	07 2f       	mov	r16, r23
    3b9c:	18 2f       	mov	r17, r24
    3b9e:	e9 2e       	mov	r14, r25
    3ba0:	c6 01       	movw	r24, r12
    3ba2:	b5 01       	movw	r22, r10
    3ba4:	2f 2d       	mov	r18, r15
    3ba6:	30 2f       	mov	r19, r16
    3ba8:	41 2f       	mov	r20, r17
    3baa:	5e 2d       	mov	r21, r14
    3bac:	0e 94 99 25 	call	0x4b32	; 0x4b32 <__addsf3>
    3bb0:	6d 8b       	std	Y+21, r22	; 0x15
    3bb2:	7e 8b       	std	Y+22, r23	; 0x16
    3bb4:	8f 8b       	std	Y+23, r24	; 0x17
    3bb6:	98 8f       	std	Y+24, r25	; 0x18
	PALT_10 += -dtALT * PALT_11;
    3bb8:	c4 01       	movw	r24, r8
    3bba:	b3 01       	movw	r22, r6
    3bbc:	2f 2d       	mov	r18, r15
    3bbe:	30 2f       	mov	r19, r16
    3bc0:	41 2f       	mov	r20, r17
    3bc2:	5e 2d       	mov	r21, r14
    3bc4:	0e 94 99 25 	call	0x4b32	; 0x4b32 <__addsf3>
    3bc8:	66 2e       	mov	r6, r22
    3bca:	97 2e       	mov	r9, r23
    3bcc:	88 2e       	mov	r8, r24
    3bce:	79 2e       	mov	r7, r25
	PALT_11 += +Q_accelALT * dtALT;

	// Discrete Kalman filter measurement update equations - Measurement Update ("Correct")
	// Calculate Kalman gain - Compute the Kalman gain
	SALT = PALT_00 + R_angleALT;
    3bd0:	29 85       	ldd	r18, Y+9	; 0x09
    3bd2:	62 2d       	mov	r22, r2
    3bd4:	74 2d       	mov	r23, r4
    3bd6:	83 2d       	mov	r24, r3
    3bd8:	92 2f       	mov	r25, r18
    3bda:	2f e8       	ldi	r18, 0x8F	; 143
    3bdc:	32 ec       	ldi	r19, 0xC2	; 194
    3bde:	45 ef       	ldi	r20, 0xF5	; 245
    3be0:	5c e3       	ldi	r21, 0x3C	; 60
    3be2:	0e 94 99 25 	call	0x4b32	; 0x4b32 <__addsf3>
    3be6:	e6 2e       	mov	r14, r22
    3be8:	d7 2e       	mov	r13, r23
    3bea:	c8 2e       	mov	r12, r24
    3bec:	b9 2e       	mov	r11, r25
    3bee:	86 2f       	mov	r24, r22
    3bf0:	9d 2d       	mov	r25, r13
    3bf2:	ac 2d       	mov	r26, r12
    3bf4:	bb 2d       	mov	r27, r11
    3bf6:	80 93 65 03 	sts	0x0365, r24
    3bfa:	90 93 66 03 	sts	0x0366, r25
    3bfe:	a0 93 67 03 	sts	0x0367, r26
    3c02:	b0 93 68 03 	sts	0x0368, r27
	KALT_0 = PALT_00 / SALT;
    3c06:	29 85       	ldd	r18, Y+9	; 0x09
    3c08:	62 2d       	mov	r22, r2
    3c0a:	74 2d       	mov	r23, r4
    3c0c:	83 2d       	mov	r24, r3
    3c0e:	92 2f       	mov	r25, r18
    3c10:	2e 2d       	mov	r18, r14
    3c12:	3d 2d       	mov	r19, r13
    3c14:	4c 2d       	mov	r20, r12
    3c16:	5b 2d       	mov	r21, r11
    3c18:	0e 94 66 26 	call	0x4ccc	; 0x4ccc <__divsf3>
    3c1c:	f6 2e       	mov	r15, r22
    3c1e:	07 2f       	mov	r16, r23
    3c20:	18 2f       	mov	r17, r24
    3c22:	a9 2e       	mov	r10, r25
    3c24:	86 2f       	mov	r24, r22
    3c26:	90 2f       	mov	r25, r16
    3c28:	a1 2f       	mov	r26, r17
    3c2a:	ba 2d       	mov	r27, r10
    3c2c:	80 93 8d 03 	sts	0x038D, r24
    3c30:	90 93 8e 03 	sts	0x038E, r25
    3c34:	a0 93 8f 03 	sts	0x038F, r26
    3c38:	b0 93 90 03 	sts	0x0390, r27
	KALT_1 = PALT_10 / SALT;
    3c3c:	66 2d       	mov	r22, r6
    3c3e:	79 2d       	mov	r23, r9
    3c40:	88 2d       	mov	r24, r8
    3c42:	97 2d       	mov	r25, r7
    3c44:	2e 2d       	mov	r18, r14
    3c46:	3d 2d       	mov	r19, r13
    3c48:	4c 2d       	mov	r20, r12
    3c4a:	5b 2d       	mov	r21, r11
    3c4c:	0e 94 66 26 	call	0x4ccc	; 0x4ccc <__divsf3>
    3c50:	56 2e       	mov	r5, r22
    3c52:	7a 87       	std	Y+10, r23	; 0x0a
    3c54:	8b 87       	std	Y+11, r24	; 0x0b
    3c56:	9c 87       	std	Y+12, r25	; 0x0c
    3c58:	47 2f       	mov	r20, r23
    3c5a:	38 2f       	mov	r19, r24
    3c5c:	29 2f       	mov	r18, r25
    3c5e:	86 2f       	mov	r24, r22
    3c60:	94 2f       	mov	r25, r20
    3c62:	a3 2f       	mov	r26, r19
    3c64:	b2 2f       	mov	r27, r18
    3c66:	80 93 a1 03 	sts	0x03A1, r24
    3c6a:	90 93 a2 03 	sts	0x03A2, r25
    3c6e:	a0 93 a3 03 	sts	0x03A3, r26
    3c72:	b0 93 a4 03 	sts	0x03A4, r27

	// Calculate angle and resting rate - Update estimate with measurement zk
	ZALT = newAngle - angleALT;
    3c76:	69 8d       	ldd	r22, Y+25	; 0x19
    3c78:	7a 8d       	ldd	r23, Y+26	; 0x1a
    3c7a:	8b 8d       	ldd	r24, Y+27	; 0x1b
    3c7c:	9c 8d       	ldd	r25, Y+28	; 0x1c
    3c7e:	bd 81       	ldd	r27, Y+5	; 0x05
    3c80:	ae 81       	ldd	r26, Y+6	; 0x06
    3c82:	ef 80       	ldd	r14, Y+7	; 0x07
    3c84:	d8 84       	ldd	r13, Y+8	; 0x08
    3c86:	2b 2f       	mov	r18, r27
    3c88:	3a 2f       	mov	r19, r26
    3c8a:	4e 2d       	mov	r20, r14
    3c8c:	5d 2d       	mov	r21, r13
    3c8e:	0e 94 98 25 	call	0x4b30	; 0x4b30 <__subsf3>
    3c92:	e6 2e       	mov	r14, r22
    3c94:	d7 2e       	mov	r13, r23
    3c96:	c8 2e       	mov	r12, r24
    3c98:	b9 2e       	mov	r11, r25
    3c9a:	86 2f       	mov	r24, r22
    3c9c:	9d 2d       	mov	r25, r13
    3c9e:	ac 2d       	mov	r26, r12
    3ca0:	bb 2d       	mov	r27, r11
    3ca2:	80 93 85 03 	sts	0x0385, r24
    3ca6:	90 93 86 03 	sts	0x0386, r25
    3caa:	a0 93 87 03 	sts	0x0387, r26
    3cae:	b0 93 88 03 	sts	0x0388, r27
	angleALT += KALT_0 * ZALT;
    3cb2:	6f 2d       	mov	r22, r15
    3cb4:	70 2f       	mov	r23, r16
    3cb6:	81 2f       	mov	r24, r17
    3cb8:	9a 2d       	mov	r25, r10
    3cba:	2e 2d       	mov	r18, r14
    3cbc:	3d 2d       	mov	r19, r13
    3cbe:	4c 2d       	mov	r20, r12
    3cc0:	5b 2d       	mov	r21, r11
    3cc2:	0e 94 1a 28 	call	0x5034	; 0x5034 <__mulsf3>
    3cc6:	9b 01       	movw	r18, r22
    3cc8:	ac 01       	movw	r20, r24
    3cca:	bd 81       	ldd	r27, Y+5	; 0x05
    3ccc:	ae 81       	ldd	r26, Y+6	; 0x06
    3cce:	9f 81       	ldd	r25, Y+7	; 0x07
    3cd0:	99 8f       	std	Y+25, r25	; 0x19
    3cd2:	e8 85       	ldd	r30, Y+8	; 0x08
    3cd4:	ed 8f       	std	Y+29, r30	; 0x1d
    3cd6:	6b 2f       	mov	r22, r27
    3cd8:	7a 2f       	mov	r23, r26
    3cda:	89 2f       	mov	r24, r25
    3cdc:	9e 2f       	mov	r25, r30
    3cde:	0e 94 99 25 	call	0x4b32	; 0x4b32 <__addsf3>
    3ce2:	6d 83       	std	Y+5, r22	; 0x05
    3ce4:	7e 83       	std	Y+6, r23	; 0x06
    3ce6:	8f 83       	std	Y+7, r24	; 0x07
    3ce8:	98 87       	std	Y+8, r25	; 0x08
    3cea:	47 2f       	mov	r20, r23
    3cec:	38 2f       	mov	r19, r24
    3cee:	29 2f       	mov	r18, r25
    3cf0:	86 2f       	mov	r24, r22
    3cf2:	94 2f       	mov	r25, r20
    3cf4:	a3 2f       	mov	r26, r19
    3cf6:	b2 2f       	mov	r27, r18
    3cf8:	80 93 22 02 	sts	0x0222, r24
    3cfc:	90 93 23 02 	sts	0x0223, r25
    3d00:	a0 93 24 02 	sts	0x0224, r26
    3d04:	b0 93 25 02 	sts	0x0225, r27
	biasALT += KALT_1 * ZALT;
    3d08:	4a 85       	ldd	r20, Y+10	; 0x0a
    3d0a:	3b 85       	ldd	r19, Y+11	; 0x0b
    3d0c:	2c 85       	ldd	r18, Y+12	; 0x0c
    3d0e:	65 2d       	mov	r22, r5
    3d10:	74 2f       	mov	r23, r20
    3d12:	83 2f       	mov	r24, r19
    3d14:	92 2f       	mov	r25, r18
    3d16:	2e 2d       	mov	r18, r14
    3d18:	3d 2d       	mov	r19, r13
    3d1a:	4c 2d       	mov	r20, r12
    3d1c:	5b 2d       	mov	r21, r11
    3d1e:	0e 94 1a 28 	call	0x5034	; 0x5034 <__mulsf3>
    3d22:	9b 01       	movw	r18, r22
    3d24:	ac 01       	movw	r20, r24
    3d26:	6d 85       	ldd	r22, Y+13	; 0x0d
    3d28:	7e 85       	ldd	r23, Y+14	; 0x0e
    3d2a:	8f 85       	ldd	r24, Y+15	; 0x0f
    3d2c:	98 89       	ldd	r25, Y+16	; 0x10
    3d2e:	0e 94 99 25 	call	0x4b32	; 0x4b32 <__addsf3>
    3d32:	60 93 26 02 	sts	0x0226, r22
    3d36:	70 93 27 02 	sts	0x0227, r23
    3d3a:	80 93 28 02 	sts	0x0228, r24
    3d3e:	90 93 29 02 	sts	0x0229, r25

	// Calculate estimation error covariance - Update the error covariance
	PALT_00 -= KALT_0 * PALT_00;
    3d42:	29 85       	ldd	r18, Y+9	; 0x09
    3d44:	62 2d       	mov	r22, r2
    3d46:	74 2d       	mov	r23, r4
    3d48:	83 2d       	mov	r24, r3
    3d4a:	92 2f       	mov	r25, r18
    3d4c:	2f 2d       	mov	r18, r15
    3d4e:	30 2f       	mov	r19, r16
    3d50:	41 2f       	mov	r20, r17
    3d52:	5a 2d       	mov	r21, r10
    3d54:	0e 94 1a 28 	call	0x5034	; 0x5034 <__mulsf3>
    3d58:	9b 01       	movw	r18, r22
    3d5a:	ac 01       	movw	r20, r24
    3d5c:	d9 84       	ldd	r13, Y+9	; 0x09
    3d5e:	62 2d       	mov	r22, r2
    3d60:	74 2d       	mov	r23, r4
    3d62:	83 2d       	mov	r24, r3
    3d64:	9d 2d       	mov	r25, r13
    3d66:	0e 94 98 25 	call	0x4b30	; 0x4b30 <__subsf3>
    3d6a:	e6 2e       	mov	r14, r22
    3d6c:	d7 2e       	mov	r13, r23
    3d6e:	c8 2e       	mov	r12, r24
    3d70:	b9 2e       	mov	r11, r25
    3d72:	86 2f       	mov	r24, r22
    3d74:	9d 2d       	mov	r25, r13
    3d76:	ac 2d       	mov	r26, r12
    3d78:	bb 2d       	mov	r27, r11
    3d7a:	80 93 2a 02 	sts	0x022A, r24
    3d7e:	90 93 2b 02 	sts	0x022B, r25
    3d82:	a0 93 2c 02 	sts	0x022C, r26
    3d86:	b0 93 2d 02 	sts	0x022D, r27
	PALT_01 -= KALT_0 * PALT_01;
    3d8a:	5d 89       	ldd	r21, Y+21	; 0x15
    3d8c:	4e 89       	ldd	r20, Y+22	; 0x16
    3d8e:	3f 89       	ldd	r19, Y+23	; 0x17
    3d90:	28 8d       	ldd	r18, Y+24	; 0x18
    3d92:	65 2f       	mov	r22, r21
    3d94:	74 2f       	mov	r23, r20
    3d96:	83 2f       	mov	r24, r19
    3d98:	92 2f       	mov	r25, r18
    3d9a:	2f 2d       	mov	r18, r15
    3d9c:	30 2f       	mov	r19, r16
    3d9e:	41 2f       	mov	r20, r17
    3da0:	5a 2d       	mov	r21, r10
    3da2:	0e 94 1a 28 	call	0x5034	; 0x5034 <__mulsf3>
    3da6:	9b 01       	movw	r18, r22
    3da8:	ac 01       	movw	r20, r24
    3daa:	bd 89       	ldd	r27, Y+21	; 0x15
    3dac:	ae 89       	ldd	r26, Y+22	; 0x16
    3dae:	1f 89       	ldd	r17, Y+23	; 0x17
    3db0:	08 8d       	ldd	r16, Y+24	; 0x18
    3db2:	6b 2f       	mov	r22, r27
    3db4:	7a 2f       	mov	r23, r26
    3db6:	81 2f       	mov	r24, r17
    3db8:	90 2f       	mov	r25, r16
    3dba:	0e 94 98 25 	call	0x4b30	; 0x4b30 <__subsf3>
    3dbe:	f6 2e       	mov	r15, r22
    3dc0:	07 2f       	mov	r16, r23
    3dc2:	18 2f       	mov	r17, r24
    3dc4:	a9 2e       	mov	r10, r25
    3dc6:	86 2f       	mov	r24, r22
    3dc8:	90 2f       	mov	r25, r16
    3dca:	a1 2f       	mov	r26, r17
    3dcc:	ba 2d       	mov	r27, r10
    3dce:	80 93 2e 02 	sts	0x022E, r24
    3dd2:	90 93 2f 02 	sts	0x022F, r25
    3dd6:	a0 93 30 02 	sts	0x0230, r26
    3dda:	b0 93 31 02 	sts	0x0231, r27
	PALT_10 -= KALT_1 * PALT_00;
    3dde:	4a 85       	ldd	r20, Y+10	; 0x0a
    3de0:	3b 85       	ldd	r19, Y+11	; 0x0b
    3de2:	2c 85       	ldd	r18, Y+12	; 0x0c
    3de4:	65 2d       	mov	r22, r5
    3de6:	74 2f       	mov	r23, r20
    3de8:	83 2f       	mov	r24, r19
    3dea:	92 2f       	mov	r25, r18
    3dec:	2e 2d       	mov	r18, r14
    3dee:	3d 2d       	mov	r19, r13
    3df0:	4c 2d       	mov	r20, r12
    3df2:	5b 2d       	mov	r21, r11
    3df4:	0e 94 1a 28 	call	0x5034	; 0x5034 <__mulsf3>
    3df8:	9b 01       	movw	r18, r22
    3dfa:	ac 01       	movw	r20, r24
    3dfc:	66 2d       	mov	r22, r6
    3dfe:	79 2d       	mov	r23, r9
    3e00:	88 2d       	mov	r24, r8
    3e02:	97 2d       	mov	r25, r7
    3e04:	0e 94 98 25 	call	0x4b30	; 0x4b30 <__subsf3>
    3e08:	60 93 32 02 	sts	0x0232, r22
    3e0c:	70 93 33 02 	sts	0x0233, r23
    3e10:	80 93 34 02 	sts	0x0234, r24
    3e14:	90 93 35 02 	sts	0x0235, r25

	// Update estimation error covariance - Project the error covariance ahead
	PALT_00 += -dtALT * (PALT_10 + PALT_01) + Q_baroALT * dtALT;
	PALT_01 += -dtALT * PALT_11;
	PALT_10 += -dtALT * PALT_11;
	PALT_11 += +Q_accelALT * dtALT;
    3e18:	69 81       	ldd	r22, Y+1	; 0x01
    3e1a:	7a 81       	ldd	r23, Y+2	; 0x02
    3e1c:	8b 81       	ldd	r24, Y+3	; 0x03
    3e1e:	9c 81       	ldd	r25, Y+4	; 0x04
    3e20:	26 ea       	ldi	r18, 0xA6	; 166
    3e22:	3b e9       	ldi	r19, 0x9B	; 155
    3e24:	44 e4       	ldi	r20, 0x44	; 68
    3e26:	5b e3       	ldi	r21, 0x3B	; 59
    3e28:	0e 94 1a 28 	call	0x5034	; 0x5034 <__mulsf3>
    3e2c:	9b 01       	movw	r18, r22
    3e2e:	ac 01       	movw	r20, r24
    3e30:	69 89       	ldd	r22, Y+17	; 0x11
    3e32:	7a 89       	ldd	r23, Y+18	; 0x12
    3e34:	8b 89       	ldd	r24, Y+19	; 0x13
    3e36:	9c 89       	ldd	r25, Y+20	; 0x14
    3e38:	0e 94 99 25 	call	0x4b32	; 0x4b32 <__addsf3>
    3e3c:	3b 01       	movw	r6, r22
    3e3e:	4c 01       	movw	r8, r24

	// Calculate estimation error covariance - Update the error covariance
	PALT_00 -= KALT_0 * PALT_00;
	PALT_01 -= KALT_0 * PALT_01;
	PALT_10 -= KALT_1 * PALT_00;
	PALT_11 -= KALT_1 * PALT_01;
    3e40:	4a 85       	ldd	r20, Y+10	; 0x0a
    3e42:	3b 85       	ldd	r19, Y+11	; 0x0b
    3e44:	2c 85       	ldd	r18, Y+12	; 0x0c
    3e46:	65 2d       	mov	r22, r5
    3e48:	74 2f       	mov	r23, r20
    3e4a:	83 2f       	mov	r24, r19
    3e4c:	92 2f       	mov	r25, r18
    3e4e:	2f 2d       	mov	r18, r15
    3e50:	30 2f       	mov	r19, r16
    3e52:	41 2f       	mov	r20, r17
    3e54:	5a 2d       	mov	r21, r10
    3e56:	0e 94 1a 28 	call	0x5034	; 0x5034 <__mulsf3>
    3e5a:	9b 01       	movw	r18, r22
    3e5c:	ac 01       	movw	r20, r24
    3e5e:	c4 01       	movw	r24, r8
    3e60:	b3 01       	movw	r22, r6
    3e62:	0e 94 98 25 	call	0x4b30	; 0x4b30 <__subsf3>
    3e66:	60 93 36 02 	sts	0x0236, r22
    3e6a:	70 93 37 02 	sts	0x0237, r23
    3e6e:	80 93 38 02 	sts	0x0238, r24
    3e72:	90 93 39 02 	sts	0x0239, r25

	return angleALT;
    3e76:	5d 81       	ldd	r21, Y+5	; 0x05
    3e78:	4e 81       	ldd	r20, Y+6	; 0x06
    3e7a:	3f 81       	ldd	r19, Y+7	; 0x07
    3e7c:	28 85       	ldd	r18, Y+8	; 0x08
    3e7e:	65 2f       	mov	r22, r21
    3e80:	74 2f       	mov	r23, r20
    3e82:	83 2f       	mov	r24, r19
    3e84:	92 2f       	mov	r25, r18
    3e86:	6d 96       	adiw	r28, 0x1d	; 29
    3e88:	0f b6       	in	r0, 0x3f	; 63
    3e8a:	f8 94       	cli
    3e8c:	de bf       	out	0x3e, r29	; 62
    3e8e:	0f be       	out	0x3f, r0	; 63
    3e90:	cd bf       	out	0x3d, r28	; 61
    3e92:	cf 91       	pop	r28
    3e94:	df 91       	pop	r29
    3e96:	1f 91       	pop	r17
    3e98:	0f 91       	pop	r16
    3e9a:	ff 90       	pop	r15
    3e9c:	ef 90       	pop	r14
    3e9e:	df 90       	pop	r13
    3ea0:	cf 90       	pop	r12
    3ea2:	bf 90       	pop	r11
    3ea4:	af 90       	pop	r10
    3ea6:	9f 90       	pop	r9
    3ea8:	8f 90       	pop	r8
    3eaa:	7f 90       	pop	r7
    3eac:	6f 90       	pop	r6
    3eae:	5f 90       	pop	r5
    3eb0:	4f 90       	pop	r4
    3eb2:	3f 90       	pop	r3
    3eb4:	2f 90       	pop	r2
    3eb6:	08 95       	ret

00003eb8 <SrvMotorInit>:
/* init des moteurs                                                     */
/************************************************************************/
Boolean SrvMotorInit (void) 
{
	//init des variateurs brushless
	DrvServo();
    3eb8:	0e 94 e0 08 	call	0x11c0	; 0x11c0 <DrvServo>
	throttle = OFFCOMMAND;
    3ebc:	88 ee       	ldi	r24, 0xE8	; 232
    3ebe:	93 e0       	ldi	r25, 0x03	; 3
    3ec0:	90 93 3b 02 	sts	0x023B, r25
    3ec4:	80 93 3a 02 	sts	0x023A, r24
	rearMotor_R	 = throttle;
    3ec8:	90 93 77 01 	sts	0x0177, r25
    3ecc:	80 93 76 01 	sts	0x0176, r24
	frontMotor_R = throttle;
    3ed0:	90 93 73 01 	sts	0x0173, r25
    3ed4:	80 93 72 01 	sts	0x0172, r24
	rearMotor_L  = throttle;
    3ed8:	90 93 79 01 	sts	0x0179, r25
    3edc:	80 93 78 01 	sts	0x0178, r24
	frontMotor_L = throttle;
    3ee0:	90 93 75 01 	sts	0x0175, r25
    3ee4:	80 93 74 01 	sts	0x0174, r24
	return TRUE;
}	
    3ee8:	81 e0       	ldi	r24, 0x01	; 1
    3eea:	08 95       	ret

00003eec <SrvMotorUpdate>:

/************************************************************************/
/*Commande des moteurs en fonction de l'angle                           */
/************************************************************************/
void SrvMotorUpdate(Int16S roulis, Int16S tangage,Int16S lacet)
{
    3eec:	8f 92       	push	r8
    3eee:	9f 92       	push	r9
    3ef0:	af 92       	push	r10
    3ef2:	bf 92       	push	r11
    3ef4:	cf 92       	push	r12
    3ef6:	df 92       	push	r13
    3ef8:	ef 92       	push	r14
    3efa:	ff 92       	push	r15
    3efc:	0f 93       	push	r16
    3efe:	1f 93       	push	r17
    3f00:	cf 93       	push	r28
    3f02:	df 93       	push	r29
    3f04:	d8 2e       	mov	r13, r24
    3f06:	c9 2e       	mov	r12, r25
	if( throttle > OFFCOMMAND)
    3f08:	c0 91 3a 02 	lds	r28, 0x023A
    3f0c:	d0 91 3b 02 	lds	r29, 0x023B
    3f10:	83 e0       	ldi	r24, 0x03	; 3
    3f12:	c9 3e       	cpi	r28, 0xE9	; 233
    3f14:	d8 07       	cpc	r29, r24
    3f16:	08 f4       	brcc	.+2      	; 0x3f1a <SrvMotorUpdate+0x2e>
    3f18:	e7 c0       	rjmp	.+462    	; 0x40e8 <SrvMotorUpdate+0x1fc>
	{
		//#define QUAD_X_MIX(X,Y,Z) (throttle + roulis * X + tangage * Y + lacet * lacet * Z)
		// calcul de la vitesse pour chaque moteur
		rearMotor_R	 = constrain(throttle - tangage /*- roulis - lacet*/, OFFCOMMAND, MAXCOMMAND);
    3f1a:	5b 01       	movw	r10, r22
    3f1c:	be 01       	movw	r22, r28
    3f1e:	6a 19       	sub	r22, r10
    3f20:	7b 09       	sbc	r23, r11
    3f22:	80 e0       	ldi	r24, 0x00	; 0
    3f24:	90 e0       	ldi	r25, 0x00	; 0
    3f26:	0e 94 ff 26 	call	0x4dfe	; 0x4dfe <__floatunsisf>
    3f2a:	16 2f       	mov	r17, r22
    3f2c:	07 2f       	mov	r16, r23
    3f2e:	f8 2e       	mov	r15, r24
    3f30:	e9 2e       	mov	r14, r25
}

static inline float constrain(float val, float min, float max) 
{ 
	if(val > max)
    3f32:	a8 01       	movw	r20, r16
    3f34:	97 01       	movw	r18, r14
    3f36:	65 2f       	mov	r22, r21
    3f38:	74 2f       	mov	r23, r20
    3f3a:	83 2f       	mov	r24, r19
    3f3c:	92 2f       	mov	r25, r18
    3f3e:	20 e0       	ldi	r18, 0x00	; 0
    3f40:	30 e0       	ldi	r19, 0x00	; 0
    3f42:	4a ef       	ldi	r20, 0xFA	; 250
    3f44:	54 e4       	ldi	r21, 0x44	; 68
    3f46:	0e 94 0f 28 	call	0x501e	; 0x501e <__gesf2>
    3f4a:	18 16       	cp	r1, r24
    3f4c:	b4 f5       	brge	.+108    	; 0x3fba <SrvMotorUpdate+0xce>
    3f4e:	88 ee       	ldi	r24, 0xE8	; 232
    3f50:	88 2e       	mov	r8, r24
    3f52:	83 e0       	ldi	r24, 0x03	; 3
    3f54:	98 2e       	mov	r9, r24
    3f56:	60 ed       	ldi	r22, 0xD0	; 208
    3f58:	77 e0       	ldi	r23, 0x07	; 7
    3f5a:	70 93 77 01 	sts	0x0177, r23
    3f5e:	60 93 76 01 	sts	0x0176, r22
		frontMotor_R = constrain(throttle + roulis /*+ tangage + lacet*/, OFFCOMMAND, MAXCOMMAND);
    3f62:	0d 2d       	mov	r16, r13
    3f64:	1c 2d       	mov	r17, r12
    3f66:	b8 01       	movw	r22, r16
    3f68:	6c 0f       	add	r22, r28
    3f6a:	7d 1f       	adc	r23, r29
    3f6c:	80 e0       	ldi	r24, 0x00	; 0
    3f6e:	90 e0       	ldi	r25, 0x00	; 0
    3f70:	0e 94 ff 26 	call	0x4dfe	; 0x4dfe <__floatunsisf>
    3f74:	f6 2e       	mov	r15, r22
    3f76:	e7 2e       	mov	r14, r23
    3f78:	d8 2e       	mov	r13, r24
    3f7a:	c9 2e       	mov	r12, r25
    3f7c:	a7 01       	movw	r20, r14
    3f7e:	96 01       	movw	r18, r12
    3f80:	65 2f       	mov	r22, r21
    3f82:	74 2f       	mov	r23, r20
    3f84:	83 2f       	mov	r24, r19
    3f86:	92 2f       	mov	r25, r18
    3f88:	20 e0       	ldi	r18, 0x00	; 0
    3f8a:	30 e0       	ldi	r19, 0x00	; 0
    3f8c:	4a ef       	ldi	r20, 0xFA	; 250
    3f8e:	54 e4       	ldi	r21, 0x44	; 68
    3f90:	0e 94 0f 28 	call	0x501e	; 0x501e <__gesf2>
    3f94:	18 16       	cp	r1, r24
    3f96:	24 f1       	brlt	.+72     	; 0x3fe0 <SrvMotorUpdate+0xf4>
	{
		val = max;
	}
	else if(val < min)
    3f98:	a7 01       	movw	r20, r14
    3f9a:	96 01       	movw	r18, r12
    3f9c:	65 2f       	mov	r22, r21
    3f9e:	74 2f       	mov	r23, r20
    3fa0:	83 2f       	mov	r24, r19
    3fa2:	92 2f       	mov	r25, r18
    3fa4:	20 e0       	ldi	r18, 0x00	; 0
    3fa6:	30 e0       	ldi	r19, 0x00	; 0
    3fa8:	4a e7       	ldi	r20, 0x7A	; 122
    3faa:	54 e4       	ldi	r21, 0x44	; 68
    3fac:	0e 94 5f 26 	call	0x4cbe	; 0x4cbe <__cmpsf2>
    3fb0:	87 ff       	sbrs	r24, 7
    3fb2:	ca c0       	rjmp	.+404    	; 0x4148 <SrvMotorUpdate+0x25c>
    3fb4:	68 ee       	ldi	r22, 0xE8	; 232
    3fb6:	73 e0       	ldi	r23, 0x03	; 3
    3fb8:	15 c0       	rjmp	.+42     	; 0x3fe4 <SrvMotorUpdate+0xf8>
    3fba:	a8 01       	movw	r20, r16
    3fbc:	97 01       	movw	r18, r14
    3fbe:	65 2f       	mov	r22, r21
    3fc0:	74 2f       	mov	r23, r20
    3fc2:	83 2f       	mov	r24, r19
    3fc4:	92 2f       	mov	r25, r18
    3fc6:	20 e0       	ldi	r18, 0x00	; 0
    3fc8:	30 e0       	ldi	r19, 0x00	; 0
    3fca:	4a e7       	ldi	r20, 0x7A	; 122
    3fcc:	54 e4       	ldi	r21, 0x44	; 68
    3fce:	0e 94 5f 26 	call	0x4cbe	; 0x4cbe <__cmpsf2>
    3fd2:	87 ff       	sbrs	r24, 7
    3fd4:	c2 c0       	rjmp	.+388    	; 0x415a <SrvMotorUpdate+0x26e>
    3fd6:	88 24       	eor	r8, r8
    3fd8:	99 24       	eor	r9, r9
    3fda:	68 ee       	ldi	r22, 0xE8	; 232
    3fdc:	73 e0       	ldi	r23, 0x03	; 3
    3fde:	bd cf       	rjmp	.-134    	; 0x3f5a <SrvMotorUpdate+0x6e>
  return (x - in_min) * (out_max - out_min) / (in_max - in_min) + out_min;
}

static inline float constrain(float val, float min, float max) 
{ 
	if(val > max)
    3fe0:	60 ed       	ldi	r22, 0xD0	; 208
    3fe2:	77 e0       	ldi	r23, 0x07	; 7
    3fe4:	70 93 73 01 	sts	0x0173, r23
    3fe8:	60 93 72 01 	sts	0x0172, r22
		rearMotor_L  = constrain(throttle - roulis /*- tangage + lacet*/, OFFCOMMAND, MAXCOMMAND);
    3fec:	be 01       	movw	r22, r28
    3fee:	60 1b       	sub	r22, r16
    3ff0:	71 0b       	sbc	r23, r17
    3ff2:	80 e0       	ldi	r24, 0x00	; 0
    3ff4:	90 e0       	ldi	r25, 0x00	; 0
    3ff6:	0e 94 ff 26 	call	0x4dfe	; 0x4dfe <__floatunsisf>
    3ffa:	8b 01       	movw	r16, r22
    3ffc:	f8 2e       	mov	r15, r24
    3ffe:	e9 2e       	mov	r14, r25
    4000:	97 01       	movw	r18, r14
    4002:	71 2f       	mov	r23, r17
    4004:	83 2f       	mov	r24, r19
    4006:	92 2f       	mov	r25, r18
    4008:	20 e0       	ldi	r18, 0x00	; 0
    400a:	30 e0       	ldi	r19, 0x00	; 0
    400c:	4a ef       	ldi	r20, 0xFA	; 250
    400e:	54 e4       	ldi	r21, 0x44	; 68
    4010:	0e 94 0f 28 	call	0x501e	; 0x501e <__gesf2>
    4014:	18 16       	cp	r1, r24
    4016:	84 f0       	brlt	.+32     	; 0x4038 <SrvMotorUpdate+0x14c>
	{
		val = max;
	}
	else if(val < min)
    4018:	97 01       	movw	r18, r14
    401a:	60 2f       	mov	r22, r16
    401c:	71 2f       	mov	r23, r17
    401e:	83 2f       	mov	r24, r19
    4020:	92 2f       	mov	r25, r18
    4022:	20 e0       	ldi	r18, 0x00	; 0
    4024:	30 e0       	ldi	r19, 0x00	; 0
    4026:	4a e7       	ldi	r20, 0x7A	; 122
    4028:	54 e4       	ldi	r21, 0x44	; 68
    402a:	0e 94 5f 26 	call	0x4cbe	; 0x4cbe <__cmpsf2>
    402e:	87 ff       	sbrs	r24, 7
    4030:	83 c0       	rjmp	.+262    	; 0x4138 <SrvMotorUpdate+0x24c>
    4032:	68 ee       	ldi	r22, 0xE8	; 232
    4034:	73 e0       	ldi	r23, 0x03	; 3
    4036:	02 c0       	rjmp	.+4      	; 0x403c <SrvMotorUpdate+0x150>
  return (x - in_min) * (out_max - out_min) / (in_max - in_min) + out_min;
}

static inline float constrain(float val, float min, float max) 
{ 
	if(val > max)
    4038:	60 ed       	ldi	r22, 0xD0	; 208
    403a:	77 e0       	ldi	r23, 0x07	; 7
    403c:	70 93 79 01 	sts	0x0179, r23
    4040:	60 93 78 01 	sts	0x0178, r22
		frontMotor_L = constrain(throttle + tangage /*+ roulis - lacet*/, OFFCOMMAND, MAXCOMMAND);
    4044:	ca 0d       	add	r28, r10
    4046:	db 1d       	adc	r29, r11
    4048:	be 01       	movw	r22, r28
    404a:	80 e0       	ldi	r24, 0x00	; 0
    404c:	90 e0       	ldi	r25, 0x00	; 0
    404e:	0e 94 ff 26 	call	0x4dfe	; 0x4dfe <__floatunsisf>
    4052:	7b 01       	movw	r14, r22
    4054:	8c 01       	movw	r16, r24
    4056:	7f 2d       	mov	r23, r15
    4058:	91 2f       	mov	r25, r17
    405a:	20 e0       	ldi	r18, 0x00	; 0
    405c:	30 e0       	ldi	r19, 0x00	; 0
    405e:	4a ef       	ldi	r20, 0xFA	; 250
    4060:	54 e4       	ldi	r21, 0x44	; 68
    4062:	0e 94 0f 28 	call	0x501e	; 0x501e <__gesf2>
    4066:	18 16       	cp	r1, r24
    4068:	0c f4       	brge	.+2      	; 0x406c <SrvMotorUpdate+0x180>
    406a:	63 c0       	rjmp	.+198    	; 0x4132 <SrvMotorUpdate+0x246>
	{
		val = max;
	}
	else if(val < min)
    406c:	6e 2d       	mov	r22, r14
    406e:	7f 2d       	mov	r23, r15
    4070:	80 2f       	mov	r24, r16
    4072:	91 2f       	mov	r25, r17
    4074:	20 e0       	ldi	r18, 0x00	; 0
    4076:	30 e0       	ldi	r19, 0x00	; 0
    4078:	4a e7       	ldi	r20, 0x7A	; 122
    407a:	54 e4       	ldi	r21, 0x44	; 68
    407c:	0e 94 5f 26 	call	0x4cbe	; 0x4cbe <__cmpsf2>
    4080:	87 ff       	sbrs	r24, 7
    4082:	7a c0       	rjmp	.+244    	; 0x4178 <SrvMotorUpdate+0x28c>
    4084:	68 ee       	ldi	r22, 0xE8	; 232
    4086:	73 e0       	ldi	r23, 0x03	; 3
    4088:	70 93 75 01 	sts	0x0175, r23
    408c:	60 93 74 01 	sts	0x0174, r22
		
		DrvServoMoveToPosition( 0U , (rearMotor_R  - OFFCOMMAND) );
    4090:	80 e0       	ldi	r24, 0x00	; 0
    4092:	b4 01       	movw	r22, r8
    4094:	0e 94 1e 09 	call	0x123c	; 0x123c <DrvServoMoveToPosition>
		DrvServoMoveToPosition( 1U , (frontMotor_R - OFFCOMMAND) );
    4098:	60 91 72 01 	lds	r22, 0x0172
    409c:	70 91 73 01 	lds	r23, 0x0173
    40a0:	68 5e       	subi	r22, 0xE8	; 232
    40a2:	73 40       	sbci	r23, 0x03	; 3
    40a4:	81 e0       	ldi	r24, 0x01	; 1
    40a6:	0e 94 1e 09 	call	0x123c	; 0x123c <DrvServoMoveToPosition>
		DrvServoMoveToPosition( 2U , (rearMotor_L  - OFFCOMMAND) );
    40aa:	60 91 78 01 	lds	r22, 0x0178
    40ae:	70 91 79 01 	lds	r23, 0x0179
    40b2:	68 5e       	subi	r22, 0xE8	; 232
    40b4:	73 40       	sbci	r23, 0x03	; 3
    40b6:	82 e0       	ldi	r24, 0x02	; 2
    40b8:	0e 94 1e 09 	call	0x123c	; 0x123c <DrvServoMoveToPosition>
		DrvServoMoveToPosition( 3U , (frontMotor_L - OFFCOMMAND) );
    40bc:	60 91 74 01 	lds	r22, 0x0174
    40c0:	70 91 75 01 	lds	r23, 0x0175
    40c4:	68 5e       	subi	r22, 0xE8	; 232
    40c6:	73 40       	sbci	r23, 0x03	; 3
    40c8:	83 e0       	ldi	r24, 0x03	; 3
    40ca:	0e 94 1e 09 	call	0x123c	; 0x123c <DrvServoMoveToPosition>
		DrvServoMoveToPosition( 0U , 0U );
		DrvServoMoveToPosition( 1U , 0U );
		DrvServoMoveToPosition( 2U , 0U );
		DrvServoMoveToPosition( 3U , 0U );
	}
}	
    40ce:	df 91       	pop	r29
    40d0:	cf 91       	pop	r28
    40d2:	1f 91       	pop	r17
    40d4:	0f 91       	pop	r16
    40d6:	ff 90       	pop	r15
    40d8:	ef 90       	pop	r14
    40da:	df 90       	pop	r13
    40dc:	cf 90       	pop	r12
    40de:	bf 90       	pop	r11
    40e0:	af 90       	pop	r10
    40e2:	9f 90       	pop	r9
    40e4:	8f 90       	pop	r8
    40e6:	08 95       	ret
		DrvServoMoveToPosition( 3U , (frontMotor_L - OFFCOMMAND) );
	}
	else
	{
		//on met la vitesse de tout les moteurs à zeros 
		rearMotor_R	 = throttle;
    40e8:	d0 93 77 01 	sts	0x0177, r29
    40ec:	c0 93 76 01 	sts	0x0176, r28
		frontMotor_R = throttle;
    40f0:	d0 93 73 01 	sts	0x0173, r29
    40f4:	c0 93 72 01 	sts	0x0172, r28
		rearMotor_L  = throttle;
    40f8:	d0 93 79 01 	sts	0x0179, r29
    40fc:	c0 93 78 01 	sts	0x0178, r28
		frontMotor_L = throttle;
    4100:	d0 93 75 01 	sts	0x0175, r29
    4104:	c0 93 74 01 	sts	0x0174, r28
		DrvServoMoveToPosition( 0U , 0U );
    4108:	80 e0       	ldi	r24, 0x00	; 0
    410a:	60 e0       	ldi	r22, 0x00	; 0
    410c:	70 e0       	ldi	r23, 0x00	; 0
    410e:	0e 94 1e 09 	call	0x123c	; 0x123c <DrvServoMoveToPosition>
		DrvServoMoveToPosition( 1U , 0U );
    4112:	81 e0       	ldi	r24, 0x01	; 1
    4114:	60 e0       	ldi	r22, 0x00	; 0
    4116:	70 e0       	ldi	r23, 0x00	; 0
    4118:	0e 94 1e 09 	call	0x123c	; 0x123c <DrvServoMoveToPosition>
		DrvServoMoveToPosition( 2U , 0U );
    411c:	82 e0       	ldi	r24, 0x02	; 2
    411e:	60 e0       	ldi	r22, 0x00	; 0
    4120:	70 e0       	ldi	r23, 0x00	; 0
    4122:	0e 94 1e 09 	call	0x123c	; 0x123c <DrvServoMoveToPosition>
		DrvServoMoveToPosition( 3U , 0U );
    4126:	83 e0       	ldi	r24, 0x03	; 3
    4128:	60 e0       	ldi	r22, 0x00	; 0
    412a:	70 e0       	ldi	r23, 0x00	; 0
    412c:	0e 94 1e 09 	call	0x123c	; 0x123c <DrvServoMoveToPosition>
    4130:	ce cf       	rjmp	.-100    	; 0x40ce <SrvMotorUpdate+0x1e2>
  return (x - in_min) * (out_max - out_min) / (in_max - in_min) + out_min;
}

static inline float constrain(float val, float min, float max) 
{ 
	if(val > max)
    4132:	60 ed       	ldi	r22, 0xD0	; 208
    4134:	77 e0       	ldi	r23, 0x07	; 7
    4136:	a8 cf       	rjmp	.-176    	; 0x4088 <SrvMotorUpdate+0x19c>
	{
		val = max;
	}
	else if(val < min)
    4138:	97 01       	movw	r18, r14
    413a:	60 2f       	mov	r22, r16
    413c:	71 2f       	mov	r23, r17
    413e:	83 2f       	mov	r24, r19
    4140:	92 2f       	mov	r25, r18
    4142:	0e 94 d3 26 	call	0x4da6	; 0x4da6 <__fixunssfsi>
    4146:	7a cf       	rjmp	.-268    	; 0x403c <SrvMotorUpdate+0x150>
    4148:	a7 01       	movw	r20, r14
    414a:	96 01       	movw	r18, r12
    414c:	65 2f       	mov	r22, r21
    414e:	74 2f       	mov	r23, r20
    4150:	83 2f       	mov	r24, r19
    4152:	92 2f       	mov	r25, r18
    4154:	0e 94 d3 26 	call	0x4da6	; 0x4da6 <__fixunssfsi>
    4158:	45 cf       	rjmp	.-374    	; 0x3fe4 <SrvMotorUpdate+0xf8>
    415a:	a8 01       	movw	r20, r16
    415c:	97 01       	movw	r18, r14
    415e:	65 2f       	mov	r22, r21
    4160:	74 2f       	mov	r23, r20
    4162:	83 2f       	mov	r24, r19
    4164:	92 2f       	mov	r25, r18
    4166:	0e 94 d3 26 	call	0x4da6	; 0x4da6 <__fixunssfsi>
    416a:	98 e1       	ldi	r25, 0x18	; 24
    416c:	89 2e       	mov	r8, r25
    416e:	9c ef       	ldi	r25, 0xFC	; 252
    4170:	99 2e       	mov	r9, r25
    4172:	86 0e       	add	r8, r22
    4174:	97 1e       	adc	r9, r23
    4176:	f1 ce       	rjmp	.-542    	; 0x3f5a <SrvMotorUpdate+0x6e>
    4178:	6e 2d       	mov	r22, r14
    417a:	7f 2d       	mov	r23, r15
    417c:	80 2f       	mov	r24, r16
    417e:	91 2f       	mov	r25, r17
    4180:	0e 94 d3 26 	call	0x4da6	; 0x4da6 <__fixunssfsi>
    4184:	81 cf       	rjmp	.-254    	; 0x4088 <SrvMotorUpdate+0x19c>

00004186 <SrvMotorGetSpeed>:
/*recupere la vitesse des moteurs                                       */
/************************************************************************/
Int16U SrvMotorGetSpeed( void ) 
{
	return throttle;
}
    4186:	80 91 3a 02 	lds	r24, 0x023A
    418a:	90 91 3b 02 	lds	r25, 0x023B
    418e:	08 95       	ret

00004190 <SrvMotorApplyAbsoluteSpeed>:
/************************************************************************/
/*applique une vitesse absolue aux moteurs                              */
/************************************************************************/
Boolean SrvMotorApplyAbsoluteSpeed(Int16U speed)
{
	if( speed <= OFFCOMMAND )
    4190:	23 e0       	ldi	r18, 0x03	; 3
    4192:	89 3e       	cpi	r24, 0xE9	; 233
    4194:	92 07       	cpc	r25, r18
    4196:	30 f4       	brcc	.+12     	; 0x41a4 <SrvMotorApplyAbsoluteSpeed+0x14>
	{
		throttle = speed + OFFCOMMAND;
    4198:	88 51       	subi	r24, 0x18	; 24
    419a:	9c 4f       	sbci	r25, 0xFC	; 252
    419c:	90 93 3b 02 	sts	0x023B, r25
    41a0:	80 93 3a 02 	sts	0x023A, r24
	}
	return TRUE;
}
    41a4:	81 e0       	ldi	r24, 0x01	; 1
    41a6:	08 95       	ret

000041a8 <SrvMotorApplyRelativeSpeed>:
/*applique une vitesse relative aux moteurs                             */
/************************************************************************/
Boolean SrvMotorApplyRelativeSpeed(Int16U speed)
{
	//la somme doit etre inferieur 
	if( (throttle + speed) <= MAXCOMMAND )
    41a8:	20 91 3a 02 	lds	r18, 0x023A
    41ac:	30 91 3b 02 	lds	r19, 0x023B
    41b0:	28 0f       	add	r18, r24
    41b2:	39 1f       	adc	r19, r25
    41b4:	87 e0       	ldi	r24, 0x07	; 7
    41b6:	21 3d       	cpi	r18, 0xD1	; 209
    41b8:	38 07       	cpc	r19, r24
    41ba:	20 f4       	brcc	.+8      	; 0x41c4 <SrvMotorApplyRelativeSpeed+0x1c>
	{
		throttle += speed;
    41bc:	30 93 3b 02 	sts	0x023B, r19
    41c0:	20 93 3a 02 	sts	0x023A, r18
	}
	return TRUE;
}
    41c4:	81 e0       	ldi	r24, 0x01	; 1
    41c6:	08 95       	ret

000041c8 <SrvPIDInit>:
static S_IMU_PID pid[ 4U ] ;



void SrvPIDInit (Int8U index,float P, float I, float D)
{
    41c8:	8f 92       	push	r8
    41ca:	9f 92       	push	r9
    41cc:	af 92       	push	r10
    41ce:	bf 92       	push	r11
    41d0:	cf 92       	push	r12
    41d2:	df 92       	push	r13
    41d4:	ef 92       	push	r14
    41d6:	ff 92       	push	r15
    41d8:	0f 93       	push	r16
    41da:	1f 93       	push	r17
    41dc:	4a 01       	movw	r8, r20
    41de:	5b 01       	movw	r10, r22
	}
	//else
	{
		//DrvEepromReadPID(index,&P,&I,&D);
	}
	pid[index].P = P;
    41e0:	4c e3       	ldi	r20, 0x3C	; 60
    41e2:	52 e0       	ldi	r21, 0x02	; 2
    41e4:	68 2f       	mov	r22, r24
    41e6:	70 e0       	ldi	r23, 0x00	; 0
    41e8:	66 0f       	add	r22, r22
    41ea:	77 1f       	adc	r23, r23
    41ec:	66 0f       	add	r22, r22
    41ee:	77 1f       	adc	r23, r23
    41f0:	fb 01       	movw	r30, r22
    41f2:	ee 0f       	add	r30, r30
    41f4:	ff 1f       	adc	r31, r31
    41f6:	ee 0f       	add	r30, r30
    41f8:	ff 1f       	adc	r31, r31
    41fa:	e6 0f       	add	r30, r22
    41fc:	f7 1f       	adc	r31, r23
    41fe:	e4 0f       	add	r30, r20
    4200:	f5 1f       	adc	r31, r21
    4202:	80 82       	st	Z, r8
    4204:	91 82       	std	Z+1, r9	; 0x01
    4206:	a2 82       	std	Z+2, r10	; 0x02
    4208:	b3 82       	std	Z+3, r11	; 0x03
	pid[index].I = I;
    420a:	68 2f       	mov	r22, r24
    420c:	70 e0       	ldi	r23, 0x00	; 0
    420e:	66 0f       	add	r22, r22
    4210:	77 1f       	adc	r23, r23
    4212:	66 0f       	add	r22, r22
    4214:	77 1f       	adc	r23, r23
    4216:	fb 01       	movw	r30, r22
    4218:	ee 0f       	add	r30, r30
    421a:	ff 1f       	adc	r31, r31
    421c:	ee 0f       	add	r30, r30
    421e:	ff 1f       	adc	r31, r31
    4220:	e6 0f       	add	r30, r22
    4222:	f7 1f       	adc	r31, r23
    4224:	e4 0f       	add	r30, r20
    4226:	f5 1f       	adc	r31, r21
    4228:	04 83       	std	Z+4, r16	; 0x04
    422a:	15 83       	std	Z+5, r17	; 0x05
    422c:	26 83       	std	Z+6, r18	; 0x06
    422e:	37 83       	std	Z+7, r19	; 0x07
	pid[index].D = D;
    4230:	28 2f       	mov	r18, r24
    4232:	30 e0       	ldi	r19, 0x00	; 0
    4234:	22 0f       	add	r18, r18
    4236:	33 1f       	adc	r19, r19
    4238:	22 0f       	add	r18, r18
    423a:	33 1f       	adc	r19, r19
    423c:	f9 01       	movw	r30, r18
    423e:	ee 0f       	add	r30, r30
    4240:	ff 1f       	adc	r31, r31
    4242:	ee 0f       	add	r30, r30
    4244:	ff 1f       	adc	r31, r31
    4246:	e2 0f       	add	r30, r18
    4248:	f3 1f       	adc	r31, r19
    424a:	e4 0f       	add	r30, r20
    424c:	f5 1f       	adc	r31, r21
    424e:	c0 86       	std	Z+8, r12	; 0x08
    4250:	d1 86       	std	Z+9, r13	; 0x09
    4252:	e2 86       	std	Z+10, r14	; 0x0a
    4254:	f3 86       	std	Z+11, r15	; 0x0b
	pid[index].lastPosition = 0;
    4256:	28 2f       	mov	r18, r24
    4258:	30 e0       	ldi	r19, 0x00	; 0
    425a:	22 0f       	add	r18, r18
    425c:	33 1f       	adc	r19, r19
    425e:	22 0f       	add	r18, r18
    4260:	33 1f       	adc	r19, r19
    4262:	f9 01       	movw	r30, r18
    4264:	ee 0f       	add	r30, r30
    4266:	ff 1f       	adc	r31, r31
    4268:	ee 0f       	add	r30, r30
    426a:	ff 1f       	adc	r31, r31
    426c:	e2 0f       	add	r30, r18
    426e:	f3 1f       	adc	r31, r19
    4270:	e4 0f       	add	r30, r20
    4272:	f5 1f       	adc	r31, r21
    4274:	00 e0       	ldi	r16, 0x00	; 0
    4276:	10 e0       	ldi	r17, 0x00	; 0
    4278:	98 01       	movw	r18, r16
    427a:	04 87       	std	Z+12, r16	; 0x0c
    427c:	15 87       	std	Z+13, r17	; 0x0d
    427e:	26 87       	std	Z+14, r18	; 0x0e
    4280:	37 87       	std	Z+15, r19	; 0x0f
	pid[index].integratedError = 0;
    4282:	68 2f       	mov	r22, r24
    4284:	70 e0       	ldi	r23, 0x00	; 0
    4286:	66 0f       	add	r22, r22
    4288:	77 1f       	adc	r23, r23
    428a:	66 0f       	add	r22, r22
    428c:	77 1f       	adc	r23, r23
    428e:	fb 01       	movw	r30, r22
    4290:	ee 0f       	add	r30, r30
    4292:	ff 1f       	adc	r31, r31
    4294:	ee 0f       	add	r30, r30
    4296:	ff 1f       	adc	r31, r31
    4298:	e6 0f       	add	r30, r22
    429a:	f7 1f       	adc	r31, r23
    429c:	e4 0f       	add	r30, r20
    429e:	f5 1f       	adc	r31, r21
    42a0:	00 8b       	std	Z+16, r16	; 0x10
    42a2:	11 8b       	std	Z+17, r17	; 0x11
    42a4:	22 8b       	std	Z+18, r18	; 0x12
    42a6:	33 8b       	std	Z+19, r19	; 0x13
}
    42a8:	1f 91       	pop	r17
    42aa:	0f 91       	pop	r16
    42ac:	ff 90       	pop	r15
    42ae:	ef 90       	pop	r14
    42b0:	df 90       	pop	r13
    42b2:	cf 90       	pop	r12
    42b4:	bf 90       	pop	r11
    42b6:	af 90       	pop	r10
    42b8:	9f 90       	pop	r9
    42ba:	8f 90       	pop	r8
    42bc:	08 95       	ret

000042be <SrvPIDCompute>:

Int16S SrvPIDCompute(Int8U index, float targetPosition, float currentPosition )
{
    42be:	5f 92       	push	r5
    42c0:	6f 92       	push	r6
    42c2:	7f 92       	push	r7
    42c4:	8f 92       	push	r8
    42c6:	9f 92       	push	r9
    42c8:	af 92       	push	r10
    42ca:	bf 92       	push	r11
    42cc:	cf 92       	push	r12
    42ce:	df 92       	push	r13
    42d0:	ef 92       	push	r14
    42d2:	ff 92       	push	r15
    42d4:	0f 93       	push	r16
    42d6:	1f 93       	push	r17
    42d8:	cf 93       	push	r28
    42da:	df 93       	push	r29
    42dc:	f8 2e       	mov	r15, r24
    42de:	cb 01       	movw	r24, r22
    42e0:	ba 01       	movw	r22, r20
    42e2:	58 01       	movw	r10, r16
    42e4:	69 01       	movw	r12, r18
	float error = targetPosition - currentPosition;
    42e6:	a9 01       	movw	r20, r18
    42e8:	98 01       	movw	r18, r16
    42ea:	0e 94 98 25 	call	0x4b30	; 0x4b30 <__subsf3>
    42ee:	86 2e       	mov	r8, r22
    42f0:	77 2e       	mov	r7, r23
    42f2:	68 2e       	mov	r6, r24
    42f4:	59 2e       	mov	r5, r25
	
	pid[index].integratedError += error;
    42f6:	8f 2d       	mov	r24, r15
    42f8:	90 e0       	ldi	r25, 0x00	; 0
    42fa:	88 0f       	add	r24, r24
    42fc:	99 1f       	adc	r25, r25
    42fe:	88 0f       	add	r24, r24
    4300:	99 1f       	adc	r25, r25
    4302:	fc 01       	movw	r30, r24
    4304:	ee 0f       	add	r30, r30
    4306:	ff 1f       	adc	r31, r31
    4308:	ee 0f       	add	r30, r30
    430a:	ff 1f       	adc	r31, r31
    430c:	e8 0f       	add	r30, r24
    430e:	f9 1f       	adc	r31, r25
    4310:	e4 5c       	subi	r30, 0xC4	; 196
    4312:	fd 4f       	sbci	r31, 0xFD	; 253
    4314:	68 2d       	mov	r22, r8
    4316:	77 2d       	mov	r23, r7
    4318:	86 2d       	mov	r24, r6
    431a:	95 2d       	mov	r25, r5
    431c:	20 89       	ldd	r18, Z+16	; 0x10
    431e:	31 89       	ldd	r19, Z+17	; 0x11
    4320:	42 89       	ldd	r20, Z+18	; 0x12
    4322:	53 89       	ldd	r21, Z+19	; 0x13
    4324:	0e 94 99 25 	call	0x4b32	; 0x4b32 <__addsf3>
    4328:	e6 2e       	mov	r14, r22
    432a:	07 2f       	mov	r16, r23
    432c:	18 2f       	mov	r17, r24
    432e:	99 2e       	mov	r9, r25
    4330:	8f 2d       	mov	r24, r15
    4332:	90 e0       	ldi	r25, 0x00	; 0
    4334:	88 0f       	add	r24, r24
    4336:	99 1f       	adc	r25, r25
    4338:	88 0f       	add	r24, r24
    433a:	99 1f       	adc	r25, r25
    433c:	fc 01       	movw	r30, r24
    433e:	ee 0f       	add	r30, r30
    4340:	ff 1f       	adc	r31, r31
    4342:	ee 0f       	add	r30, r30
    4344:	ff 1f       	adc	r31, r31
    4346:	e8 0f       	add	r30, r24
    4348:	f9 1f       	adc	r31, r25
    434a:	e4 5c       	subi	r30, 0xC4	; 196
    434c:	fd 4f       	sbci	r31, 0xFD	; 253
    434e:	8e 2d       	mov	r24, r14
    4350:	90 2f       	mov	r25, r16
    4352:	a1 2f       	mov	r26, r17
    4354:	b9 2d       	mov	r27, r9
    4356:	80 8b       	std	Z+16, r24	; 0x10
    4358:	91 8b       	std	Z+17, r25	; 0x11
    435a:	a2 8b       	std	Z+18, r26	; 0x12
    435c:	b3 8b       	std	Z+19, r27	; 0x13

	// Limit the integrated error by the windupGuard
	if (pid[index].integratedError < -1000) 
    435e:	6e 2d       	mov	r22, r14
    4360:	70 2f       	mov	r23, r16
    4362:	81 2f       	mov	r24, r17
    4364:	99 2d       	mov	r25, r9
    4366:	20 e0       	ldi	r18, 0x00	; 0
    4368:	30 e0       	ldi	r19, 0x00	; 0
    436a:	4a e7       	ldi	r20, 0x7A	; 122
    436c:	54 ec       	ldi	r21, 0xC4	; 196
    436e:	0e 94 5f 26 	call	0x4cbe	; 0x4cbe <__cmpsf2>
    4372:	87 fd       	sbrc	r24, 7
    4374:	e4 c0       	rjmp	.+456    	; 0x453e <SrvPIDCompute+0x280>
	{
		pid[index].integratedError = -1000;
	} 
	else if (pid[index].integratedError > 1000) 
    4376:	6e 2d       	mov	r22, r14
    4378:	70 2f       	mov	r23, r16
    437a:	81 2f       	mov	r24, r17
    437c:	99 2d       	mov	r25, r9
    437e:	20 e0       	ldi	r18, 0x00	; 0
    4380:	30 e0       	ldi	r19, 0x00	; 0
    4382:	4a e7       	ldi	r20, 0x7A	; 122
    4384:	54 e4       	ldi	r21, 0x44	; 68
    4386:	0e 94 0f 28 	call	0x501e	; 0x501e <__gesf2>
    438a:	18 16       	cp	r1, r24
    438c:	bc f4       	brge	.+46     	; 0x43bc <SrvPIDCompute+0xfe>
	{
		pid[index].integratedError = 1000;
    438e:	8f 2d       	mov	r24, r15
    4390:	90 e0       	ldi	r25, 0x00	; 0
    4392:	88 0f       	add	r24, r24
    4394:	99 1f       	adc	r25, r25
    4396:	88 0f       	add	r24, r24
    4398:	99 1f       	adc	r25, r25
    439a:	fc 01       	movw	r30, r24
    439c:	ee 0f       	add	r30, r30
    439e:	ff 1f       	adc	r31, r31
    43a0:	ee 0f       	add	r30, r30
    43a2:	ff 1f       	adc	r31, r31
    43a4:	e8 0f       	add	r30, r24
    43a6:	f9 1f       	adc	r31, r25
    43a8:	e4 5c       	subi	r30, 0xC4	; 196
    43aa:	fd 4f       	sbci	r31, 0xFD	; 253
    43ac:	80 e0       	ldi	r24, 0x00	; 0
    43ae:	90 e0       	ldi	r25, 0x00	; 0
    43b0:	aa e7       	ldi	r26, 0x7A	; 122
    43b2:	b4 e4       	ldi	r27, 0x44	; 68
    43b4:	80 8b       	std	Z+16, r24	; 0x10
    43b6:	91 8b       	std	Z+17, r25	; 0x11
    43b8:	a2 8b       	std	Z+18, r26	; 0x12
    43ba:	b3 8b       	std	Z+19, r27	; 0x13
	}
	
	int dTerm = (pid[index].D * (currentPosition - pid[index].lastPosition)) / 10;
    43bc:	8f 2d       	mov	r24, r15
    43be:	90 e0       	ldi	r25, 0x00	; 0
    43c0:	88 0f       	add	r24, r24
    43c2:	99 1f       	adc	r25, r25
    43c4:	88 0f       	add	r24, r24
    43c6:	99 1f       	adc	r25, r25
    43c8:	ec 01       	movw	r28, r24
    43ca:	cc 0f       	add	r28, r28
    43cc:	dd 1f       	adc	r29, r29
    43ce:	cc 0f       	add	r28, r28
    43d0:	dd 1f       	adc	r29, r29
    43d2:	c8 0f       	add	r28, r24
    43d4:	d9 1f       	adc	r29, r25
    43d6:	c4 5c       	subi	r28, 0xC4	; 196
    43d8:	dd 4f       	sbci	r29, 0xFD	; 253
    43da:	8f 2d       	mov	r24, r15
    43dc:	90 e0       	ldi	r25, 0x00	; 0
    43de:	88 0f       	add	r24, r24
    43e0:	99 1f       	adc	r25, r25
    43e2:	88 0f       	add	r24, r24
    43e4:	99 1f       	adc	r25, r25
    43e6:	fc 01       	movw	r30, r24
    43e8:	ee 0f       	add	r30, r30
    43ea:	ff 1f       	adc	r31, r31
    43ec:	ee 0f       	add	r30, r30
    43ee:	ff 1f       	adc	r31, r31
    43f0:	e8 0f       	add	r30, r24
    43f2:	f9 1f       	adc	r31, r25
    43f4:	e4 5c       	subi	r30, 0xC4	; 196
    43f6:	fd 4f       	sbci	r31, 0xFD	; 253
    43f8:	c6 01       	movw	r24, r12
    43fa:	b5 01       	movw	r22, r10
    43fc:	24 85       	ldd	r18, Z+12	; 0x0c
    43fe:	35 85       	ldd	r19, Z+13	; 0x0d
    4400:	46 85       	ldd	r20, Z+14	; 0x0e
    4402:	57 85       	ldd	r21, Z+15	; 0x0f
    4404:	0e 94 98 25 	call	0x4b30	; 0x4b30 <__subsf3>
    4408:	28 85       	ldd	r18, Y+8	; 0x08
    440a:	39 85       	ldd	r19, Y+9	; 0x09
    440c:	4a 85       	ldd	r20, Y+10	; 0x0a
    440e:	5b 85       	ldd	r21, Y+11	; 0x0b
    4410:	0e 94 1a 28 	call	0x5034	; 0x5034 <__mulsf3>
    4414:	20 e0       	ldi	r18, 0x00	; 0
    4416:	30 e0       	ldi	r19, 0x00	; 0
    4418:	40 e2       	ldi	r20, 0x20	; 32
    441a:	51 e4       	ldi	r21, 0x41	; 65
    441c:	0e 94 66 26 	call	0x4ccc	; 0x4ccc <__divsf3>
    4420:	0e 94 ce 26 	call	0x4d9c	; 0x4d9c <__fixsfsi>
    4424:	eb 01       	movw	r28, r22
	pid[index].lastPosition = currentPosition;
    4426:	8f 2d       	mov	r24, r15
    4428:	90 e0       	ldi	r25, 0x00	; 0
    442a:	88 0f       	add	r24, r24
    442c:	99 1f       	adc	r25, r25
    442e:	88 0f       	add	r24, r24
    4430:	99 1f       	adc	r25, r25
    4432:	fc 01       	movw	r30, r24
    4434:	ee 0f       	add	r30, r30
    4436:	ff 1f       	adc	r31, r31
    4438:	ee 0f       	add	r30, r30
    443a:	ff 1f       	adc	r31, r31
    443c:	e8 0f       	add	r30, r24
    443e:	f9 1f       	adc	r31, r25
    4440:	e4 5c       	subi	r30, 0xC4	; 196
    4442:	fd 4f       	sbci	r31, 0xFD	; 253
    4444:	a4 86       	std	Z+12, r10	; 0x0c
    4446:	b5 86       	std	Z+13, r11	; 0x0d
    4448:	c6 86       	std	Z+14, r12	; 0x0e
    444a:	d7 86       	std	Z+15, r13	; 0x0f
	return (Int16S)(((pid[index].P * error) / 10) + ((pid[index].I * pid[index].integratedError) / 10) + dTerm);
    444c:	8f 2d       	mov	r24, r15
    444e:	90 e0       	ldi	r25, 0x00	; 0
    4450:	88 0f       	add	r24, r24
    4452:	99 1f       	adc	r25, r25
    4454:	88 0f       	add	r24, r24
    4456:	99 1f       	adc	r25, r25
    4458:	fc 01       	movw	r30, r24
    445a:	ee 0f       	add	r30, r30
    445c:	ff 1f       	adc	r31, r31
    445e:	ee 0f       	add	r30, r30
    4460:	ff 1f       	adc	r31, r31
    4462:	e8 0f       	add	r30, r24
    4464:	f9 1f       	adc	r31, r25
    4466:	e4 5c       	subi	r30, 0xC4	; 196
    4468:	fd 4f       	sbci	r31, 0xFD	; 253
    446a:	68 2d       	mov	r22, r8
    446c:	77 2d       	mov	r23, r7
    446e:	86 2d       	mov	r24, r6
    4470:	95 2d       	mov	r25, r5
    4472:	20 81       	ld	r18, Z
    4474:	31 81       	ldd	r19, Z+1	; 0x01
    4476:	42 81       	ldd	r20, Z+2	; 0x02
    4478:	53 81       	ldd	r21, Z+3	; 0x03
    447a:	0e 94 1a 28 	call	0x5034	; 0x5034 <__mulsf3>
    447e:	20 e0       	ldi	r18, 0x00	; 0
    4480:	30 e0       	ldi	r19, 0x00	; 0
    4482:	40 e2       	ldi	r20, 0x20	; 32
    4484:	51 e4       	ldi	r21, 0x41	; 65
    4486:	0e 94 66 26 	call	0x4ccc	; 0x4ccc <__divsf3>
    448a:	5b 01       	movw	r10, r22
    448c:	6c 01       	movw	r12, r24
    448e:	8f 2d       	mov	r24, r15
    4490:	90 e0       	ldi	r25, 0x00	; 0
    4492:	88 0f       	add	r24, r24
    4494:	99 1f       	adc	r25, r25
    4496:	88 0f       	add	r24, r24
    4498:	99 1f       	adc	r25, r25
    449a:	dc 01       	movw	r26, r24
    449c:	aa 0f       	add	r26, r26
    449e:	bb 1f       	adc	r27, r27
    44a0:	aa 0f       	add	r26, r26
    44a2:	bb 1f       	adc	r27, r27
    44a4:	a8 0f       	add	r26, r24
    44a6:	b9 1f       	adc	r27, r25
    44a8:	a4 5c       	subi	r26, 0xC4	; 196
    44aa:	bd 4f       	sbci	r27, 0xFD	; 253
    44ac:	8f 2d       	mov	r24, r15
    44ae:	90 e0       	ldi	r25, 0x00	; 0
    44b0:	88 0f       	add	r24, r24
    44b2:	99 1f       	adc	r25, r25
    44b4:	88 0f       	add	r24, r24
    44b6:	99 1f       	adc	r25, r25
    44b8:	fc 01       	movw	r30, r24
    44ba:	ee 0f       	add	r30, r30
    44bc:	ff 1f       	adc	r31, r31
    44be:	ee 0f       	add	r30, r30
    44c0:	ff 1f       	adc	r31, r31
    44c2:	e8 0f       	add	r30, r24
    44c4:	f9 1f       	adc	r31, r25
    44c6:	e4 5c       	subi	r30, 0xC4	; 196
    44c8:	fd 4f       	sbci	r31, 0xFD	; 253
    44ca:	14 96       	adiw	r26, 0x04	; 4
    44cc:	6d 91       	ld	r22, X+
    44ce:	7d 91       	ld	r23, X+
    44d0:	8d 91       	ld	r24, X+
    44d2:	9c 91       	ld	r25, X
    44d4:	17 97       	sbiw	r26, 0x07	; 7
    44d6:	20 89       	ldd	r18, Z+16	; 0x10
    44d8:	31 89       	ldd	r19, Z+17	; 0x11
    44da:	42 89       	ldd	r20, Z+18	; 0x12
    44dc:	53 89       	ldd	r21, Z+19	; 0x13
    44de:	0e 94 1a 28 	call	0x5034	; 0x5034 <__mulsf3>
    44e2:	20 e0       	ldi	r18, 0x00	; 0
    44e4:	30 e0       	ldi	r19, 0x00	; 0
    44e6:	40 e2       	ldi	r20, 0x20	; 32
    44e8:	51 e4       	ldi	r21, 0x41	; 65
    44ea:	0e 94 66 26 	call	0x4ccc	; 0x4ccc <__divsf3>
    44ee:	9b 01       	movw	r18, r22
    44f0:	ac 01       	movw	r20, r24
    44f2:	c6 01       	movw	r24, r12
    44f4:	b5 01       	movw	r22, r10
    44f6:	0e 94 99 25 	call	0x4b32	; 0x4b32 <__addsf3>
    44fa:	7b 01       	movw	r14, r22
    44fc:	8c 01       	movw	r16, r24
    44fe:	be 01       	movw	r22, r28
    4500:	88 27       	eor	r24, r24
    4502:	77 fd       	sbrc	r23, 7
    4504:	80 95       	com	r24
    4506:	98 2f       	mov	r25, r24
    4508:	0e 94 01 27 	call	0x4e02	; 0x4e02 <__floatsisf>
    450c:	9b 01       	movw	r18, r22
    450e:	ac 01       	movw	r20, r24
    4510:	c8 01       	movw	r24, r16
    4512:	b7 01       	movw	r22, r14
    4514:	0e 94 99 25 	call	0x4b32	; 0x4b32 <__addsf3>
    4518:	0e 94 ce 26 	call	0x4d9c	; 0x4d9c <__fixsfsi>
}
    451c:	cb 01       	movw	r24, r22
    451e:	df 91       	pop	r29
    4520:	cf 91       	pop	r28
    4522:	1f 91       	pop	r17
    4524:	0f 91       	pop	r16
    4526:	ff 90       	pop	r15
    4528:	ef 90       	pop	r14
    452a:	df 90       	pop	r13
    452c:	cf 90       	pop	r12
    452e:	bf 90       	pop	r11
    4530:	af 90       	pop	r10
    4532:	9f 90       	pop	r9
    4534:	8f 90       	pop	r8
    4536:	7f 90       	pop	r7
    4538:	6f 90       	pop	r6
    453a:	5f 90       	pop	r5
    453c:	08 95       	ret
	pid[index].integratedError += error;

	// Limit the integrated error by the windupGuard
	if (pid[index].integratedError < -1000) 
	{
		pid[index].integratedError = -1000;
    453e:	8f 2d       	mov	r24, r15
    4540:	90 e0       	ldi	r25, 0x00	; 0
    4542:	88 0f       	add	r24, r24
    4544:	99 1f       	adc	r25, r25
    4546:	88 0f       	add	r24, r24
    4548:	99 1f       	adc	r25, r25
    454a:	fc 01       	movw	r30, r24
    454c:	ee 0f       	add	r30, r30
    454e:	ff 1f       	adc	r31, r31
    4550:	ee 0f       	add	r30, r30
    4552:	ff 1f       	adc	r31, r31
    4554:	e8 0f       	add	r30, r24
    4556:	f9 1f       	adc	r31, r25
    4558:	e4 5c       	subi	r30, 0xC4	; 196
    455a:	fd 4f       	sbci	r31, 0xFD	; 253
    455c:	80 e0       	ldi	r24, 0x00	; 0
    455e:	90 e0       	ldi	r25, 0x00	; 0
    4560:	aa e7       	ldi	r26, 0x7A	; 122
    4562:	b4 ec       	ldi	r27, 0xC4	; 196
    4564:	80 8b       	std	Z+16, r24	; 0x10
    4566:	91 8b       	std	Z+17, r25	; 0x11
    4568:	a2 8b       	std	Z+18, r26	; 0x12
    456a:	b3 8b       	std	Z+19, r27	; 0x13
    456c:	27 cf       	rjmp	.-434    	; 0x43bc <SrvPIDCompute+0xfe>

0000456e <SrvStartEngineInit>:
Boolean allumage = FALSE;

//Init des valeurs d'allumage moteurs
void SrvStartEngineInit( void )
{
	speed_moteur = MOTORS_START;
    456e:	10 92 8c 02 	sts	0x028C, r1
	allumage = TRUE ;
    4572:	81 e0       	ldi	r24, 0x01	; 1
    4574:	80 93 8e 02 	sts	0x028E, r24
	timeout_before_allumage = TIMEOUT_ALLUMAGE;
    4578:	85 e0       	ldi	r24, 0x05	; 5
    457a:	80 93 8d 02 	sts	0x028D, r24
}	
    457e:	08 95       	ret

00004580 <SrvStartEngineDispatcher>:

//dispatcher d'evenements
void SrvStartEngineDispatcher (Event_t in_event) 
{
	if( DrvEventTestEvent(in_event,CONF_EVENT_TIMER_1S))
    4580:	64 e0       	ldi	r22, 0x04	; 4
    4582:	0e 94 c7 08 	call	0x118e	; 0x118e <DrvEventTestEvent>
    4586:	88 23       	and	r24, r24
    4588:	59 f0       	breq	.+22     	; 0x45a0 <SrvStartEngineDispatcher+0x20>
	{
		//si le timeout est ecoulé
		if((allumage == TRUE) && (timeout_before_allumage == DISABLE_TIMEOUT_ALLUMAGE))
    458a:	80 91 8e 02 	lds	r24, 0x028E
    458e:	81 30       	cpi	r24, 0x01	; 1
    4590:	41 f0       	breq	.+16     	; 0x45a2 <SrvStartEngineDispatcher+0x22>
			SrvMotorApplyAbsoluteSpeed(speed_moteur);
		}
		else
		{
			//si le timeout est active on decompte
			if(timeout_before_allumage != DISABLE_TIMEOUT_ALLUMAGE)
    4592:	80 91 8d 02 	lds	r24, 0x028D
    4596:	88 23       	and	r24, r24
    4598:	19 f0       	breq	.+6      	; 0x45a0 <SrvStartEngineDispatcher+0x20>
			{
				timeout_before_allumage--;
    459a:	81 50       	subi	r24, 0x01	; 1
    459c:	80 93 8d 02 	sts	0x028D, r24
    45a0:	08 95       	ret
void SrvStartEngineDispatcher (Event_t in_event) 
{
	if( DrvEventTestEvent(in_event,CONF_EVENT_TIMER_1S))
	{
		//si le timeout est ecoulé
		if((allumage == TRUE) && (timeout_before_allumage == DISABLE_TIMEOUT_ALLUMAGE))
    45a2:	80 91 8d 02 	lds	r24, 0x028D
    45a6:	88 23       	and	r24, r24
    45a8:	c1 f7       	brne	.-16     	; 0x459a <SrvStartEngineDispatcher+0x1a>
		{
			//on fait un allumage progressif des moteurs jusqu'a une vitesse correct
			speed_moteur += 5U;
    45aa:	80 91 8c 02 	lds	r24, 0x028C
    45ae:	8b 5f       	subi	r24, 0xFB	; 251
    45b0:	80 93 8c 02 	sts	0x028C, r24
			if( speed_moteur >= LIMIT_MOTORS_START )
    45b4:	85 31       	cpi	r24, 0x15	; 21
    45b6:	50 f0       	brcs	.+20     	; 0x45cc <SrvStartEngineDispatcher+0x4c>
			{
				speed_moteur = LIMIT_MOTORS_START;
    45b8:	85 e1       	ldi	r24, 0x15	; 21
    45ba:	80 93 8c 02 	sts	0x028C, r24
				allumage = FALSE;
    45be:	10 92 8e 02 	sts	0x028E, r1
    45c2:	85 e1       	ldi	r24, 0x15	; 21
    45c4:	90 e0       	ldi	r25, 0x00	; 0
			}
			SrvMotorApplyAbsoluteSpeed(speed_moteur);
    45c6:	0e 94 c8 20 	call	0x4190	; 0x4190 <SrvMotorApplyAbsoluteSpeed>
    45ca:	08 95       	ret
		//si le timeout est ecoulé
		if((allumage == TRUE) && (timeout_before_allumage == DISABLE_TIMEOUT_ALLUMAGE))
		{
			//on fait un allumage progressif des moteurs jusqu'a une vitesse correct
			speed_moteur += 5U;
			if( speed_moteur >= LIMIT_MOTORS_START )
    45cc:	90 e0       	ldi	r25, 0x00	; 0
    45ce:	fb cf       	rjmp	.-10     	; 0x45c6 <SrvStartEngineDispatcher+0x46>

000045d0 <SrvTimerInit>:
void SrvTimerInit( void )
{
	//on configure les timers autre que le timer event
	for(Int8U loop_index = 0U; loop_index < CONF_TIMER_NB ; loop_index++ )
	{
		MesTimer[ loop_index ].enable = FALSE;
    45d0:	10 92 a9 03 	sts	0x03A9, r1
		MesTimer[ loop_index ].ptrfct = NULL;
    45d4:	10 92 b1 03 	sts	0x03B1, r1
    45d8:	10 92 b0 03 	sts	0x03B0, r1
void SrvTimerInit( void )
{
	//on configure les timers autre que le timer event
	for(Int8U loop_index = 0U; loop_index < CONF_TIMER_NB ; loop_index++ )
	{
		MesTimer[ loop_index ].enable = FALSE;
    45dc:	10 92 b2 03 	sts	0x03B2, r1
		MesTimer[ loop_index ].ptrfct = NULL;
    45e0:	10 92 ba 03 	sts	0x03BA, r1
    45e4:	10 92 b9 03 	sts	0x03B9, r1
void SrvTimerInit( void )
{
	//on configure les timers autre que le timer event
	for(Int8U loop_index = 0U; loop_index < CONF_TIMER_NB ; loop_index++ )
	{
		MesTimer[ loop_index ].enable = FALSE;
    45e8:	10 92 bb 03 	sts	0x03BB, r1
		MesTimer[ loop_index ].ptrfct = NULL;
    45ec:	10 92 c3 03 	sts	0x03C3, r1
    45f0:	10 92 c2 03 	sts	0x03C2, r1
void SrvTimerInit( void )
{
	//on configure les timers autre que le timer event
	for(Int8U loop_index = 0U; loop_index < CONF_TIMER_NB ; loop_index++ )
	{
		MesTimer[ loop_index ].enable = FALSE;
    45f4:	10 92 c4 03 	sts	0x03C4, r1
		MesTimer[ loop_index ].ptrfct = NULL;
    45f8:	10 92 cc 03 	sts	0x03CC, r1
    45fc:	10 92 cb 03 	sts	0x03CB, r1
void SrvTimerInit( void )
{
	//on configure les timers autre que le timer event
	for(Int8U loop_index = 0U; loop_index < CONF_TIMER_NB ; loop_index++ )
	{
		MesTimer[ loop_index ].enable = FALSE;
    4600:	10 92 cd 03 	sts	0x03CD, r1
		MesTimer[ loop_index ].ptrfct = NULL;
    4604:	10 92 d5 03 	sts	0x03D5, r1
    4608:	10 92 d4 03 	sts	0x03D4, r1
	}		
	//on init le timer system a 1 ms
	TCCR2A	= 0;
    460c:	10 92 b0 00 	sts	0x00B0, r1
	TCCR2B	|= _BV(CS22) ;
    4610:	e1 eb       	ldi	r30, 0xB1	; 177
    4612:	f0 e0       	ldi	r31, 0x00	; 0
    4614:	80 81       	ld	r24, Z
    4616:	84 60       	ori	r24, 0x04	; 4
    4618:	80 83       	st	Z, r24
	TCNT2	= 0;
    461a:	10 92 b2 00 	sts	0x00B2, r1
	OCR2A   = TIMER2_OFFSET_COMPA;
    461e:	88 e1       	ldi	r24, 0x18	; 24
    4620:	80 93 b3 00 	sts	0x00B3, r24
	OCR2B   = TIMER2_OFFSET_COMPB;
    4624:	89 ef       	ldi	r24, 0xF9	; 249
    4626:	80 93 b4 00 	sts	0x00B4, r24
	TIFR2	|= _BV(OCF2A);
    462a:	b9 9a       	sbi	0x17, 1	; 23
	TIMSK2	|= _BV(OCIE2A) ;
    462c:	e0 e7       	ldi	r30, 0x70	; 112
    462e:	f0 e0       	ldi	r31, 0x00	; 0
    4630:	80 81       	ld	r24, Z
    4632:	82 60       	ori	r24, 0x02	; 2
    4634:	80 83       	st	Z, r24
	TIFR2	|= _BV(OCF2B);
    4636:	ba 9a       	sbi	0x17, 2	; 23
	TIMSK2	|= _BV(OCIE2B) ;
    4638:	80 81       	ld	r24, Z
    463a:	84 60       	ori	r24, 0x04	; 4
    463c:	80 83       	st	Z, r24
}
    463e:	08 95       	ret

00004640 <SrvTimerAddTimer>:

	
//fct qui parametre le timer
void SrvTimerAddTimer( Int8U index_timer, Int16U delay_ms, ETimerMode mode, ptrfct_Isr_Callback_Timer ptrfct )
{
	MesTimer[ index_timer ].delay = delay_ms;
    4640:	90 e0       	ldi	r25, 0x00	; 0
    4642:	fc 01       	movw	r30, r24
    4644:	ee 0f       	add	r30, r30
    4646:	ff 1f       	adc	r31, r31
    4648:	ee 0f       	add	r30, r30
    464a:	ff 1f       	adc	r31, r31
    464c:	ee 0f       	add	r30, r30
    464e:	ff 1f       	adc	r31, r31
    4650:	e8 0f       	add	r30, r24
    4652:	f9 1f       	adc	r31, r25
    4654:	e7 55       	subi	r30, 0x57	; 87
    4656:	fc 4f       	sbci	r31, 0xFC	; 252
    4658:	72 83       	std	Z+2, r23	; 0x02
    465a:	61 83       	std	Z+1, r22	; 0x01
	MesTimer[ index_timer ].cpt_delay = 0U;
    465c:	14 82       	std	Z+4, r1	; 0x04
    465e:	13 82       	std	Z+3, r1	; 0x03
	MesTimer[ index_timer ].mode = mode;
    4660:	45 83       	std	Z+5, r20	; 0x05
	MesTimer[ index_timer ].ptrfct = ptrfct;
    4662:	30 87       	std	Z+8, r19	; 0x08
    4664:	27 83       	std	Z+7, r18	; 0x07
	MesTimer[ index_timer ].enable = TRUE;
    4666:	81 e0       	ldi	r24, 0x01	; 1
    4668:	80 83       	st	Z, r24
}
    466a:	08 95       	ret

0000466c <SrvTimerPauseTimer>:

//fct qui met en pause le timer
void SrvTimerPauseTimer( Int8U index_timer )
{	
	MesTimer[ index_timer ].enable = FALSE;
    466c:	90 e0       	ldi	r25, 0x00	; 0
    466e:	fc 01       	movw	r30, r24
    4670:	ee 0f       	add	r30, r30
    4672:	ff 1f       	adc	r31, r31
    4674:	ee 0f       	add	r30, r30
    4676:	ff 1f       	adc	r31, r31
    4678:	ee 0f       	add	r30, r30
    467a:	ff 1f       	adc	r31, r31
    467c:	e8 0f       	add	r30, r24
    467e:	f9 1f       	adc	r31, r25
    4680:	e7 55       	subi	r30, 0x57	; 87
    4682:	fc 4f       	sbci	r31, 0xFC	; 252
    4684:	10 82       	st	Z, r1
}
    4686:	08 95       	ret

00004688 <SrvTimerStopTimer>:

//fct qui remet a zero les parametres du timer
void SrvTimerStopTimer( Int8U index_timer )
{	
	MesTimer[ index_timer ].enable    = FALSE;
    4688:	90 e0       	ldi	r25, 0x00	; 0
    468a:	fc 01       	movw	r30, r24
    468c:	ee 0f       	add	r30, r30
    468e:	ff 1f       	adc	r31, r31
    4690:	ee 0f       	add	r30, r30
    4692:	ff 1f       	adc	r31, r31
    4694:	ee 0f       	add	r30, r30
    4696:	ff 1f       	adc	r31, r31
    4698:	e8 0f       	add	r30, r24
    469a:	f9 1f       	adc	r31, r25
    469c:	e7 55       	subi	r30, 0x57	; 87
    469e:	fc 4f       	sbci	r31, 0xFC	; 252
    46a0:	10 82       	st	Z, r1
	MesTimer[ index_timer ].delay     = 0U ;
    46a2:	12 82       	std	Z+2, r1	; 0x02
    46a4:	11 82       	std	Z+1, r1	; 0x01
	MesTimer[ index_timer ].cpt_delay = 0U;
    46a6:	14 82       	std	Z+4, r1	; 0x04
    46a8:	13 82       	std	Z+3, r1	; 0x03
	MesTimer[ index_timer ].mode      = E_TIMER_MODE_NONE;
    46aa:	82 e0       	ldi	r24, 0x02	; 2
    46ac:	85 83       	std	Z+5, r24	; 0x05
	MesTimer[ index_timer ].ptrfct    = NULL;
    46ae:	10 86       	std	Z+8, r1	; 0x08
    46b0:	17 82       	std	Z+7, r1	; 0x07
}
    46b2:	08 95       	ret

000046b4 <SrvTimerResetTimer>:

//fct qui reseter le timer
void SrvTimerResetTimer( Int8U index_timer )
{
	MesTimer[ index_timer ].cpt_delay = 0U;	
    46b4:	90 e0       	ldi	r25, 0x00	; 0
    46b6:	fc 01       	movw	r30, r24
    46b8:	ee 0f       	add	r30, r30
    46ba:	ff 1f       	adc	r31, r31
    46bc:	ee 0f       	add	r30, r30
    46be:	ff 1f       	adc	r31, r31
    46c0:	ee 0f       	add	r30, r30
    46c2:	ff 1f       	adc	r31, r31
    46c4:	e8 0f       	add	r30, r24
    46c6:	f9 1f       	adc	r31, r25
    46c8:	e7 55       	subi	r30, 0x57	; 87
    46ca:	fc 4f       	sbci	r31, 0xFC	; 252
    46cc:	14 82       	std	Z+4, r1	; 0x04
    46ce:	13 82       	std	Z+3, r1	; 0x03
}
    46d0:	08 95       	ret

000046d2 <SrvTimerDelayTimer>:

//fct qui fixe un delay au timer
void SrvTimerDelayTimer( Int8U index_timer , Int16U delay)
{
	MesTimer[ index_timer ].cpt_delay = 0U;	
    46d2:	90 e0       	ldi	r25, 0x00	; 0
    46d4:	fc 01       	movw	r30, r24
    46d6:	ee 0f       	add	r30, r30
    46d8:	ff 1f       	adc	r31, r31
    46da:	ee 0f       	add	r30, r30
    46dc:	ff 1f       	adc	r31, r31
    46de:	ee 0f       	add	r30, r30
    46e0:	ff 1f       	adc	r31, r31
    46e2:	e8 0f       	add	r30, r24
    46e4:	f9 1f       	adc	r31, r25
    46e6:	e7 55       	subi	r30, 0x57	; 87
    46e8:	fc 4f       	sbci	r31, 0xFC	; 252
    46ea:	14 82       	std	Z+4, r1	; 0x04
    46ec:	13 82       	std	Z+3, r1	; 0x03
	MesTimer[ index_timer ].delay	  = delay;
    46ee:	72 83       	std	Z+2, r23	; 0x02
    46f0:	61 83       	std	Z+1, r22	; 0x01
}
    46f2:	08 95       	ret

000046f4 <SrvTimerTickReset>:

//on reset tt les timers
void SrvTimerTickReset(void)
{
	cli();
    46f4:	f8 94       	cli
	//on configure les timers autre que le timer event
	for(Int8U loop_index = 0U; loop_index < CONF_TIMER_NB ; loop_index++ )
	{
		MesTimer[ loop_index ].cpt_delay = 0U;	
    46f6:	10 92 ad 03 	sts	0x03AD, r1
    46fa:	10 92 ac 03 	sts	0x03AC, r1
    46fe:	10 92 b6 03 	sts	0x03B6, r1
    4702:	10 92 b5 03 	sts	0x03B5, r1
    4706:	10 92 bf 03 	sts	0x03BF, r1
    470a:	10 92 be 03 	sts	0x03BE, r1
    470e:	10 92 c8 03 	sts	0x03C8, r1
    4712:	10 92 c7 03 	sts	0x03C7, r1
    4716:	10 92 d1 03 	sts	0x03D1, r1
    471a:	10 92 d0 03 	sts	0x03D0, r1
	}
	drv_event_tick_counter_1ms = 0;
    471e:	10 92 97 02 	sts	0x0297, r1
    4722:	10 92 98 02 	sts	0x0298, r1
    4726:	10 92 99 02 	sts	0x0299, r1
    472a:	10 92 9a 02 	sts	0x029A, r1
	tick_counter_20ms = 0U;
    472e:	10 92 90 02 	sts	0x0290, r1
    4732:	10 92 8f 02 	sts	0x028F, r1
	tick_counter_50ms = 0U;
    4736:	10 92 92 02 	sts	0x0292, r1
    473a:	10 92 91 02 	sts	0x0291, r1
	tick_counter_100ms = 0U;
    473e:	10 92 93 02 	sts	0x0293, r1
	tick_counter_1s = 0U;
    4742:	10 92 94 02 	sts	0x0294, r1
	tick_counter_5s = 0U;
    4746:	10 92 95 02 	sts	0x0295, r1
	tick_counter_10s = 0U;
    474a:	10 92 96 02 	sts	0x0296, r1
	TCNT2	= 0U;
    474e:	10 92 b2 00 	sts	0x00B2, r1
	OCR2A   = TIMER2_OFFSET_COMPA;
    4752:	88 e1       	ldi	r24, 0x18	; 24
    4754:	80 93 b3 00 	sts	0x00B3, r24
	sei();
    4758:	78 94       	sei
}
    475a:	08 95       	ret

0000475c <__vector_8>:


/////////////////////////////////////ISR PRIVATE FUNCTIONS////////////////////////////////////////
//ISR timer event 1ms
ISR(TIMER2_COMPB_vect)
{
    475c:	1f 92       	push	r1
    475e:	0f 92       	push	r0
    4760:	0f b6       	in	r0, 0x3f	; 63
    4762:	0f 92       	push	r0
    4764:	11 24       	eor	r1, r1
    4766:	2f 93       	push	r18
    4768:	3f 93       	push	r19
    476a:	4f 93       	push	r20
    476c:	5f 93       	push	r21
    476e:	6f 93       	push	r22
    4770:	7f 93       	push	r23
    4772:	8f 93       	push	r24
    4774:	9f 93       	push	r25
    4776:	af 93       	push	r26
    4778:	bf 93       	push	r27
    477a:	ef 93       	push	r30
    477c:	ff 93       	push	r31
	for(Int8U loop_index = 0U; loop_index < CONF_TIMER_NB ; loop_index++ )
	{
		//si le timer est activé
		if( MesTimer[ loop_index ].enable == TRUE )
    477e:	80 91 a9 03 	lds	r24, 0x03A9
    4782:	81 30       	cpi	r24, 0x01	; 1
    4784:	29 f1       	breq	.+74     	; 0x47d0 <__vector_8+0x74>
    4786:	80 91 b2 03 	lds	r24, 0x03B2
    478a:	81 30       	cpi	r24, 0x01	; 1
    478c:	09 f4       	brne	.+2      	; 0x4790 <__vector_8+0x34>
    478e:	f6 c0       	rjmp	.+492    	; 0x497c <__vector_8+0x220>
    4790:	80 91 bb 03 	lds	r24, 0x03BB
    4794:	81 30       	cpi	r24, 0x01	; 1
    4796:	09 f4       	brne	.+2      	; 0x479a <__vector_8+0x3e>
    4798:	ba c0       	rjmp	.+372    	; 0x490e <__vector_8+0x1b2>
    479a:	80 91 c4 03 	lds	r24, 0x03C4
    479e:	81 30       	cpi	r24, 0x01	; 1
    47a0:	09 f4       	brne	.+2      	; 0x47a4 <__vector_8+0x48>
    47a2:	7e c0       	rjmp	.+252    	; 0x48a0 <__vector_8+0x144>
    47a4:	80 91 cd 03 	lds	r24, 0x03CD
    47a8:	81 30       	cpi	r24, 0x01	; 1
    47aa:	09 f4       	brne	.+2      	; 0x47ae <__vector_8+0x52>
    47ac:	46 c0       	rjmp	.+140    	; 0x483a <__vector_8+0xde>
					}
				}
			}
		}			
	}
}	
    47ae:	ff 91       	pop	r31
    47b0:	ef 91       	pop	r30
    47b2:	bf 91       	pop	r27
    47b4:	af 91       	pop	r26
    47b6:	9f 91       	pop	r25
    47b8:	8f 91       	pop	r24
    47ba:	7f 91       	pop	r23
    47bc:	6f 91       	pop	r22
    47be:	5f 91       	pop	r21
    47c0:	4f 91       	pop	r20
    47c2:	3f 91       	pop	r19
    47c4:	2f 91       	pop	r18
    47c6:	0f 90       	pop	r0
    47c8:	0f be       	out	0x3f, r0	; 63
    47ca:	0f 90       	pop	r0
    47cc:	1f 90       	pop	r1
    47ce:	18 95       	reti
	{
		//si le timer est activé
		if( MesTimer[ loop_index ].enable == TRUE )
		{
			//on incremente le compteur
			MesTimer[ loop_index ].cpt_delay++;
    47d0:	80 91 ac 03 	lds	r24, 0x03AC
    47d4:	90 91 ad 03 	lds	r25, 0x03AD
    47d8:	01 96       	adiw	r24, 0x01	; 1
    47da:	90 93 ad 03 	sts	0x03AD, r25
    47de:	80 93 ac 03 	sts	0x03AC, r24
			
			//on test par rapport a la valeur utilisateur
			if(MesTimer[ loop_index ].cpt_delay == MesTimer[ loop_index ].delay )
    47e2:	20 91 aa 03 	lds	r18, 0x03AA
    47e6:	30 91 ab 03 	lds	r19, 0x03AB
    47ea:	82 17       	cp	r24, r18
    47ec:	93 07       	cpc	r25, r19
    47ee:	59 f6       	brne	.-106    	; 0x4786 <__vector_8+0x2a>
			{
				if( MesTimer[ loop_index ].mode != E_TIMER_MODE_NONE )
    47f0:	80 91 ae 03 	lds	r24, 0x03AE
    47f4:	82 30       	cpi	r24, 0x02	; 2
    47f6:	39 f2       	breq	.-114    	; 0x4786 <__vector_8+0x2a>
				{
					//on remet a zero le compteur
					MesTimer[ loop_index ].cpt_delay = 0U;
    47f8:	10 92 ad 03 	sts	0x03AD, r1
    47fc:	10 92 ac 03 	sts	0x03AC, r1
					
					//si on est en mode ONE SHOT 
					//on atteind le temp, on supprime le timer
					if (MesTimer[ loop_index ].mode == E_TIMER_MODE_ONE_SHOT)
    4800:	88 23       	and	r24, r24
    4802:	09 f0       	breq	.+2      	; 0x4806 <__vector_8+0xaa>
    4804:	f1 c0       	rjmp	.+482    	; 0x49e8 <__vector_8+0x28c>
					{
						//on garde la fonction a ppelé avant de tt effacer
						ptrfct_Isr_Callback_Timer ptrfct = MesTimer[ loop_index ].ptrfct;
    4806:	e0 91 b0 03 	lds	r30, 0x03B0
    480a:	f0 91 b1 03 	lds	r31, 0x03B1
}

//fct qui remet a zero les parametres du timer
void SrvTimerStopTimer( Int8U index_timer )
{	
	MesTimer[ index_timer ].enable    = FALSE;
    480e:	10 92 a9 03 	sts	0x03A9, r1
	MesTimer[ index_timer ].delay     = 0U ;
    4812:	10 92 ab 03 	sts	0x03AB, r1
    4816:	10 92 aa 03 	sts	0x03AA, r1
	MesTimer[ index_timer ].cpt_delay = 0U;
    481a:	10 92 ad 03 	sts	0x03AD, r1
    481e:	10 92 ac 03 	sts	0x03AC, r1
	MesTimer[ index_timer ].mode      = E_TIMER_MODE_NONE;
    4822:	82 e0       	ldi	r24, 0x02	; 2
    4824:	80 93 ae 03 	sts	0x03AE, r24
	MesTimer[ index_timer ].ptrfct    = NULL;
    4828:	10 92 b1 03 	sts	0x03B1, r1
    482c:	10 92 b0 03 	sts	0x03B0, r1
						//on garde la fonction a ppelé avant de tt effacer
						ptrfct_Isr_Callback_Timer ptrfct = MesTimer[ loop_index ].ptrfct;
						//on supprime le timer One Shot
						SrvTimerStopTimer( loop_index );
						//on appelle la fonction
						if( ptrfct != NULL )
    4830:	30 97       	sbiw	r30, 0x00	; 0
    4832:	09 f4       	brne	.+2      	; 0x4836 <__vector_8+0xda>
    4834:	a8 cf       	rjmp	.-176    	; 0x4786 <__vector_8+0x2a>
						{
							ptrfct();
    4836:	09 95       	icall
    4838:	a6 cf       	rjmp	.-180    	; 0x4786 <__vector_8+0x2a>
	{
		//si le timer est activé
		if( MesTimer[ loop_index ].enable == TRUE )
		{
			//on incremente le compteur
			MesTimer[ loop_index ].cpt_delay++;
    483a:	80 91 d0 03 	lds	r24, 0x03D0
    483e:	90 91 d1 03 	lds	r25, 0x03D1
    4842:	01 96       	adiw	r24, 0x01	; 1
    4844:	90 93 d1 03 	sts	0x03D1, r25
    4848:	80 93 d0 03 	sts	0x03D0, r24
			
			//on test par rapport a la valeur utilisateur
			if(MesTimer[ loop_index ].cpt_delay == MesTimer[ loop_index ].delay )
    484c:	20 91 ce 03 	lds	r18, 0x03CE
    4850:	30 91 cf 03 	lds	r19, 0x03CF
    4854:	82 17       	cp	r24, r18
    4856:	93 07       	cpc	r25, r19
    4858:	09 f0       	breq	.+2      	; 0x485c <__vector_8+0x100>
    485a:	a9 cf       	rjmp	.-174    	; 0x47ae <__vector_8+0x52>
			{
				if( MesTimer[ loop_index ].mode != E_TIMER_MODE_NONE )
    485c:	80 91 d2 03 	lds	r24, 0x03D2
    4860:	82 30       	cpi	r24, 0x02	; 2
    4862:	09 f4       	brne	.+2      	; 0x4866 <__vector_8+0x10a>
    4864:	a4 cf       	rjmp	.-184    	; 0x47ae <__vector_8+0x52>
				{
					//on remet a zero le compteur
					MesTimer[ loop_index ].cpt_delay = 0U;
    4866:	10 92 d1 03 	sts	0x03D1, r1
    486a:	10 92 d0 03 	sts	0x03D0, r1
					
					//si on est en mode ONE SHOT 
					//on atteind le temp, on supprime le timer
					if (MesTimer[ loop_index ].mode == E_TIMER_MODE_ONE_SHOT)
    486e:	88 23       	and	r24, r24
    4870:	09 f0       	breq	.+2      	; 0x4874 <__vector_8+0x118>
    4872:	c3 c0       	rjmp	.+390    	; 0x49fa <__vector_8+0x29e>
					{
						//on garde la fonction a ppelé avant de tt effacer
						ptrfct_Isr_Callback_Timer ptrfct = MesTimer[ loop_index ].ptrfct;
    4874:	e0 91 d4 03 	lds	r30, 0x03D4
    4878:	f0 91 d5 03 	lds	r31, 0x03D5
}

//fct qui remet a zero les parametres du timer
void SrvTimerStopTimer( Int8U index_timer )
{	
	MesTimer[ index_timer ].enable    = FALSE;
    487c:	10 92 cd 03 	sts	0x03CD, r1
	MesTimer[ index_timer ].delay     = 0U ;
    4880:	10 92 cf 03 	sts	0x03CF, r1
    4884:	10 92 ce 03 	sts	0x03CE, r1
	MesTimer[ index_timer ].cpt_delay = 0U;
	MesTimer[ index_timer ].mode      = E_TIMER_MODE_NONE;
    4888:	82 e0       	ldi	r24, 0x02	; 2
    488a:	80 93 d2 03 	sts	0x03D2, r24
	MesTimer[ index_timer ].ptrfct    = NULL;
    488e:	10 92 d5 03 	sts	0x03D5, r1
    4892:	10 92 d4 03 	sts	0x03D4, r1
						//on garde la fonction a ppelé avant de tt effacer
						ptrfct_Isr_Callback_Timer ptrfct = MesTimer[ loop_index ].ptrfct;
						//on supprime le timer One Shot
						SrvTimerStopTimer( loop_index );
						//on appelle la fonction
						if( ptrfct != NULL )
    4896:	30 97       	sbiw	r30, 0x00	; 0
    4898:	09 f4       	brne	.+2      	; 0x489c <__vector_8+0x140>
    489a:	89 cf       	rjmp	.-238    	; 0x47ae <__vector_8+0x52>
					else
					{
						//on appelle la fonction
						if( MesTimer[ loop_index ].ptrfct != NULL )
						{
							MesTimer[ loop_index ].ptrfct();
    489c:	09 95       	icall
    489e:	87 cf       	rjmp	.-242    	; 0x47ae <__vector_8+0x52>
	{
		//si le timer est activé
		if( MesTimer[ loop_index ].enable == TRUE )
		{
			//on incremente le compteur
			MesTimer[ loop_index ].cpt_delay++;
    48a0:	80 91 c7 03 	lds	r24, 0x03C7
    48a4:	90 91 c8 03 	lds	r25, 0x03C8
    48a8:	01 96       	adiw	r24, 0x01	; 1
    48aa:	90 93 c8 03 	sts	0x03C8, r25
    48ae:	80 93 c7 03 	sts	0x03C7, r24
			
			//on test par rapport a la valeur utilisateur
			if(MesTimer[ loop_index ].cpt_delay == MesTimer[ loop_index ].delay )
    48b2:	20 91 c5 03 	lds	r18, 0x03C5
    48b6:	30 91 c6 03 	lds	r19, 0x03C6
    48ba:	82 17       	cp	r24, r18
    48bc:	93 07       	cpc	r25, r19
    48be:	09 f0       	breq	.+2      	; 0x48c2 <__vector_8+0x166>
    48c0:	71 cf       	rjmp	.-286    	; 0x47a4 <__vector_8+0x48>
			{
				if( MesTimer[ loop_index ].mode != E_TIMER_MODE_NONE )
    48c2:	80 91 c9 03 	lds	r24, 0x03C9
    48c6:	82 30       	cpi	r24, 0x02	; 2
    48c8:	09 f4       	brne	.+2      	; 0x48cc <__vector_8+0x170>
    48ca:	6c cf       	rjmp	.-296    	; 0x47a4 <__vector_8+0x48>
				{
					//on remet a zero le compteur
					MesTimer[ loop_index ].cpt_delay = 0U;
    48cc:	10 92 c8 03 	sts	0x03C8, r1
    48d0:	10 92 c7 03 	sts	0x03C7, r1
					
					//si on est en mode ONE SHOT 
					//on atteind le temp, on supprime le timer
					if (MesTimer[ loop_index ].mode == E_TIMER_MODE_ONE_SHOT)
    48d4:	88 23       	and	r24, r24
    48d6:	09 f0       	breq	.+2      	; 0x48da <__vector_8+0x17e>
    48d8:	ab c0       	rjmp	.+342    	; 0x4a30 <__vector_8+0x2d4>
					{
						//on garde la fonction a ppelé avant de tt effacer
						ptrfct_Isr_Callback_Timer ptrfct = MesTimer[ loop_index ].ptrfct;
    48da:	e0 91 cb 03 	lds	r30, 0x03CB
    48de:	f0 91 cc 03 	lds	r31, 0x03CC
}

//fct qui remet a zero les parametres du timer
void SrvTimerStopTimer( Int8U index_timer )
{	
	MesTimer[ index_timer ].enable    = FALSE;
    48e2:	10 92 c4 03 	sts	0x03C4, r1
	MesTimer[ index_timer ].delay     = 0U ;
    48e6:	10 92 c6 03 	sts	0x03C6, r1
    48ea:	10 92 c5 03 	sts	0x03C5, r1
	MesTimer[ index_timer ].cpt_delay = 0U;
    48ee:	10 92 c8 03 	sts	0x03C8, r1
    48f2:	10 92 c7 03 	sts	0x03C7, r1
	MesTimer[ index_timer ].mode      = E_TIMER_MODE_NONE;
    48f6:	82 e0       	ldi	r24, 0x02	; 2
    48f8:	80 93 c9 03 	sts	0x03C9, r24
	MesTimer[ index_timer ].ptrfct    = NULL;
    48fc:	10 92 cc 03 	sts	0x03CC, r1
    4900:	10 92 cb 03 	sts	0x03CB, r1
						//on garde la fonction a ppelé avant de tt effacer
						ptrfct_Isr_Callback_Timer ptrfct = MesTimer[ loop_index ].ptrfct;
						//on supprime le timer One Shot
						SrvTimerStopTimer( loop_index );
						//on appelle la fonction
						if( ptrfct != NULL )
    4904:	30 97       	sbiw	r30, 0x00	; 0
    4906:	09 f4       	brne	.+2      	; 0x490a <__vector_8+0x1ae>
    4908:	4d cf       	rjmp	.-358    	; 0x47a4 <__vector_8+0x48>
						{
							ptrfct();
    490a:	09 95       	icall
    490c:	4b cf       	rjmp	.-362    	; 0x47a4 <__vector_8+0x48>
	{
		//si le timer est activé
		if( MesTimer[ loop_index ].enable == TRUE )
		{
			//on incremente le compteur
			MesTimer[ loop_index ].cpt_delay++;
    490e:	80 91 be 03 	lds	r24, 0x03BE
    4912:	90 91 bf 03 	lds	r25, 0x03BF
    4916:	01 96       	adiw	r24, 0x01	; 1
    4918:	90 93 bf 03 	sts	0x03BF, r25
    491c:	80 93 be 03 	sts	0x03BE, r24
			
			//on test par rapport a la valeur utilisateur
			if(MesTimer[ loop_index ].cpt_delay == MesTimer[ loop_index ].delay )
    4920:	20 91 bc 03 	lds	r18, 0x03BC
    4924:	30 91 bd 03 	lds	r19, 0x03BD
    4928:	82 17       	cp	r24, r18
    492a:	93 07       	cpc	r25, r19
    492c:	09 f0       	breq	.+2      	; 0x4930 <__vector_8+0x1d4>
    492e:	35 cf       	rjmp	.-406    	; 0x479a <__vector_8+0x3e>
			{
				if( MesTimer[ loop_index ].mode != E_TIMER_MODE_NONE )
    4930:	80 91 c0 03 	lds	r24, 0x03C0
    4934:	82 30       	cpi	r24, 0x02	; 2
    4936:	09 f4       	brne	.+2      	; 0x493a <__vector_8+0x1de>
    4938:	30 cf       	rjmp	.-416    	; 0x479a <__vector_8+0x3e>
				{
					//on remet a zero le compteur
					MesTimer[ loop_index ].cpt_delay = 0U;
    493a:	10 92 bf 03 	sts	0x03BF, r1
    493e:	10 92 be 03 	sts	0x03BE, r1
					
					//si on est en mode ONE SHOT 
					//on atteind le temp, on supprime le timer
					if (MesTimer[ loop_index ].mode == E_TIMER_MODE_ONE_SHOT)
    4942:	88 23       	and	r24, r24
    4944:	09 f0       	breq	.+2      	; 0x4948 <__vector_8+0x1ec>
    4946:	62 c0       	rjmp	.+196    	; 0x4a0c <__vector_8+0x2b0>
					{
						//on garde la fonction a ppelé avant de tt effacer
						ptrfct_Isr_Callback_Timer ptrfct = MesTimer[ loop_index ].ptrfct;
    4948:	e0 91 c2 03 	lds	r30, 0x03C2
    494c:	f0 91 c3 03 	lds	r31, 0x03C3
}

//fct qui remet a zero les parametres du timer
void SrvTimerStopTimer( Int8U index_timer )
{	
	MesTimer[ index_timer ].enable    = FALSE;
    4950:	10 92 bb 03 	sts	0x03BB, r1
	MesTimer[ index_timer ].delay     = 0U ;
    4954:	10 92 bd 03 	sts	0x03BD, r1
    4958:	10 92 bc 03 	sts	0x03BC, r1
	MesTimer[ index_timer ].cpt_delay = 0U;
    495c:	10 92 bf 03 	sts	0x03BF, r1
    4960:	10 92 be 03 	sts	0x03BE, r1
	MesTimer[ index_timer ].mode      = E_TIMER_MODE_NONE;
    4964:	82 e0       	ldi	r24, 0x02	; 2
    4966:	80 93 c0 03 	sts	0x03C0, r24
	MesTimer[ index_timer ].ptrfct    = NULL;
    496a:	10 92 c3 03 	sts	0x03C3, r1
    496e:	10 92 c2 03 	sts	0x03C2, r1
						//on garde la fonction a ppelé avant de tt effacer
						ptrfct_Isr_Callback_Timer ptrfct = MesTimer[ loop_index ].ptrfct;
						//on supprime le timer One Shot
						SrvTimerStopTimer( loop_index );
						//on appelle la fonction
						if( ptrfct != NULL )
    4972:	30 97       	sbiw	r30, 0x00	; 0
    4974:	09 f4       	brne	.+2      	; 0x4978 <__vector_8+0x21c>
    4976:	11 cf       	rjmp	.-478    	; 0x479a <__vector_8+0x3e>
						{
							ptrfct();
    4978:	09 95       	icall
    497a:	0f cf       	rjmp	.-482    	; 0x479a <__vector_8+0x3e>
	{
		//si le timer est activé
		if( MesTimer[ loop_index ].enable == TRUE )
		{
			//on incremente le compteur
			MesTimer[ loop_index ].cpt_delay++;
    497c:	80 91 b5 03 	lds	r24, 0x03B5
    4980:	90 91 b6 03 	lds	r25, 0x03B6
    4984:	01 96       	adiw	r24, 0x01	; 1
    4986:	90 93 b6 03 	sts	0x03B6, r25
    498a:	80 93 b5 03 	sts	0x03B5, r24
			
			//on test par rapport a la valeur utilisateur
			if(MesTimer[ loop_index ].cpt_delay == MesTimer[ loop_index ].delay )
    498e:	20 91 b3 03 	lds	r18, 0x03B3
    4992:	30 91 b4 03 	lds	r19, 0x03B4
    4996:	82 17       	cp	r24, r18
    4998:	93 07       	cpc	r25, r19
    499a:	09 f0       	breq	.+2      	; 0x499e <__vector_8+0x242>
    499c:	f9 ce       	rjmp	.-526    	; 0x4790 <__vector_8+0x34>
			{
				if( MesTimer[ loop_index ].mode != E_TIMER_MODE_NONE )
    499e:	80 91 b7 03 	lds	r24, 0x03B7
    49a2:	82 30       	cpi	r24, 0x02	; 2
    49a4:	09 f4       	brne	.+2      	; 0x49a8 <__vector_8+0x24c>
    49a6:	f4 ce       	rjmp	.-536    	; 0x4790 <__vector_8+0x34>
				{
					//on remet a zero le compteur
					MesTimer[ loop_index ].cpt_delay = 0U;
    49a8:	10 92 b6 03 	sts	0x03B6, r1
    49ac:	10 92 b5 03 	sts	0x03B5, r1
					
					//si on est en mode ONE SHOT 
					//on atteind le temp, on supprime le timer
					if (MesTimer[ loop_index ].mode == E_TIMER_MODE_ONE_SHOT)
    49b0:	88 23       	and	r24, r24
    49b2:	a9 f5       	brne	.+106    	; 0x4a1e <__vector_8+0x2c2>
					{
						//on garde la fonction a ppelé avant de tt effacer
						ptrfct_Isr_Callback_Timer ptrfct = MesTimer[ loop_index ].ptrfct;
    49b4:	e0 91 b9 03 	lds	r30, 0x03B9
    49b8:	f0 91 ba 03 	lds	r31, 0x03BA
}

//fct qui remet a zero les parametres du timer
void SrvTimerStopTimer( Int8U index_timer )
{	
	MesTimer[ index_timer ].enable    = FALSE;
    49bc:	10 92 b2 03 	sts	0x03B2, r1
	MesTimer[ index_timer ].delay     = 0U ;
    49c0:	10 92 b4 03 	sts	0x03B4, r1
    49c4:	10 92 b3 03 	sts	0x03B3, r1
	MesTimer[ index_timer ].cpt_delay = 0U;
    49c8:	10 92 b6 03 	sts	0x03B6, r1
    49cc:	10 92 b5 03 	sts	0x03B5, r1
	MesTimer[ index_timer ].mode      = E_TIMER_MODE_NONE;
    49d0:	82 e0       	ldi	r24, 0x02	; 2
    49d2:	80 93 b7 03 	sts	0x03B7, r24
	MesTimer[ index_timer ].ptrfct    = NULL;
    49d6:	10 92 ba 03 	sts	0x03BA, r1
    49da:	10 92 b9 03 	sts	0x03B9, r1
						//on garde la fonction a ppelé avant de tt effacer
						ptrfct_Isr_Callback_Timer ptrfct = MesTimer[ loop_index ].ptrfct;
						//on supprime le timer One Shot
						SrvTimerStopTimer( loop_index );
						//on appelle la fonction
						if( ptrfct != NULL )
    49de:	30 97       	sbiw	r30, 0x00	; 0
    49e0:	09 f4       	brne	.+2      	; 0x49e4 <__vector_8+0x288>
    49e2:	d6 ce       	rjmp	.-596    	; 0x4790 <__vector_8+0x34>
						{
							ptrfct();
    49e4:	09 95       	icall
    49e6:	d4 ce       	rjmp	.-600    	; 0x4790 <__vector_8+0x34>
						}
					}
					else
					{
						//on appelle la fonction
						if( MesTimer[ loop_index ].ptrfct != NULL )
    49e8:	e0 91 b0 03 	lds	r30, 0x03B0
    49ec:	f0 91 b1 03 	lds	r31, 0x03B1
    49f0:	30 97       	sbiw	r30, 0x00	; 0
    49f2:	09 f4       	brne	.+2      	; 0x49f6 <__vector_8+0x29a>
    49f4:	c8 ce       	rjmp	.-624    	; 0x4786 <__vector_8+0x2a>
						//on supprime le timer One Shot
						SrvTimerStopTimer( loop_index );
						//on appelle la fonction
						if( ptrfct != NULL )
						{
							ptrfct();
    49f6:	09 95       	icall
    49f8:	c6 ce       	rjmp	.-628    	; 0x4786 <__vector_8+0x2a>
						}
					}
					else
					{
						//on appelle la fonction
						if( MesTimer[ loop_index ].ptrfct != NULL )
    49fa:	e0 91 d4 03 	lds	r30, 0x03D4
    49fe:	f0 91 d5 03 	lds	r31, 0x03D5
    4a02:	30 97       	sbiw	r30, 0x00	; 0
    4a04:	09 f4       	brne	.+2      	; 0x4a08 <__vector_8+0x2ac>
    4a06:	d3 ce       	rjmp	.-602    	; 0x47ae <__vector_8+0x52>
						{
							MesTimer[ loop_index ].ptrfct();
    4a08:	09 95       	icall
    4a0a:	d1 ce       	rjmp	.-606    	; 0x47ae <__vector_8+0x52>
						}
					}
					else
					{
						//on appelle la fonction
						if( MesTimer[ loop_index ].ptrfct != NULL )
    4a0c:	e0 91 c2 03 	lds	r30, 0x03C2
    4a10:	f0 91 c3 03 	lds	r31, 0x03C3
    4a14:	30 97       	sbiw	r30, 0x00	; 0
    4a16:	09 f4       	brne	.+2      	; 0x4a1a <__vector_8+0x2be>
    4a18:	c0 ce       	rjmp	.-640    	; 0x479a <__vector_8+0x3e>
						//on supprime le timer One Shot
						SrvTimerStopTimer( loop_index );
						//on appelle la fonction
						if( ptrfct != NULL )
						{
							ptrfct();
    4a1a:	09 95       	icall
    4a1c:	be ce       	rjmp	.-644    	; 0x479a <__vector_8+0x3e>
						}
					}
					else
					{
						//on appelle la fonction
						if( MesTimer[ loop_index ].ptrfct != NULL )
    4a1e:	e0 91 b9 03 	lds	r30, 0x03B9
    4a22:	f0 91 ba 03 	lds	r31, 0x03BA
    4a26:	30 97       	sbiw	r30, 0x00	; 0
    4a28:	09 f4       	brne	.+2      	; 0x4a2c <__vector_8+0x2d0>
    4a2a:	b2 ce       	rjmp	.-668    	; 0x4790 <__vector_8+0x34>
						//on supprime le timer One Shot
						SrvTimerStopTimer( loop_index );
						//on appelle la fonction
						if( ptrfct != NULL )
						{
							ptrfct();
    4a2c:	09 95       	icall
    4a2e:	b0 ce       	rjmp	.-672    	; 0x4790 <__vector_8+0x34>
						}
					}
					else
					{
						//on appelle la fonction
						if( MesTimer[ loop_index ].ptrfct != NULL )
    4a30:	e0 91 cb 03 	lds	r30, 0x03CB
    4a34:	f0 91 cc 03 	lds	r31, 0x03CC
    4a38:	30 97       	sbiw	r30, 0x00	; 0
    4a3a:	09 f4       	brne	.+2      	; 0x4a3e <__vector_8+0x2e2>
    4a3c:	b3 ce       	rjmp	.-666    	; 0x47a4 <__vector_8+0x48>
						//on supprime le timer One Shot
						SrvTimerStopTimer( loop_index );
						//on appelle la fonction
						if( ptrfct != NULL )
						{
							ptrfct();
    4a3e:	09 95       	icall
    4a40:	b1 ce       	rjmp	.-670    	; 0x47a4 <__vector_8+0x48>

00004a42 <__vector_7>:
		}			
	}
}	
//ISR timer event 100us
ISR(TIMER2_COMPA_vect)
{
    4a42:	1f 92       	push	r1
    4a44:	0f 92       	push	r0
    4a46:	0f b6       	in	r0, 0x3f	; 63
    4a48:	0f 92       	push	r0
    4a4a:	11 24       	eor	r1, r1
    4a4c:	2f 93       	push	r18
    4a4e:	3f 93       	push	r19
    4a50:	4f 93       	push	r20
    4a52:	5f 93       	push	r21
    4a54:	6f 93       	push	r22
    4a56:	7f 93       	push	r23
    4a58:	8f 93       	push	r24
    4a5a:	9f 93       	push	r25
    4a5c:	af 93       	push	r26
    4a5e:	bf 93       	push	r27
    4a60:	ef 93       	push	r30
    4a62:	ff 93       	push	r31
	OCR2A = TCNT2 + TIMER2_OFFSET_COMPA ;
    4a64:	80 91 b2 00 	lds	r24, 0x00B2
    4a68:	88 5e       	subi	r24, 0xE8	; 232
    4a6a:	80 93 b3 00 	sts	0x00B3, r24
	if(tick_counter_20ms++ == 199)
    4a6e:	80 91 8f 02 	lds	r24, 0x028F
    4a72:	90 91 90 02 	lds	r25, 0x0290
    4a76:	9c 01       	movw	r18, r24
    4a78:	2f 5f       	subi	r18, 0xFF	; 255
    4a7a:	3f 4f       	sbci	r19, 0xFF	; 255
    4a7c:	30 93 90 02 	sts	0x0290, r19
    4a80:	20 93 8f 02 	sts	0x028F, r18
    4a84:	87 3c       	cpi	r24, 0xC7	; 199
    4a86:	91 05       	cpc	r25, r1
    4a88:	89 f0       	breq	.+34     	; 0x4aac <__vector_7+0x6a>
					}
				}
			}
		}
	}
    4a8a:	ff 91       	pop	r31
    4a8c:	ef 91       	pop	r30
    4a8e:	bf 91       	pop	r27
    4a90:	af 91       	pop	r26
    4a92:	9f 91       	pop	r25
    4a94:	8f 91       	pop	r24
    4a96:	7f 91       	pop	r23
    4a98:	6f 91       	pop	r22
    4a9a:	5f 91       	pop	r21
    4a9c:	4f 91       	pop	r20
    4a9e:	3f 91       	pop	r19
    4aa0:	2f 91       	pop	r18
    4aa2:	0f 90       	pop	r0
    4aa4:	0f be       	out	0x3f, r0	; 63
    4aa6:	0f 90       	pop	r0
    4aa8:	1f 90       	pop	r1
    4aaa:	18 95       	reti
ISR(TIMER2_COMPA_vect)
{
	OCR2A = TCNT2 + TIMER2_OFFSET_COMPA ;
	if(tick_counter_20ms++ == 199)
	{
		tick_counter_20ms = 0;
    4aac:	10 92 90 02 	sts	0x0290, r1
    4ab0:	10 92 8f 02 	sts	0x028F, r1
		DrvEventAddEvent(CONF_EVENT_TIMER_20MS);
    4ab4:	81 e0       	ldi	r24, 0x01	; 1
    4ab6:	90 e0       	ldi	r25, 0x00	; 0
    4ab8:	0e 94 d0 08 	call	0x11a0	; 0x11a0 <DrvEventAddEvent>
		if(tick_counter_100ms++ == 4)
    4abc:	80 91 93 02 	lds	r24, 0x0293
    4ac0:	98 2f       	mov	r25, r24
    4ac2:	9f 5f       	subi	r25, 0xFF	; 255
    4ac4:	90 93 93 02 	sts	0x0293, r25
    4ac8:	84 30       	cpi	r24, 0x04	; 4
    4aca:	f9 f6       	brne	.-66     	; 0x4a8a <__vector_7+0x48>
		{
			tick_counter_100ms = 0;
    4acc:	10 92 93 02 	sts	0x0293, r1
			DrvEventAddEvent(CONF_EVENT_TIMER_100MS);
    4ad0:	82 e0       	ldi	r24, 0x02	; 2
    4ad2:	90 e0       	ldi	r25, 0x00	; 0
    4ad4:	0e 94 d0 08 	call	0x11a0	; 0x11a0 <DrvEventAddEvent>
			if(tick_counter_1s++ == 9)
    4ad8:	80 91 94 02 	lds	r24, 0x0294
    4adc:	98 2f       	mov	r25, r24
    4ade:	9f 5f       	subi	r25, 0xFF	; 255
    4ae0:	90 93 94 02 	sts	0x0294, r25
    4ae4:	89 30       	cpi	r24, 0x09	; 9
    4ae6:	89 f6       	brne	.-94     	; 0x4a8a <__vector_7+0x48>
			{
				tick_counter_1s = 0;
    4ae8:	10 92 94 02 	sts	0x0294, r1
				DrvEventAddEvent(CONF_EVENT_TIMER_1S);
    4aec:	84 e0       	ldi	r24, 0x04	; 4
    4aee:	90 e0       	ldi	r25, 0x00	; 0
    4af0:	0e 94 d0 08 	call	0x11a0	; 0x11a0 <DrvEventAddEvent>
				if(tick_counter_5s++ == 4)
    4af4:	80 91 95 02 	lds	r24, 0x0295
    4af8:	98 2f       	mov	r25, r24
    4afa:	9f 5f       	subi	r25, 0xFF	; 255
    4afc:	90 93 95 02 	sts	0x0295, r25
    4b00:	84 30       	cpi	r24, 0x04	; 4
    4b02:	19 f6       	brne	.-122    	; 0x4a8a <__vector_7+0x48>
				{
					tick_counter_5s = 0;
    4b04:	10 92 95 02 	sts	0x0295, r1
					DrvEventAddEvent(CONF_EVENT_TIMER_5S);
    4b08:	88 e0       	ldi	r24, 0x08	; 8
    4b0a:	90 e0       	ldi	r25, 0x00	; 0
    4b0c:	0e 94 d0 08 	call	0x11a0	; 0x11a0 <DrvEventAddEvent>
					if(tick_counter_10s++ == 1)
    4b10:	80 91 96 02 	lds	r24, 0x0296
    4b14:	98 2f       	mov	r25, r24
    4b16:	9f 5f       	subi	r25, 0xFF	; 255
    4b18:	90 93 96 02 	sts	0x0296, r25
    4b1c:	81 30       	cpi	r24, 0x01	; 1
    4b1e:	09 f0       	breq	.+2      	; 0x4b22 <__vector_7+0xe0>
    4b20:	b4 cf       	rjmp	.-152    	; 0x4a8a <__vector_7+0x48>
					{
						tick_counter_10s = 0;
    4b22:	10 92 96 02 	sts	0x0296, r1
						DrvEventAddEvent(CONF_EVENT_TIMER_10S);
    4b26:	80 e1       	ldi	r24, 0x10	; 16
    4b28:	90 e0       	ldi	r25, 0x00	; 0
    4b2a:	0e 94 d0 08 	call	0x11a0	; 0x11a0 <DrvEventAddEvent>
    4b2e:	ad cf       	rjmp	.-166    	; 0x4a8a <__vector_7+0x48>

00004b30 <__subsf3>:
    4b30:	50 58       	subi	r21, 0x80	; 128

00004b32 <__addsf3>:
    4b32:	bb 27       	eor	r27, r27
    4b34:	aa 27       	eor	r26, r26
    4b36:	0e d0       	rcall	.+28     	; 0x4b54 <__addsf3x>
    4b38:	27 c2       	rjmp	.+1102   	; 0x4f88 <__fp_round>
    4b3a:	f0 d1       	rcall	.+992    	; 0x4f1c <__fp_pscA>
    4b3c:	30 f0       	brcs	.+12     	; 0x4b4a <__addsf3+0x18>
    4b3e:	f5 d1       	rcall	.+1002   	; 0x4f2a <__fp_pscB>
    4b40:	20 f0       	brcs	.+8      	; 0x4b4a <__addsf3+0x18>
    4b42:	31 f4       	brne	.+12     	; 0x4b50 <__addsf3+0x1e>
    4b44:	9f 3f       	cpi	r25, 0xFF	; 255
    4b46:	11 f4       	brne	.+4      	; 0x4b4c <__addsf3+0x1a>
    4b48:	1e f4       	brtc	.+6      	; 0x4b50 <__addsf3+0x1e>
    4b4a:	c0 c1       	rjmp	.+896    	; 0x4ecc <__fp_nan>
    4b4c:	0e f4       	brtc	.+2      	; 0x4b50 <__addsf3+0x1e>
    4b4e:	e0 95       	com	r30
    4b50:	e7 fb       	bst	r30, 7
    4b52:	b6 c1       	rjmp	.+876    	; 0x4ec0 <__fp_inf>

00004b54 <__addsf3x>:
    4b54:	e9 2f       	mov	r30, r25
    4b56:	3a d2       	rcall	.+1140   	; 0x4fcc <__fp_split3>
    4b58:	80 f3       	brcs	.-32     	; 0x4b3a <__addsf3+0x8>
    4b5a:	ba 17       	cp	r27, r26
    4b5c:	62 07       	cpc	r22, r18
    4b5e:	73 07       	cpc	r23, r19
    4b60:	84 07       	cpc	r24, r20
    4b62:	95 07       	cpc	r25, r21
    4b64:	18 f0       	brcs	.+6      	; 0x4b6c <__addsf3x+0x18>
    4b66:	71 f4       	brne	.+28     	; 0x4b84 <__addsf3x+0x30>
    4b68:	9e f5       	brtc	.+102    	; 0x4bd0 <__addsf3x+0x7c>
    4b6a:	52 c2       	rjmp	.+1188   	; 0x5010 <__fp_zero>
    4b6c:	0e f4       	brtc	.+2      	; 0x4b70 <__addsf3x+0x1c>
    4b6e:	e0 95       	com	r30
    4b70:	0b 2e       	mov	r0, r27
    4b72:	ba 2f       	mov	r27, r26
    4b74:	a0 2d       	mov	r26, r0
    4b76:	0b 01       	movw	r0, r22
    4b78:	b9 01       	movw	r22, r18
    4b7a:	90 01       	movw	r18, r0
    4b7c:	0c 01       	movw	r0, r24
    4b7e:	ca 01       	movw	r24, r20
    4b80:	a0 01       	movw	r20, r0
    4b82:	11 24       	eor	r1, r1
    4b84:	ff 27       	eor	r31, r31
    4b86:	59 1b       	sub	r21, r25
    4b88:	99 f0       	breq	.+38     	; 0x4bb0 <__addsf3x+0x5c>
    4b8a:	59 3f       	cpi	r21, 0xF9	; 249
    4b8c:	50 f4       	brcc	.+20     	; 0x4ba2 <__addsf3x+0x4e>
    4b8e:	50 3e       	cpi	r21, 0xE0	; 224
    4b90:	68 f1       	brcs	.+90     	; 0x4bec <__addsf3x+0x98>
    4b92:	1a 16       	cp	r1, r26
    4b94:	f0 40       	sbci	r31, 0x00	; 0
    4b96:	a2 2f       	mov	r26, r18
    4b98:	23 2f       	mov	r18, r19
    4b9a:	34 2f       	mov	r19, r20
    4b9c:	44 27       	eor	r20, r20
    4b9e:	58 5f       	subi	r21, 0xF8	; 248
    4ba0:	f3 cf       	rjmp	.-26     	; 0x4b88 <__addsf3x+0x34>
    4ba2:	46 95       	lsr	r20
    4ba4:	37 95       	ror	r19
    4ba6:	27 95       	ror	r18
    4ba8:	a7 95       	ror	r26
    4baa:	f0 40       	sbci	r31, 0x00	; 0
    4bac:	53 95       	inc	r21
    4bae:	c9 f7       	brne	.-14     	; 0x4ba2 <__addsf3x+0x4e>
    4bb0:	7e f4       	brtc	.+30     	; 0x4bd0 <__addsf3x+0x7c>
    4bb2:	1f 16       	cp	r1, r31
    4bb4:	ba 0b       	sbc	r27, r26
    4bb6:	62 0b       	sbc	r22, r18
    4bb8:	73 0b       	sbc	r23, r19
    4bba:	84 0b       	sbc	r24, r20
    4bbc:	ba f0       	brmi	.+46     	; 0x4bec <__addsf3x+0x98>
    4bbe:	91 50       	subi	r25, 0x01	; 1
    4bc0:	a1 f0       	breq	.+40     	; 0x4bea <__addsf3x+0x96>
    4bc2:	ff 0f       	add	r31, r31
    4bc4:	bb 1f       	adc	r27, r27
    4bc6:	66 1f       	adc	r22, r22
    4bc8:	77 1f       	adc	r23, r23
    4bca:	88 1f       	adc	r24, r24
    4bcc:	c2 f7       	brpl	.-16     	; 0x4bbe <__addsf3x+0x6a>
    4bce:	0e c0       	rjmp	.+28     	; 0x4bec <__addsf3x+0x98>
    4bd0:	ba 0f       	add	r27, r26
    4bd2:	62 1f       	adc	r22, r18
    4bd4:	73 1f       	adc	r23, r19
    4bd6:	84 1f       	adc	r24, r20
    4bd8:	48 f4       	brcc	.+18     	; 0x4bec <__addsf3x+0x98>
    4bda:	87 95       	ror	r24
    4bdc:	77 95       	ror	r23
    4bde:	67 95       	ror	r22
    4be0:	b7 95       	ror	r27
    4be2:	f7 95       	ror	r31
    4be4:	9e 3f       	cpi	r25, 0xFE	; 254
    4be6:	08 f0       	brcs	.+2      	; 0x4bea <__addsf3x+0x96>
    4be8:	b3 cf       	rjmp	.-154    	; 0x4b50 <__addsf3+0x1e>
    4bea:	93 95       	inc	r25
    4bec:	88 0f       	add	r24, r24
    4bee:	08 f0       	brcs	.+2      	; 0x4bf2 <__addsf3x+0x9e>
    4bf0:	99 27       	eor	r25, r25
    4bf2:	ee 0f       	add	r30, r30
    4bf4:	97 95       	ror	r25
    4bf6:	87 95       	ror	r24
    4bf8:	08 95       	ret
    4bfa:	90 d1       	rcall	.+800    	; 0x4f1c <__fp_pscA>
    4bfc:	58 f0       	brcs	.+22     	; 0x4c14 <__addsf3x+0xc0>
    4bfe:	80 e8       	ldi	r24, 0x80	; 128
    4c00:	91 e0       	ldi	r25, 0x01	; 1
    4c02:	09 f4       	brne	.+2      	; 0x4c06 <__addsf3x+0xb2>
    4c04:	9e ef       	ldi	r25, 0xFE	; 254
    4c06:	91 d1       	rcall	.+802    	; 0x4f2a <__fp_pscB>
    4c08:	28 f0       	brcs	.+10     	; 0x4c14 <__addsf3x+0xc0>
    4c0a:	40 e8       	ldi	r20, 0x80	; 128
    4c0c:	51 e0       	ldi	r21, 0x01	; 1
    4c0e:	59 f4       	brne	.+22     	; 0x4c26 <atan2+0xe>
    4c10:	5e ef       	ldi	r21, 0xFE	; 254
    4c12:	09 c0       	rjmp	.+18     	; 0x4c26 <atan2+0xe>
    4c14:	5b c1       	rjmp	.+694    	; 0x4ecc <__fp_nan>
    4c16:	fc c1       	rjmp	.+1016   	; 0x5010 <__fp_zero>

00004c18 <atan2>:
    4c18:	e9 2f       	mov	r30, r25
    4c1a:	e0 78       	andi	r30, 0x80	; 128
    4c1c:	d7 d1       	rcall	.+942    	; 0x4fcc <__fp_split3>
    4c1e:	68 f3       	brcs	.-38     	; 0x4bfa <__addsf3x+0xa6>
    4c20:	09 2e       	mov	r0, r25
    4c22:	05 2a       	or	r0, r21
    4c24:	c1 f3       	breq	.-16     	; 0x4c16 <__addsf3x+0xc2>
    4c26:	26 17       	cp	r18, r22
    4c28:	37 07       	cpc	r19, r23
    4c2a:	48 07       	cpc	r20, r24
    4c2c:	59 07       	cpc	r21, r25
    4c2e:	38 f0       	brcs	.+14     	; 0x4c3e <atan2+0x26>
    4c30:	0e 2e       	mov	r0, r30
    4c32:	07 f8       	bld	r0, 7
    4c34:	e0 25       	eor	r30, r0
    4c36:	69 f0       	breq	.+26     	; 0x4c52 <atan2+0x3a>
    4c38:	e0 25       	eor	r30, r0
    4c3a:	e0 64       	ori	r30, 0x40	; 64
    4c3c:	0a c0       	rjmp	.+20     	; 0x4c52 <atan2+0x3a>
    4c3e:	ef 63       	ori	r30, 0x3F	; 63
    4c40:	07 f8       	bld	r0, 7
    4c42:	00 94       	com	r0
    4c44:	07 fa       	bst	r0, 7
    4c46:	db 01       	movw	r26, r22
    4c48:	b9 01       	movw	r22, r18
    4c4a:	9d 01       	movw	r18, r26
    4c4c:	dc 01       	movw	r26, r24
    4c4e:	ca 01       	movw	r24, r20
    4c50:	ad 01       	movw	r20, r26
    4c52:	ef 93       	push	r30
    4c54:	4a d0       	rcall	.+148    	; 0x4cea <__divsf3_pse>
    4c56:	98 d1       	rcall	.+816    	; 0x4f88 <__fp_round>
    4c58:	0a d0       	rcall	.+20     	; 0x4c6e <atan>
    4c5a:	5f 91       	pop	r21
    4c5c:	55 23       	and	r21, r21
    4c5e:	31 f0       	breq	.+12     	; 0x4c6c <atan2+0x54>
    4c60:	2b ed       	ldi	r18, 0xDB	; 219
    4c62:	3f e0       	ldi	r19, 0x0F	; 15
    4c64:	49 e4       	ldi	r20, 0x49	; 73
    4c66:	50 fd       	sbrc	r21, 0
    4c68:	49 ec       	ldi	r20, 0xC9	; 201
    4c6a:	63 cf       	rjmp	.-314    	; 0x4b32 <__addsf3>
    4c6c:	08 95       	ret

00004c6e <atan>:
    4c6e:	df 93       	push	r29
    4c70:	dd 27       	eor	r29, r29
    4c72:	b9 2f       	mov	r27, r25
    4c74:	bf 77       	andi	r27, 0x7F	; 127
    4c76:	40 e8       	ldi	r20, 0x80	; 128
    4c78:	5f e3       	ldi	r21, 0x3F	; 63
    4c7a:	16 16       	cp	r1, r22
    4c7c:	17 06       	cpc	r1, r23
    4c7e:	48 07       	cpc	r20, r24
    4c80:	5b 07       	cpc	r21, r27
    4c82:	10 f4       	brcc	.+4      	; 0x4c88 <atan+0x1a>
    4c84:	d9 2f       	mov	r29, r25
    4c86:	cf d1       	rcall	.+926    	; 0x5026 <inverse>
    4c88:	9f 93       	push	r25
    4c8a:	8f 93       	push	r24
    4c8c:	7f 93       	push	r23
    4c8e:	6f 93       	push	r22
    4c90:	c8 d2       	rcall	.+1424   	; 0x5222 <square>
    4c92:	e8 e6       	ldi	r30, 0x68	; 104
    4c94:	f0 e0       	ldi	r31, 0x00	; 0
    4c96:	1d d1       	rcall	.+570    	; 0x4ed2 <__fp_powser>
    4c98:	77 d1       	rcall	.+750    	; 0x4f88 <__fp_round>
    4c9a:	2f 91       	pop	r18
    4c9c:	3f 91       	pop	r19
    4c9e:	4f 91       	pop	r20
    4ca0:	5f 91       	pop	r21
    4ca2:	d4 d1       	rcall	.+936    	; 0x504c <__mulsf3x>
    4ca4:	dd 23       	and	r29, r29
    4ca6:	49 f0       	breq	.+18     	; 0x4cba <atan+0x4c>
    4ca8:	90 58       	subi	r25, 0x80	; 128
    4caa:	a2 ea       	ldi	r26, 0xA2	; 162
    4cac:	2a ed       	ldi	r18, 0xDA	; 218
    4cae:	3f e0       	ldi	r19, 0x0F	; 15
    4cb0:	49 ec       	ldi	r20, 0xC9	; 201
    4cb2:	5f e3       	ldi	r21, 0x3F	; 63
    4cb4:	d0 78       	andi	r29, 0x80	; 128
    4cb6:	5d 27       	eor	r21, r29
    4cb8:	4d df       	rcall	.-358    	; 0x4b54 <__addsf3x>
    4cba:	df 91       	pop	r29
    4cbc:	65 c1       	rjmp	.+714    	; 0x4f88 <__fp_round>

00004cbe <__cmpsf2>:
    4cbe:	dc d0       	rcall	.+440    	; 0x4e78 <__fp_cmp>
    4cc0:	08 f4       	brcc	.+2      	; 0x4cc4 <__cmpsf2+0x6>
    4cc2:	81 e0       	ldi	r24, 0x01	; 1
    4cc4:	08 95       	ret

00004cc6 <cos>:
    4cc6:	39 d1       	rcall	.+626    	; 0x4f3a <__fp_rempio2>
    4cc8:	e3 95       	inc	r30
    4cca:	6f c1       	rjmp	.+734    	; 0x4faa <__fp_sinus>

00004ccc <__divsf3>:
    4ccc:	0c d0       	rcall	.+24     	; 0x4ce6 <__divsf3x>
    4cce:	5c c1       	rjmp	.+696    	; 0x4f88 <__fp_round>
    4cd0:	2c d1       	rcall	.+600    	; 0x4f2a <__fp_pscB>
    4cd2:	40 f0       	brcs	.+16     	; 0x4ce4 <__divsf3+0x18>
    4cd4:	23 d1       	rcall	.+582    	; 0x4f1c <__fp_pscA>
    4cd6:	30 f0       	brcs	.+12     	; 0x4ce4 <__divsf3+0x18>
    4cd8:	21 f4       	brne	.+8      	; 0x4ce2 <__divsf3+0x16>
    4cda:	5f 3f       	cpi	r21, 0xFF	; 255
    4cdc:	19 f0       	breq	.+6      	; 0x4ce4 <__divsf3+0x18>
    4cde:	f0 c0       	rjmp	.+480    	; 0x4ec0 <__fp_inf>
    4ce0:	51 11       	cpse	r21, r1
    4ce2:	97 c1       	rjmp	.+814    	; 0x5012 <__fp_szero>
    4ce4:	f3 c0       	rjmp	.+486    	; 0x4ecc <__fp_nan>

00004ce6 <__divsf3x>:
    4ce6:	72 d1       	rcall	.+740    	; 0x4fcc <__fp_split3>
    4ce8:	98 f3       	brcs	.-26     	; 0x4cd0 <__divsf3+0x4>

00004cea <__divsf3_pse>:
    4cea:	99 23       	and	r25, r25
    4cec:	c9 f3       	breq	.-14     	; 0x4ce0 <__divsf3+0x14>
    4cee:	55 23       	and	r21, r21
    4cf0:	b1 f3       	breq	.-20     	; 0x4cde <__divsf3+0x12>
    4cf2:	95 1b       	sub	r25, r21
    4cf4:	55 0b       	sbc	r21, r21
    4cf6:	bb 27       	eor	r27, r27
    4cf8:	aa 27       	eor	r26, r26
    4cfa:	62 17       	cp	r22, r18
    4cfc:	73 07       	cpc	r23, r19
    4cfe:	84 07       	cpc	r24, r20
    4d00:	38 f0       	brcs	.+14     	; 0x4d10 <__divsf3_pse+0x26>
    4d02:	9f 5f       	subi	r25, 0xFF	; 255
    4d04:	5f 4f       	sbci	r21, 0xFF	; 255
    4d06:	22 0f       	add	r18, r18
    4d08:	33 1f       	adc	r19, r19
    4d0a:	44 1f       	adc	r20, r20
    4d0c:	aa 1f       	adc	r26, r26
    4d0e:	a9 f3       	breq	.-22     	; 0x4cfa <__divsf3_pse+0x10>
    4d10:	33 d0       	rcall	.+102    	; 0x4d78 <__divsf3_pse+0x8e>
    4d12:	0e 2e       	mov	r0, r30
    4d14:	3a f0       	brmi	.+14     	; 0x4d24 <__divsf3_pse+0x3a>
    4d16:	e0 e8       	ldi	r30, 0x80	; 128
    4d18:	30 d0       	rcall	.+96     	; 0x4d7a <__divsf3_pse+0x90>
    4d1a:	91 50       	subi	r25, 0x01	; 1
    4d1c:	50 40       	sbci	r21, 0x00	; 0
    4d1e:	e6 95       	lsr	r30
    4d20:	00 1c       	adc	r0, r0
    4d22:	ca f7       	brpl	.-14     	; 0x4d16 <__divsf3_pse+0x2c>
    4d24:	29 d0       	rcall	.+82     	; 0x4d78 <__divsf3_pse+0x8e>
    4d26:	fe 2f       	mov	r31, r30
    4d28:	27 d0       	rcall	.+78     	; 0x4d78 <__divsf3_pse+0x8e>
    4d2a:	66 0f       	add	r22, r22
    4d2c:	77 1f       	adc	r23, r23
    4d2e:	88 1f       	adc	r24, r24
    4d30:	bb 1f       	adc	r27, r27
    4d32:	26 17       	cp	r18, r22
    4d34:	37 07       	cpc	r19, r23
    4d36:	48 07       	cpc	r20, r24
    4d38:	ab 07       	cpc	r26, r27
    4d3a:	b0 e8       	ldi	r27, 0x80	; 128
    4d3c:	09 f0       	breq	.+2      	; 0x4d40 <__divsf3_pse+0x56>
    4d3e:	bb 0b       	sbc	r27, r27
    4d40:	80 2d       	mov	r24, r0
    4d42:	bf 01       	movw	r22, r30
    4d44:	ff 27       	eor	r31, r31
    4d46:	93 58       	subi	r25, 0x83	; 131
    4d48:	5f 4f       	sbci	r21, 0xFF	; 255
    4d4a:	2a f0       	brmi	.+10     	; 0x4d56 <__divsf3_pse+0x6c>
    4d4c:	9e 3f       	cpi	r25, 0xFE	; 254
    4d4e:	51 05       	cpc	r21, r1
    4d50:	68 f0       	brcs	.+26     	; 0x4d6c <__divsf3_pse+0x82>
    4d52:	b6 c0       	rjmp	.+364    	; 0x4ec0 <__fp_inf>
    4d54:	5e c1       	rjmp	.+700    	; 0x5012 <__fp_szero>
    4d56:	5f 3f       	cpi	r21, 0xFF	; 255
    4d58:	ec f3       	brlt	.-6      	; 0x4d54 <__divsf3_pse+0x6a>
    4d5a:	98 3e       	cpi	r25, 0xE8	; 232
    4d5c:	dc f3       	brlt	.-10     	; 0x4d54 <__divsf3_pse+0x6a>
    4d5e:	86 95       	lsr	r24
    4d60:	77 95       	ror	r23
    4d62:	67 95       	ror	r22
    4d64:	b7 95       	ror	r27
    4d66:	f7 95       	ror	r31
    4d68:	9f 5f       	subi	r25, 0xFF	; 255
    4d6a:	c9 f7       	brne	.-14     	; 0x4d5e <__divsf3_pse+0x74>
    4d6c:	88 0f       	add	r24, r24
    4d6e:	91 1d       	adc	r25, r1
    4d70:	96 95       	lsr	r25
    4d72:	87 95       	ror	r24
    4d74:	97 f9       	bld	r25, 7
    4d76:	08 95       	ret
    4d78:	e1 e0       	ldi	r30, 0x01	; 1
    4d7a:	66 0f       	add	r22, r22
    4d7c:	77 1f       	adc	r23, r23
    4d7e:	88 1f       	adc	r24, r24
    4d80:	bb 1f       	adc	r27, r27
    4d82:	62 17       	cp	r22, r18
    4d84:	73 07       	cpc	r23, r19
    4d86:	84 07       	cpc	r24, r20
    4d88:	ba 07       	cpc	r27, r26
    4d8a:	20 f0       	brcs	.+8      	; 0x4d94 <__divsf3_pse+0xaa>
    4d8c:	62 1b       	sub	r22, r18
    4d8e:	73 0b       	sbc	r23, r19
    4d90:	84 0b       	sbc	r24, r20
    4d92:	ba 0b       	sbc	r27, r26
    4d94:	ee 1f       	adc	r30, r30
    4d96:	88 f7       	brcc	.-30     	; 0x4d7a <__divsf3_pse+0x90>
    4d98:	e0 95       	com	r30
    4d9a:	08 95       	ret

00004d9c <__fixsfsi>:
    4d9c:	04 d0       	rcall	.+8      	; 0x4da6 <__fixunssfsi>
    4d9e:	68 94       	set
    4da0:	b1 11       	cpse	r27, r1
    4da2:	37 c1       	rjmp	.+622    	; 0x5012 <__fp_szero>
    4da4:	08 95       	ret

00004da6 <__fixunssfsi>:
    4da6:	1a d1       	rcall	.+564    	; 0x4fdc <__fp_splitA>
    4da8:	88 f0       	brcs	.+34     	; 0x4dcc <__fixunssfsi+0x26>
    4daa:	9f 57       	subi	r25, 0x7F	; 127
    4dac:	90 f0       	brcs	.+36     	; 0x4dd2 <__fixunssfsi+0x2c>
    4dae:	b9 2f       	mov	r27, r25
    4db0:	99 27       	eor	r25, r25
    4db2:	b7 51       	subi	r27, 0x17	; 23
    4db4:	a0 f0       	brcs	.+40     	; 0x4dde <__fixunssfsi+0x38>
    4db6:	d1 f0       	breq	.+52     	; 0x4dec <__fixunssfsi+0x46>
    4db8:	66 0f       	add	r22, r22
    4dba:	77 1f       	adc	r23, r23
    4dbc:	88 1f       	adc	r24, r24
    4dbe:	99 1f       	adc	r25, r25
    4dc0:	1a f0       	brmi	.+6      	; 0x4dc8 <__fixunssfsi+0x22>
    4dc2:	ba 95       	dec	r27
    4dc4:	c9 f7       	brne	.-14     	; 0x4db8 <__fixunssfsi+0x12>
    4dc6:	12 c0       	rjmp	.+36     	; 0x4dec <__fixunssfsi+0x46>
    4dc8:	b1 30       	cpi	r27, 0x01	; 1
    4dca:	81 f0       	breq	.+32     	; 0x4dec <__fixunssfsi+0x46>
    4dcc:	21 d1       	rcall	.+578    	; 0x5010 <__fp_zero>
    4dce:	b1 e0       	ldi	r27, 0x01	; 1
    4dd0:	08 95       	ret
    4dd2:	1e c1       	rjmp	.+572    	; 0x5010 <__fp_zero>
    4dd4:	67 2f       	mov	r22, r23
    4dd6:	78 2f       	mov	r23, r24
    4dd8:	88 27       	eor	r24, r24
    4dda:	b8 5f       	subi	r27, 0xF8	; 248
    4ddc:	39 f0       	breq	.+14     	; 0x4dec <__fixunssfsi+0x46>
    4dde:	b9 3f       	cpi	r27, 0xF9	; 249
    4de0:	cc f3       	brlt	.-14     	; 0x4dd4 <__fixunssfsi+0x2e>
    4de2:	86 95       	lsr	r24
    4de4:	77 95       	ror	r23
    4de6:	67 95       	ror	r22
    4de8:	b3 95       	inc	r27
    4dea:	d9 f7       	brne	.-10     	; 0x4de2 <__fixunssfsi+0x3c>
    4dec:	3e f4       	brtc	.+14     	; 0x4dfc <__fixunssfsi+0x56>
    4dee:	90 95       	com	r25
    4df0:	80 95       	com	r24
    4df2:	70 95       	com	r23
    4df4:	61 95       	neg	r22
    4df6:	7f 4f       	sbci	r23, 0xFF	; 255
    4df8:	8f 4f       	sbci	r24, 0xFF	; 255
    4dfa:	9f 4f       	sbci	r25, 0xFF	; 255
    4dfc:	08 95       	ret

00004dfe <__floatunsisf>:
    4dfe:	e8 94       	clt
    4e00:	09 c0       	rjmp	.+18     	; 0x4e14 <__floatsisf+0x12>

00004e02 <__floatsisf>:
    4e02:	97 fb       	bst	r25, 7
    4e04:	3e f4       	brtc	.+14     	; 0x4e14 <__floatsisf+0x12>
    4e06:	90 95       	com	r25
    4e08:	80 95       	com	r24
    4e0a:	70 95       	com	r23
    4e0c:	61 95       	neg	r22
    4e0e:	7f 4f       	sbci	r23, 0xFF	; 255
    4e10:	8f 4f       	sbci	r24, 0xFF	; 255
    4e12:	9f 4f       	sbci	r25, 0xFF	; 255
    4e14:	99 23       	and	r25, r25
    4e16:	a9 f0       	breq	.+42     	; 0x4e42 <__floatsisf+0x40>
    4e18:	f9 2f       	mov	r31, r25
    4e1a:	96 e9       	ldi	r25, 0x96	; 150
    4e1c:	bb 27       	eor	r27, r27
    4e1e:	93 95       	inc	r25
    4e20:	f6 95       	lsr	r31
    4e22:	87 95       	ror	r24
    4e24:	77 95       	ror	r23
    4e26:	67 95       	ror	r22
    4e28:	b7 95       	ror	r27
    4e2a:	f1 11       	cpse	r31, r1
    4e2c:	f8 cf       	rjmp	.-16     	; 0x4e1e <__floatsisf+0x1c>
    4e2e:	fa f4       	brpl	.+62     	; 0x4e6e <__floatsisf+0x6c>
    4e30:	bb 0f       	add	r27, r27
    4e32:	11 f4       	brne	.+4      	; 0x4e38 <__floatsisf+0x36>
    4e34:	60 ff       	sbrs	r22, 0
    4e36:	1b c0       	rjmp	.+54     	; 0x4e6e <__floatsisf+0x6c>
    4e38:	6f 5f       	subi	r22, 0xFF	; 255
    4e3a:	7f 4f       	sbci	r23, 0xFF	; 255
    4e3c:	8f 4f       	sbci	r24, 0xFF	; 255
    4e3e:	9f 4f       	sbci	r25, 0xFF	; 255
    4e40:	16 c0       	rjmp	.+44     	; 0x4e6e <__floatsisf+0x6c>
    4e42:	88 23       	and	r24, r24
    4e44:	11 f0       	breq	.+4      	; 0x4e4a <__floatsisf+0x48>
    4e46:	96 e9       	ldi	r25, 0x96	; 150
    4e48:	11 c0       	rjmp	.+34     	; 0x4e6c <__floatsisf+0x6a>
    4e4a:	77 23       	and	r23, r23
    4e4c:	21 f0       	breq	.+8      	; 0x4e56 <__floatsisf+0x54>
    4e4e:	9e e8       	ldi	r25, 0x8E	; 142
    4e50:	87 2f       	mov	r24, r23
    4e52:	76 2f       	mov	r23, r22
    4e54:	05 c0       	rjmp	.+10     	; 0x4e60 <__floatsisf+0x5e>
    4e56:	66 23       	and	r22, r22
    4e58:	71 f0       	breq	.+28     	; 0x4e76 <__floatsisf+0x74>
    4e5a:	96 e8       	ldi	r25, 0x86	; 134
    4e5c:	86 2f       	mov	r24, r22
    4e5e:	70 e0       	ldi	r23, 0x00	; 0
    4e60:	60 e0       	ldi	r22, 0x00	; 0
    4e62:	2a f0       	brmi	.+10     	; 0x4e6e <__floatsisf+0x6c>
    4e64:	9a 95       	dec	r25
    4e66:	66 0f       	add	r22, r22
    4e68:	77 1f       	adc	r23, r23
    4e6a:	88 1f       	adc	r24, r24
    4e6c:	da f7       	brpl	.-10     	; 0x4e64 <__floatsisf+0x62>
    4e6e:	88 0f       	add	r24, r24
    4e70:	96 95       	lsr	r25
    4e72:	87 95       	ror	r24
    4e74:	97 f9       	bld	r25, 7
    4e76:	08 95       	ret

00004e78 <__fp_cmp>:
    4e78:	99 0f       	add	r25, r25
    4e7a:	00 08       	sbc	r0, r0
    4e7c:	55 0f       	add	r21, r21
    4e7e:	aa 0b       	sbc	r26, r26
    4e80:	e0 e8       	ldi	r30, 0x80	; 128
    4e82:	fe ef       	ldi	r31, 0xFE	; 254
    4e84:	16 16       	cp	r1, r22
    4e86:	17 06       	cpc	r1, r23
    4e88:	e8 07       	cpc	r30, r24
    4e8a:	f9 07       	cpc	r31, r25
    4e8c:	c0 f0       	brcs	.+48     	; 0x4ebe <__fp_cmp+0x46>
    4e8e:	12 16       	cp	r1, r18
    4e90:	13 06       	cpc	r1, r19
    4e92:	e4 07       	cpc	r30, r20
    4e94:	f5 07       	cpc	r31, r21
    4e96:	98 f0       	brcs	.+38     	; 0x4ebe <__fp_cmp+0x46>
    4e98:	62 1b       	sub	r22, r18
    4e9a:	73 0b       	sbc	r23, r19
    4e9c:	84 0b       	sbc	r24, r20
    4e9e:	95 0b       	sbc	r25, r21
    4ea0:	39 f4       	brne	.+14     	; 0x4eb0 <__fp_cmp+0x38>
    4ea2:	0a 26       	eor	r0, r26
    4ea4:	61 f0       	breq	.+24     	; 0x4ebe <__fp_cmp+0x46>
    4ea6:	23 2b       	or	r18, r19
    4ea8:	24 2b       	or	r18, r20
    4eaa:	25 2b       	or	r18, r21
    4eac:	21 f4       	brne	.+8      	; 0x4eb6 <__fp_cmp+0x3e>
    4eae:	08 95       	ret
    4eb0:	0a 26       	eor	r0, r26
    4eb2:	09 f4       	brne	.+2      	; 0x4eb6 <__fp_cmp+0x3e>
    4eb4:	a1 40       	sbci	r26, 0x01	; 1
    4eb6:	a6 95       	lsr	r26
    4eb8:	8f ef       	ldi	r24, 0xFF	; 255
    4eba:	81 1d       	adc	r24, r1
    4ebc:	81 1d       	adc	r24, r1
    4ebe:	08 95       	ret

00004ec0 <__fp_inf>:
    4ec0:	97 f9       	bld	r25, 7
    4ec2:	9f 67       	ori	r25, 0x7F	; 127
    4ec4:	80 e8       	ldi	r24, 0x80	; 128
    4ec6:	70 e0       	ldi	r23, 0x00	; 0
    4ec8:	60 e0       	ldi	r22, 0x00	; 0
    4eca:	08 95       	ret

00004ecc <__fp_nan>:
    4ecc:	9f ef       	ldi	r25, 0xFF	; 255
    4ece:	80 ec       	ldi	r24, 0xC0	; 192
    4ed0:	08 95       	ret

00004ed2 <__fp_powser>:
    4ed2:	df 93       	push	r29
    4ed4:	cf 93       	push	r28
    4ed6:	1f 93       	push	r17
    4ed8:	0f 93       	push	r16
    4eda:	ff 92       	push	r15
    4edc:	ef 92       	push	r14
    4ede:	df 92       	push	r13
    4ee0:	7b 01       	movw	r14, r22
    4ee2:	8c 01       	movw	r16, r24
    4ee4:	68 94       	set
    4ee6:	05 c0       	rjmp	.+10     	; 0x4ef2 <__fp_powser+0x20>
    4ee8:	da 2e       	mov	r13, r26
    4eea:	ef 01       	movw	r28, r30
    4eec:	af d0       	rcall	.+350    	; 0x504c <__mulsf3x>
    4eee:	fe 01       	movw	r30, r28
    4ef0:	e8 94       	clt
    4ef2:	a5 91       	lpm	r26, Z+
    4ef4:	25 91       	lpm	r18, Z+
    4ef6:	35 91       	lpm	r19, Z+
    4ef8:	45 91       	lpm	r20, Z+
    4efa:	55 91       	lpm	r21, Z+
    4efc:	ae f3       	brts	.-22     	; 0x4ee8 <__fp_powser+0x16>
    4efe:	ef 01       	movw	r28, r30
    4f00:	29 de       	rcall	.-942    	; 0x4b54 <__addsf3x>
    4f02:	fe 01       	movw	r30, r28
    4f04:	97 01       	movw	r18, r14
    4f06:	a8 01       	movw	r20, r16
    4f08:	da 94       	dec	r13
    4f0a:	79 f7       	brne	.-34     	; 0x4eea <__fp_powser+0x18>
    4f0c:	df 90       	pop	r13
    4f0e:	ef 90       	pop	r14
    4f10:	ff 90       	pop	r15
    4f12:	0f 91       	pop	r16
    4f14:	1f 91       	pop	r17
    4f16:	cf 91       	pop	r28
    4f18:	df 91       	pop	r29
    4f1a:	08 95       	ret

00004f1c <__fp_pscA>:
    4f1c:	00 24       	eor	r0, r0
    4f1e:	0a 94       	dec	r0
    4f20:	16 16       	cp	r1, r22
    4f22:	17 06       	cpc	r1, r23
    4f24:	18 06       	cpc	r1, r24
    4f26:	09 06       	cpc	r0, r25
    4f28:	08 95       	ret

00004f2a <__fp_pscB>:
    4f2a:	00 24       	eor	r0, r0
    4f2c:	0a 94       	dec	r0
    4f2e:	12 16       	cp	r1, r18
    4f30:	13 06       	cpc	r1, r19
    4f32:	14 06       	cpc	r1, r20
    4f34:	05 06       	cpc	r0, r21
    4f36:	08 95       	ret
    4f38:	c9 cf       	rjmp	.-110    	; 0x4ecc <__fp_nan>

00004f3a <__fp_rempio2>:
    4f3a:	50 d0       	rcall	.+160    	; 0x4fdc <__fp_splitA>
    4f3c:	e8 f3       	brcs	.-6      	; 0x4f38 <__fp_pscB+0xe>
    4f3e:	e8 94       	clt
    4f40:	e0 e0       	ldi	r30, 0x00	; 0
    4f42:	bb 27       	eor	r27, r27
    4f44:	9f 57       	subi	r25, 0x7F	; 127
    4f46:	f0 f0       	brcs	.+60     	; 0x4f84 <__fp_rempio2+0x4a>
    4f48:	2a ed       	ldi	r18, 0xDA	; 218
    4f4a:	3f e0       	ldi	r19, 0x0F	; 15
    4f4c:	49 ec       	ldi	r20, 0xC9	; 201
    4f4e:	06 c0       	rjmp	.+12     	; 0x4f5c <__fp_rempio2+0x22>
    4f50:	ee 0f       	add	r30, r30
    4f52:	bb 0f       	add	r27, r27
    4f54:	66 1f       	adc	r22, r22
    4f56:	77 1f       	adc	r23, r23
    4f58:	88 1f       	adc	r24, r24
    4f5a:	28 f0       	brcs	.+10     	; 0x4f66 <__fp_rempio2+0x2c>
    4f5c:	b2 3a       	cpi	r27, 0xA2	; 162
    4f5e:	62 07       	cpc	r22, r18
    4f60:	73 07       	cpc	r23, r19
    4f62:	84 07       	cpc	r24, r20
    4f64:	28 f0       	brcs	.+10     	; 0x4f70 <__fp_rempio2+0x36>
    4f66:	b2 5a       	subi	r27, 0xA2	; 162
    4f68:	62 0b       	sbc	r22, r18
    4f6a:	73 0b       	sbc	r23, r19
    4f6c:	84 0b       	sbc	r24, r20
    4f6e:	e3 95       	inc	r30
    4f70:	9a 95       	dec	r25
    4f72:	72 f7       	brpl	.-36     	; 0x4f50 <__fp_rempio2+0x16>
    4f74:	80 38       	cpi	r24, 0x80	; 128
    4f76:	30 f4       	brcc	.+12     	; 0x4f84 <__fp_rempio2+0x4a>
    4f78:	9a 95       	dec	r25
    4f7a:	bb 0f       	add	r27, r27
    4f7c:	66 1f       	adc	r22, r22
    4f7e:	77 1f       	adc	r23, r23
    4f80:	88 1f       	adc	r24, r24
    4f82:	d2 f7       	brpl	.-12     	; 0x4f78 <__fp_rempio2+0x3e>
    4f84:	90 48       	sbci	r25, 0x80	; 128
    4f86:	83 c1       	rjmp	.+774    	; 0x528e <__fp_mpack_finite>

00004f88 <__fp_round>:
    4f88:	09 2e       	mov	r0, r25
    4f8a:	03 94       	inc	r0
    4f8c:	00 0c       	add	r0, r0
    4f8e:	11 f4       	brne	.+4      	; 0x4f94 <__fp_round+0xc>
    4f90:	88 23       	and	r24, r24
    4f92:	52 f0       	brmi	.+20     	; 0x4fa8 <__fp_round+0x20>
    4f94:	bb 0f       	add	r27, r27
    4f96:	40 f4       	brcc	.+16     	; 0x4fa8 <__fp_round+0x20>
    4f98:	bf 2b       	or	r27, r31
    4f9a:	11 f4       	brne	.+4      	; 0x4fa0 <__fp_round+0x18>
    4f9c:	60 ff       	sbrs	r22, 0
    4f9e:	04 c0       	rjmp	.+8      	; 0x4fa8 <__fp_round+0x20>
    4fa0:	6f 5f       	subi	r22, 0xFF	; 255
    4fa2:	7f 4f       	sbci	r23, 0xFF	; 255
    4fa4:	8f 4f       	sbci	r24, 0xFF	; 255
    4fa6:	9f 4f       	sbci	r25, 0xFF	; 255
    4fa8:	08 95       	ret

00004faa <__fp_sinus>:
    4faa:	ef 93       	push	r30
    4fac:	e0 ff       	sbrs	r30, 0
    4fae:	06 c0       	rjmp	.+12     	; 0x4fbc <__fp_sinus+0x12>
    4fb0:	a2 ea       	ldi	r26, 0xA2	; 162
    4fb2:	2a ed       	ldi	r18, 0xDA	; 218
    4fb4:	3f e0       	ldi	r19, 0x0F	; 15
    4fb6:	49 ec       	ldi	r20, 0xC9	; 201
    4fb8:	5f eb       	ldi	r21, 0xBF	; 191
    4fba:	cc dd       	rcall	.-1128   	; 0x4b54 <__addsf3x>
    4fbc:	e5 df       	rcall	.-54     	; 0x4f88 <__fp_round>
    4fbe:	0f 90       	pop	r0
    4fc0:	03 94       	inc	r0
    4fc2:	01 fc       	sbrc	r0, 1
    4fc4:	90 58       	subi	r25, 0x80	; 128
    4fc6:	e5 e9       	ldi	r30, 0x95	; 149
    4fc8:	f0 e0       	ldi	r31, 0x00	; 0
    4fca:	74 c1       	rjmp	.+744    	; 0x52b4 <__fp_powsodd>

00004fcc <__fp_split3>:
    4fcc:	57 fd       	sbrc	r21, 7
    4fce:	90 58       	subi	r25, 0x80	; 128
    4fd0:	44 0f       	add	r20, r20
    4fd2:	55 1f       	adc	r21, r21
    4fd4:	59 f0       	breq	.+22     	; 0x4fec <__fp_splitA+0x10>
    4fd6:	5f 3f       	cpi	r21, 0xFF	; 255
    4fd8:	71 f0       	breq	.+28     	; 0x4ff6 <__fp_splitA+0x1a>
    4fda:	47 95       	ror	r20

00004fdc <__fp_splitA>:
    4fdc:	88 0f       	add	r24, r24
    4fde:	97 fb       	bst	r25, 7
    4fe0:	99 1f       	adc	r25, r25
    4fe2:	61 f0       	breq	.+24     	; 0x4ffc <__fp_splitA+0x20>
    4fe4:	9f 3f       	cpi	r25, 0xFF	; 255
    4fe6:	79 f0       	breq	.+30     	; 0x5006 <__fp_splitA+0x2a>
    4fe8:	87 95       	ror	r24
    4fea:	08 95       	ret
    4fec:	12 16       	cp	r1, r18
    4fee:	13 06       	cpc	r1, r19
    4ff0:	14 06       	cpc	r1, r20
    4ff2:	55 1f       	adc	r21, r21
    4ff4:	f2 cf       	rjmp	.-28     	; 0x4fda <__fp_split3+0xe>
    4ff6:	46 95       	lsr	r20
    4ff8:	f1 df       	rcall	.-30     	; 0x4fdc <__fp_splitA>
    4ffa:	08 c0       	rjmp	.+16     	; 0x500c <__fp_splitA+0x30>
    4ffc:	16 16       	cp	r1, r22
    4ffe:	17 06       	cpc	r1, r23
    5000:	18 06       	cpc	r1, r24
    5002:	99 1f       	adc	r25, r25
    5004:	f1 cf       	rjmp	.-30     	; 0x4fe8 <__fp_splitA+0xc>
    5006:	86 95       	lsr	r24
    5008:	71 05       	cpc	r23, r1
    500a:	61 05       	cpc	r22, r1
    500c:	08 94       	sec
    500e:	08 95       	ret

00005010 <__fp_zero>:
    5010:	e8 94       	clt

00005012 <__fp_szero>:
    5012:	bb 27       	eor	r27, r27
    5014:	66 27       	eor	r22, r22
    5016:	77 27       	eor	r23, r23
    5018:	cb 01       	movw	r24, r22
    501a:	97 f9       	bld	r25, 7
    501c:	08 95       	ret

0000501e <__gesf2>:
    501e:	2c df       	rcall	.-424    	; 0x4e78 <__fp_cmp>
    5020:	08 f4       	brcc	.+2      	; 0x5024 <__gesf2+0x6>
    5022:	8f ef       	ldi	r24, 0xFF	; 255
    5024:	08 95       	ret

00005026 <inverse>:
    5026:	9b 01       	movw	r18, r22
    5028:	ac 01       	movw	r20, r24
    502a:	60 e0       	ldi	r22, 0x00	; 0
    502c:	70 e0       	ldi	r23, 0x00	; 0
    502e:	80 e8       	ldi	r24, 0x80	; 128
    5030:	9f e3       	ldi	r25, 0x3F	; 63
    5032:	4c ce       	rjmp	.-872    	; 0x4ccc <__divsf3>

00005034 <__mulsf3>:
    5034:	0b d0       	rcall	.+22     	; 0x504c <__mulsf3x>
    5036:	a8 cf       	rjmp	.-176    	; 0x4f88 <__fp_round>
    5038:	71 df       	rcall	.-286    	; 0x4f1c <__fp_pscA>
    503a:	28 f0       	brcs	.+10     	; 0x5046 <__mulsf3+0x12>
    503c:	76 df       	rcall	.-276    	; 0x4f2a <__fp_pscB>
    503e:	18 f0       	brcs	.+6      	; 0x5046 <__mulsf3+0x12>
    5040:	95 23       	and	r25, r21
    5042:	09 f0       	breq	.+2      	; 0x5046 <__mulsf3+0x12>
    5044:	3d cf       	rjmp	.-390    	; 0x4ec0 <__fp_inf>
    5046:	42 cf       	rjmp	.-380    	; 0x4ecc <__fp_nan>
    5048:	11 24       	eor	r1, r1
    504a:	e3 cf       	rjmp	.-58     	; 0x5012 <__fp_szero>

0000504c <__mulsf3x>:
    504c:	bf df       	rcall	.-130    	; 0x4fcc <__fp_split3>
    504e:	a0 f3       	brcs	.-24     	; 0x5038 <__mulsf3+0x4>

00005050 <__mulsf3_pse>:
    5050:	95 9f       	mul	r25, r21
    5052:	d1 f3       	breq	.-12     	; 0x5048 <__mulsf3+0x14>
    5054:	95 0f       	add	r25, r21
    5056:	50 e0       	ldi	r21, 0x00	; 0
    5058:	55 1f       	adc	r21, r21
    505a:	62 9f       	mul	r22, r18
    505c:	f0 01       	movw	r30, r0
    505e:	72 9f       	mul	r23, r18
    5060:	bb 27       	eor	r27, r27
    5062:	f0 0d       	add	r31, r0
    5064:	b1 1d       	adc	r27, r1
    5066:	63 9f       	mul	r22, r19
    5068:	aa 27       	eor	r26, r26
    506a:	f0 0d       	add	r31, r0
    506c:	b1 1d       	adc	r27, r1
    506e:	aa 1f       	adc	r26, r26
    5070:	64 9f       	mul	r22, r20
    5072:	66 27       	eor	r22, r22
    5074:	b0 0d       	add	r27, r0
    5076:	a1 1d       	adc	r26, r1
    5078:	66 1f       	adc	r22, r22
    507a:	82 9f       	mul	r24, r18
    507c:	22 27       	eor	r18, r18
    507e:	b0 0d       	add	r27, r0
    5080:	a1 1d       	adc	r26, r1
    5082:	62 1f       	adc	r22, r18
    5084:	73 9f       	mul	r23, r19
    5086:	b0 0d       	add	r27, r0
    5088:	a1 1d       	adc	r26, r1
    508a:	62 1f       	adc	r22, r18
    508c:	83 9f       	mul	r24, r19
    508e:	a0 0d       	add	r26, r0
    5090:	61 1d       	adc	r22, r1
    5092:	22 1f       	adc	r18, r18
    5094:	74 9f       	mul	r23, r20
    5096:	33 27       	eor	r19, r19
    5098:	a0 0d       	add	r26, r0
    509a:	61 1d       	adc	r22, r1
    509c:	23 1f       	adc	r18, r19
    509e:	84 9f       	mul	r24, r20
    50a0:	60 0d       	add	r22, r0
    50a2:	21 1d       	adc	r18, r1
    50a4:	82 2f       	mov	r24, r18
    50a6:	76 2f       	mov	r23, r22
    50a8:	6a 2f       	mov	r22, r26
    50aa:	11 24       	eor	r1, r1
    50ac:	9f 57       	subi	r25, 0x7F	; 127
    50ae:	50 40       	sbci	r21, 0x00	; 0
    50b0:	8a f0       	brmi	.+34     	; 0x50d4 <__mulsf3_pse+0x84>
    50b2:	e1 f0       	breq	.+56     	; 0x50ec <__mulsf3_pse+0x9c>
    50b4:	88 23       	and	r24, r24
    50b6:	4a f0       	brmi	.+18     	; 0x50ca <__mulsf3_pse+0x7a>
    50b8:	ee 0f       	add	r30, r30
    50ba:	ff 1f       	adc	r31, r31
    50bc:	bb 1f       	adc	r27, r27
    50be:	66 1f       	adc	r22, r22
    50c0:	77 1f       	adc	r23, r23
    50c2:	88 1f       	adc	r24, r24
    50c4:	91 50       	subi	r25, 0x01	; 1
    50c6:	50 40       	sbci	r21, 0x00	; 0
    50c8:	a9 f7       	brne	.-22     	; 0x50b4 <__mulsf3_pse+0x64>
    50ca:	9e 3f       	cpi	r25, 0xFE	; 254
    50cc:	51 05       	cpc	r21, r1
    50ce:	70 f0       	brcs	.+28     	; 0x50ec <__mulsf3_pse+0x9c>
    50d0:	f7 ce       	rjmp	.-530    	; 0x4ec0 <__fp_inf>
    50d2:	9f cf       	rjmp	.-194    	; 0x5012 <__fp_szero>
    50d4:	5f 3f       	cpi	r21, 0xFF	; 255
    50d6:	ec f3       	brlt	.-6      	; 0x50d2 <__mulsf3_pse+0x82>
    50d8:	98 3e       	cpi	r25, 0xE8	; 232
    50da:	dc f3       	brlt	.-10     	; 0x50d2 <__mulsf3_pse+0x82>
    50dc:	86 95       	lsr	r24
    50de:	77 95       	ror	r23
    50e0:	67 95       	ror	r22
    50e2:	b7 95       	ror	r27
    50e4:	f7 95       	ror	r31
    50e6:	e7 95       	ror	r30
    50e8:	9f 5f       	subi	r25, 0xFF	; 255
    50ea:	c1 f7       	brne	.-16     	; 0x50dc <__mulsf3_pse+0x8c>
    50ec:	fe 2b       	or	r31, r30
    50ee:	88 0f       	add	r24, r24
    50f0:	91 1d       	adc	r25, r1
    50f2:	96 95       	lsr	r25
    50f4:	87 95       	ror	r24
    50f6:	97 f9       	bld	r25, 7
    50f8:	08 95       	ret

000050fa <pow>:
    50fa:	fa 01       	movw	r30, r20
    50fc:	ee 0f       	add	r30, r30
    50fe:	ff 1f       	adc	r31, r31
    5100:	30 96       	adiw	r30, 0x00	; 0
    5102:	21 05       	cpc	r18, r1
    5104:	31 05       	cpc	r19, r1
    5106:	99 f1       	breq	.+102    	; 0x516e <pow+0x74>
    5108:	61 15       	cp	r22, r1
    510a:	71 05       	cpc	r23, r1
    510c:	61 f4       	brne	.+24     	; 0x5126 <pow+0x2c>
    510e:	80 38       	cpi	r24, 0x80	; 128
    5110:	bf e3       	ldi	r27, 0x3F	; 63
    5112:	9b 07       	cpc	r25, r27
    5114:	49 f1       	breq	.+82     	; 0x5168 <pow+0x6e>
    5116:	68 94       	set
    5118:	90 38       	cpi	r25, 0x80	; 128
    511a:	81 05       	cpc	r24, r1
    511c:	61 f0       	breq	.+24     	; 0x5136 <pow+0x3c>
    511e:	80 38       	cpi	r24, 0x80	; 128
    5120:	bf ef       	ldi	r27, 0xFF	; 255
    5122:	9b 07       	cpc	r25, r27
    5124:	41 f0       	breq	.+16     	; 0x5136 <pow+0x3c>
    5126:	99 23       	and	r25, r25
    5128:	42 f5       	brpl	.+80     	; 0x517a <pow+0x80>
    512a:	ff 3f       	cpi	r31, 0xFF	; 255
    512c:	e1 05       	cpc	r30, r1
    512e:	31 05       	cpc	r19, r1
    5130:	21 05       	cpc	r18, r1
    5132:	11 f1       	breq	.+68     	; 0x5178 <pow+0x7e>
    5134:	e8 94       	clt
    5136:	08 94       	sec
    5138:	e7 95       	ror	r30
    513a:	d9 01       	movw	r26, r18
    513c:	aa 23       	and	r26, r26
    513e:	29 f4       	brne	.+10     	; 0x514a <pow+0x50>
    5140:	ab 2f       	mov	r26, r27
    5142:	be 2f       	mov	r27, r30
    5144:	f8 5f       	subi	r31, 0xF8	; 248
    5146:	d0 f3       	brcs	.-12     	; 0x513c <pow+0x42>
    5148:	10 c0       	rjmp	.+32     	; 0x516a <pow+0x70>
    514a:	ff 5f       	subi	r31, 0xFF	; 255
    514c:	70 f4       	brcc	.+28     	; 0x516a <pow+0x70>
    514e:	a6 95       	lsr	r26
    5150:	e0 f7       	brcc	.-8      	; 0x514a <pow+0x50>
    5152:	f7 39       	cpi	r31, 0x97	; 151
    5154:	50 f0       	brcs	.+20     	; 0x516a <pow+0x70>
    5156:	19 f0       	breq	.+6      	; 0x515e <pow+0x64>
    5158:	ff 3a       	cpi	r31, 0xAF	; 175
    515a:	38 f4       	brcc	.+14     	; 0x516a <pow+0x70>
    515c:	9f 77       	andi	r25, 0x7F	; 127
    515e:	9f 93       	push	r25
    5160:	0c d0       	rcall	.+24     	; 0x517a <pow+0x80>
    5162:	0f 90       	pop	r0
    5164:	07 fc       	sbrc	r0, 7
    5166:	90 58       	subi	r25, 0x80	; 128
    5168:	08 95       	ret
    516a:	3e f0       	brts	.+14     	; 0x517a <pow+0x80>
    516c:	af ce       	rjmp	.-674    	; 0x4ecc <__fp_nan>
    516e:	60 e0       	ldi	r22, 0x00	; 0
    5170:	70 e0       	ldi	r23, 0x00	; 0
    5172:	80 e8       	ldi	r24, 0x80	; 128
    5174:	9f e3       	ldi	r25, 0x3F	; 63
    5176:	08 95       	ret
    5178:	4f e7       	ldi	r20, 0x7F	; 127
    517a:	9f 77       	andi	r25, 0x7F	; 127
    517c:	5f 93       	push	r21
    517e:	4f 93       	push	r20
    5180:	3f 93       	push	r19
    5182:	2f 93       	push	r18
    5184:	e3 d0       	rcall	.+454    	; 0x534c <log>
    5186:	2f 91       	pop	r18
    5188:	3f 91       	pop	r19
    518a:	4f 91       	pop	r20
    518c:	5f 91       	pop	r21
    518e:	52 df       	rcall	.-348    	; 0x5034 <__mulsf3>
    5190:	50 c0       	rjmp	.+160    	; 0x5232 <exp>

00005192 <sin>:
    5192:	9f 93       	push	r25
    5194:	d2 de       	rcall	.-604    	; 0x4f3a <__fp_rempio2>
    5196:	0f 90       	pop	r0
    5198:	07 fc       	sbrc	r0, 7
    519a:	ee 5f       	subi	r30, 0xFE	; 254
    519c:	06 cf       	rjmp	.-500    	; 0x4faa <__fp_sinus>
    519e:	11 f4       	brne	.+4      	; 0x51a4 <sin+0x12>
    51a0:	0e f4       	brtc	.+2      	; 0x51a4 <sin+0x12>
    51a2:	94 ce       	rjmp	.-728    	; 0x4ecc <__fp_nan>
    51a4:	72 c0       	rjmp	.+228    	; 0x528a <__fp_mpack>

000051a6 <sqrt>:
    51a6:	1a df       	rcall	.-460    	; 0x4fdc <__fp_splitA>
    51a8:	d0 f3       	brcs	.-12     	; 0x519e <sin+0xc>
    51aa:	99 23       	and	r25, r25
    51ac:	d9 f3       	breq	.-10     	; 0x51a4 <sin+0x12>
    51ae:	ce f3       	brts	.-14     	; 0x51a2 <sin+0x10>
    51b0:	9f 57       	subi	r25, 0x7F	; 127
    51b2:	55 0b       	sbc	r21, r21
    51b4:	87 ff       	sbrs	r24, 7
    51b6:	77 d0       	rcall	.+238    	; 0x52a6 <__fp_norm2>
    51b8:	00 24       	eor	r0, r0
    51ba:	a0 e6       	ldi	r26, 0x60	; 96
    51bc:	40 ea       	ldi	r20, 0xA0	; 160
    51be:	90 01       	movw	r18, r0
    51c0:	80 58       	subi	r24, 0x80	; 128
    51c2:	56 95       	lsr	r21
    51c4:	97 95       	ror	r25
    51c6:	28 f4       	brcc	.+10     	; 0x51d2 <sqrt+0x2c>
    51c8:	80 5c       	subi	r24, 0xC0	; 192
    51ca:	66 0f       	add	r22, r22
    51cc:	77 1f       	adc	r23, r23
    51ce:	88 1f       	adc	r24, r24
    51d0:	20 f0       	brcs	.+8      	; 0x51da <sqrt+0x34>
    51d2:	26 17       	cp	r18, r22
    51d4:	37 07       	cpc	r19, r23
    51d6:	48 07       	cpc	r20, r24
    51d8:	30 f4       	brcc	.+12     	; 0x51e6 <sqrt+0x40>
    51da:	62 1b       	sub	r22, r18
    51dc:	73 0b       	sbc	r23, r19
    51de:	84 0b       	sbc	r24, r20
    51e0:	20 29       	or	r18, r0
    51e2:	31 29       	or	r19, r1
    51e4:	4a 2b       	or	r20, r26
    51e6:	a6 95       	lsr	r26
    51e8:	17 94       	ror	r1
    51ea:	07 94       	ror	r0
    51ec:	20 25       	eor	r18, r0
    51ee:	31 25       	eor	r19, r1
    51f0:	4a 27       	eor	r20, r26
    51f2:	58 f7       	brcc	.-42     	; 0x51ca <sqrt+0x24>
    51f4:	66 0f       	add	r22, r22
    51f6:	77 1f       	adc	r23, r23
    51f8:	88 1f       	adc	r24, r24
    51fa:	20 f0       	brcs	.+8      	; 0x5204 <sqrt+0x5e>
    51fc:	26 17       	cp	r18, r22
    51fe:	37 07       	cpc	r19, r23
    5200:	48 07       	cpc	r20, r24
    5202:	30 f4       	brcc	.+12     	; 0x5210 <sqrt+0x6a>
    5204:	62 0b       	sbc	r22, r18
    5206:	73 0b       	sbc	r23, r19
    5208:	84 0b       	sbc	r24, r20
    520a:	20 0d       	add	r18, r0
    520c:	31 1d       	adc	r19, r1
    520e:	41 1d       	adc	r20, r1
    5210:	a0 95       	com	r26
    5212:	81 f7       	brne	.-32     	; 0x51f4 <sqrt+0x4e>
    5214:	b9 01       	movw	r22, r18
    5216:	84 2f       	mov	r24, r20
    5218:	91 58       	subi	r25, 0x81	; 129
    521a:	88 0f       	add	r24, r24
    521c:	96 95       	lsr	r25
    521e:	87 95       	ror	r24
    5220:	08 95       	ret

00005222 <square>:
    5222:	9b 01       	movw	r18, r22
    5224:	ac 01       	movw	r20, r24
    5226:	06 cf       	rjmp	.-500    	; 0x5034 <__mulsf3>
    5228:	19 f4       	brne	.+6      	; 0x5230 <square+0xe>
    522a:	0e f0       	brts	.+2      	; 0x522e <square+0xc>
    522c:	49 ce       	rjmp	.-878    	; 0x4ec0 <__fp_inf>
    522e:	f0 ce       	rjmp	.-544    	; 0x5010 <__fp_zero>
    5230:	4d ce       	rjmp	.-870    	; 0x4ecc <__fp_nan>

00005232 <exp>:
    5232:	d4 de       	rcall	.-600    	; 0x4fdc <__fp_splitA>
    5234:	c8 f3       	brcs	.-14     	; 0x5228 <square+0x6>
    5236:	96 38       	cpi	r25, 0x86	; 134
    5238:	c0 f7       	brcc	.-16     	; 0x522a <square+0x8>
    523a:	07 f8       	bld	r0, 7
    523c:	0f 92       	push	r0
    523e:	e8 94       	clt
    5240:	2b e3       	ldi	r18, 0x3B	; 59
    5242:	3a ea       	ldi	r19, 0xAA	; 170
    5244:	48 eb       	ldi	r20, 0xB8	; 184
    5246:	5f e7       	ldi	r21, 0x7F	; 127
    5248:	03 df       	rcall	.-506    	; 0x5050 <__mulsf3_pse>
    524a:	0f 92       	push	r0
    524c:	0f 92       	push	r0
    524e:	0f 92       	push	r0
    5250:	4d b7       	in	r20, 0x3d	; 61
    5252:	5e b7       	in	r21, 0x3e	; 62
    5254:	0f 92       	push	r0
    5256:	ba d0       	rcall	.+372    	; 0x53cc <modf>
    5258:	e3 eb       	ldi	r30, 0xB3	; 179
    525a:	f0 e0       	ldi	r31, 0x00	; 0
    525c:	3a de       	rcall	.-908    	; 0x4ed2 <__fp_powser>
    525e:	4f 91       	pop	r20
    5260:	5f 91       	pop	r21
    5262:	ef 91       	pop	r30
    5264:	ff 91       	pop	r31
    5266:	e5 95       	asr	r30
    5268:	ee 1f       	adc	r30, r30
    526a:	ff 1f       	adc	r31, r31
    526c:	49 f0       	breq	.+18     	; 0x5280 <exp+0x4e>
    526e:	fe 57       	subi	r31, 0x7E	; 126
    5270:	e0 68       	ori	r30, 0x80	; 128
    5272:	44 27       	eor	r20, r20
    5274:	ee 0f       	add	r30, r30
    5276:	44 1f       	adc	r20, r20
    5278:	fa 95       	dec	r31
    527a:	e1 f7       	brne	.-8      	; 0x5274 <exp+0x42>
    527c:	41 95       	neg	r20
    527e:	55 0b       	sbc	r21, r21
    5280:	2c d0       	rcall	.+88     	; 0x52da <ldexp>
    5282:	0f 90       	pop	r0
    5284:	07 fe       	sbrs	r0, 7
    5286:	cf ce       	rjmp	.-610    	; 0x5026 <inverse>
    5288:	08 95       	ret

0000528a <__fp_mpack>:
    528a:	9f 3f       	cpi	r25, 0xFF	; 255
    528c:	31 f0       	breq	.+12     	; 0x529a <__fp_mpack_finite+0xc>

0000528e <__fp_mpack_finite>:
    528e:	91 50       	subi	r25, 0x01	; 1
    5290:	20 f4       	brcc	.+8      	; 0x529a <__fp_mpack_finite+0xc>
    5292:	87 95       	ror	r24
    5294:	77 95       	ror	r23
    5296:	67 95       	ror	r22
    5298:	b7 95       	ror	r27
    529a:	88 0f       	add	r24, r24
    529c:	91 1d       	adc	r25, r1
    529e:	96 95       	lsr	r25
    52a0:	87 95       	ror	r24
    52a2:	97 f9       	bld	r25, 7
    52a4:	08 95       	ret

000052a6 <__fp_norm2>:
    52a6:	91 50       	subi	r25, 0x01	; 1
    52a8:	50 40       	sbci	r21, 0x00	; 0
    52aa:	66 0f       	add	r22, r22
    52ac:	77 1f       	adc	r23, r23
    52ae:	88 1f       	adc	r24, r24
    52b0:	d2 f7       	brpl	.-12     	; 0x52a6 <__fp_norm2>
    52b2:	08 95       	ret

000052b4 <__fp_powsodd>:
    52b4:	9f 93       	push	r25
    52b6:	8f 93       	push	r24
    52b8:	7f 93       	push	r23
    52ba:	6f 93       	push	r22
    52bc:	ff 93       	push	r31
    52be:	ef 93       	push	r30
    52c0:	9b 01       	movw	r18, r22
    52c2:	ac 01       	movw	r20, r24
    52c4:	b7 de       	rcall	.-658    	; 0x5034 <__mulsf3>
    52c6:	ef 91       	pop	r30
    52c8:	ff 91       	pop	r31
    52ca:	03 de       	rcall	.-1018   	; 0x4ed2 <__fp_powser>
    52cc:	2f 91       	pop	r18
    52ce:	3f 91       	pop	r19
    52d0:	4f 91       	pop	r20
    52d2:	5f 91       	pop	r21
    52d4:	af ce       	rjmp	.-674    	; 0x5034 <__mulsf3>
    52d6:	f4 cd       	rjmp	.-1048   	; 0x4ec0 <__fp_inf>
    52d8:	d8 cf       	rjmp	.-80     	; 0x528a <__fp_mpack>

000052da <ldexp>:
    52da:	80 de       	rcall	.-768    	; 0x4fdc <__fp_splitA>
    52dc:	e8 f3       	brcs	.-6      	; 0x52d8 <__fp_powsodd+0x24>
    52de:	99 23       	and	r25, r25
    52e0:	d9 f3       	breq	.-10     	; 0x52d8 <__fp_powsodd+0x24>
    52e2:	94 0f       	add	r25, r20
    52e4:	51 1d       	adc	r21, r1
    52e6:	bb f3       	brvs	.-18     	; 0x52d6 <__fp_powsodd+0x22>
    52e8:	91 50       	subi	r25, 0x01	; 1
    52ea:	50 40       	sbci	r21, 0x00	; 0
    52ec:	94 f0       	brlt	.+36     	; 0x5312 <ldexp+0x38>
    52ee:	59 f0       	breq	.+22     	; 0x5306 <ldexp+0x2c>
    52f0:	88 23       	and	r24, r24
    52f2:	32 f0       	brmi	.+12     	; 0x5300 <ldexp+0x26>
    52f4:	66 0f       	add	r22, r22
    52f6:	77 1f       	adc	r23, r23
    52f8:	88 1f       	adc	r24, r24
    52fa:	91 50       	subi	r25, 0x01	; 1
    52fc:	50 40       	sbci	r21, 0x00	; 0
    52fe:	c1 f7       	brne	.-16     	; 0x52f0 <ldexp+0x16>
    5300:	9e 3f       	cpi	r25, 0xFE	; 254
    5302:	51 05       	cpc	r21, r1
    5304:	44 f7       	brge	.-48     	; 0x52d6 <__fp_powsodd+0x22>
    5306:	88 0f       	add	r24, r24
    5308:	91 1d       	adc	r25, r1
    530a:	96 95       	lsr	r25
    530c:	87 95       	ror	r24
    530e:	97 f9       	bld	r25, 7
    5310:	08 95       	ret
    5312:	5f 3f       	cpi	r21, 0xFF	; 255
    5314:	ac f0       	brlt	.+42     	; 0x5340 <ldexp+0x66>
    5316:	98 3e       	cpi	r25, 0xE8	; 232
    5318:	9c f0       	brlt	.+38     	; 0x5340 <ldexp+0x66>
    531a:	bb 27       	eor	r27, r27
    531c:	86 95       	lsr	r24
    531e:	77 95       	ror	r23
    5320:	67 95       	ror	r22
    5322:	b7 95       	ror	r27
    5324:	08 f4       	brcc	.+2      	; 0x5328 <ldexp+0x4e>
    5326:	b1 60       	ori	r27, 0x01	; 1
    5328:	93 95       	inc	r25
    532a:	c1 f7       	brne	.-16     	; 0x531c <ldexp+0x42>
    532c:	bb 0f       	add	r27, r27
    532e:	58 f7       	brcc	.-42     	; 0x5306 <ldexp+0x2c>
    5330:	11 f4       	brne	.+4      	; 0x5336 <ldexp+0x5c>
    5332:	60 ff       	sbrs	r22, 0
    5334:	e8 cf       	rjmp	.-48     	; 0x5306 <ldexp+0x2c>
    5336:	6f 5f       	subi	r22, 0xFF	; 255
    5338:	7f 4f       	sbci	r23, 0xFF	; 255
    533a:	8f 4f       	sbci	r24, 0xFF	; 255
    533c:	9f 4f       	sbci	r25, 0xFF	; 255
    533e:	e3 cf       	rjmp	.-58     	; 0x5306 <ldexp+0x2c>
    5340:	68 ce       	rjmp	.-816    	; 0x5012 <__fp_szero>
    5342:	0e f0       	brts	.+2      	; 0x5346 <ldexp+0x6c>
    5344:	a2 cf       	rjmp	.-188    	; 0x528a <__fp_mpack>
    5346:	c2 cd       	rjmp	.-1148   	; 0x4ecc <__fp_nan>
    5348:	68 94       	set
    534a:	ba cd       	rjmp	.-1164   	; 0x4ec0 <__fp_inf>

0000534c <log>:
    534c:	47 de       	rcall	.-882    	; 0x4fdc <__fp_splitA>
    534e:	c8 f3       	brcs	.-14     	; 0x5342 <ldexp+0x68>
    5350:	99 23       	and	r25, r25
    5352:	d1 f3       	breq	.-12     	; 0x5348 <ldexp+0x6e>
    5354:	c6 f3       	brts	.-16     	; 0x5346 <ldexp+0x6c>
    5356:	df 93       	push	r29
    5358:	cf 93       	push	r28
    535a:	1f 93       	push	r17
    535c:	0f 93       	push	r16
    535e:	ff 92       	push	r15
    5360:	c9 2f       	mov	r28, r25
    5362:	dd 27       	eor	r29, r29
    5364:	88 23       	and	r24, r24
    5366:	2a f0       	brmi	.+10     	; 0x5372 <log+0x26>
    5368:	21 97       	sbiw	r28, 0x01	; 1
    536a:	66 0f       	add	r22, r22
    536c:	77 1f       	adc	r23, r23
    536e:	88 1f       	adc	r24, r24
    5370:	da f7       	brpl	.-10     	; 0x5368 <log+0x1c>
    5372:	20 e0       	ldi	r18, 0x00	; 0
    5374:	30 e0       	ldi	r19, 0x00	; 0
    5376:	40 e8       	ldi	r20, 0x80	; 128
    5378:	5f eb       	ldi	r21, 0xBF	; 191
    537a:	9f e3       	ldi	r25, 0x3F	; 63
    537c:	88 39       	cpi	r24, 0x98	; 152
    537e:	20 f0       	brcs	.+8      	; 0x5388 <log+0x3c>
    5380:	80 3e       	cpi	r24, 0xE0	; 224
    5382:	30 f0       	brcs	.+12     	; 0x5390 <log+0x44>
    5384:	21 96       	adiw	r28, 0x01	; 1
    5386:	8f 77       	andi	r24, 0x7F	; 127
    5388:	d4 db       	rcall	.-2136   	; 0x4b32 <__addsf3>
    538a:	eb ed       	ldi	r30, 0xDB	; 219
    538c:	f0 e0       	ldi	r31, 0x00	; 0
    538e:	03 c0       	rjmp	.+6      	; 0x5396 <log+0x4a>
    5390:	d0 db       	rcall	.-2144   	; 0x4b32 <__addsf3>
    5392:	e8 e0       	ldi	r30, 0x08	; 8
    5394:	f1 e0       	ldi	r31, 0x01	; 1
    5396:	9d dd       	rcall	.-1222   	; 0x4ed2 <__fp_powser>
    5398:	8b 01       	movw	r16, r22
    539a:	be 01       	movw	r22, r28
    539c:	ec 01       	movw	r28, r24
    539e:	fb 2e       	mov	r15, r27
    53a0:	6f 57       	subi	r22, 0x7F	; 127
    53a2:	71 09       	sbc	r23, r1
    53a4:	75 95       	asr	r23
    53a6:	77 1f       	adc	r23, r23
    53a8:	88 0b       	sbc	r24, r24
    53aa:	99 0b       	sbc	r25, r25
    53ac:	2a dd       	rcall	.-1452   	; 0x4e02 <__floatsisf>
    53ae:	28 e1       	ldi	r18, 0x18	; 24
    53b0:	32 e7       	ldi	r19, 0x72	; 114
    53b2:	41 e3       	ldi	r20, 0x31	; 49
    53b4:	5f e3       	ldi	r21, 0x3F	; 63
    53b6:	4a de       	rcall	.-876    	; 0x504c <__mulsf3x>
    53b8:	af 2d       	mov	r26, r15
    53ba:	98 01       	movw	r18, r16
    53bc:	ae 01       	movw	r20, r28
    53be:	ff 90       	pop	r15
    53c0:	0f 91       	pop	r16
    53c2:	1f 91       	pop	r17
    53c4:	cf 91       	pop	r28
    53c6:	df 91       	pop	r29
    53c8:	c5 db       	rcall	.-2166   	; 0x4b54 <__addsf3x>
    53ca:	de cd       	rjmp	.-1092   	; 0x4f88 <__fp_round>

000053cc <modf>:
    53cc:	fa 01       	movw	r30, r20
    53ce:	dc 01       	movw	r26, r24
    53d0:	aa 0f       	add	r26, r26
    53d2:	bb 1f       	adc	r27, r27
    53d4:	9b 01       	movw	r18, r22
    53d6:	ac 01       	movw	r20, r24
    53d8:	bf 57       	subi	r27, 0x7F	; 127
    53da:	28 f4       	brcc	.+10     	; 0x53e6 <modf+0x1a>
    53dc:	22 27       	eor	r18, r18
    53de:	33 27       	eor	r19, r19
    53e0:	44 27       	eor	r20, r20
    53e2:	50 78       	andi	r21, 0x80	; 128
    53e4:	1f c0       	rjmp	.+62     	; 0x5424 <modf+0x58>
    53e6:	b7 51       	subi	r27, 0x17	; 23
    53e8:	88 f4       	brcc	.+34     	; 0x540c <modf+0x40>
    53ea:	ab 2f       	mov	r26, r27
    53ec:	00 24       	eor	r0, r0
    53ee:	46 95       	lsr	r20
    53f0:	37 95       	ror	r19
    53f2:	27 95       	ror	r18
    53f4:	01 1c       	adc	r0, r1
    53f6:	a3 95       	inc	r26
    53f8:	d2 f3       	brmi	.-12     	; 0x53ee <modf+0x22>
    53fa:	00 20       	and	r0, r0
    53fc:	69 f0       	breq	.+26     	; 0x5418 <modf+0x4c>
    53fe:	22 0f       	add	r18, r18
    5400:	33 1f       	adc	r19, r19
    5402:	44 1f       	adc	r20, r20
    5404:	b3 95       	inc	r27
    5406:	da f3       	brmi	.-10     	; 0x53fe <modf+0x32>
    5408:	0d d0       	rcall	.+26     	; 0x5424 <modf+0x58>
    540a:	92 cb       	rjmp	.-2268   	; 0x4b30 <__subsf3>
    540c:	61 30       	cpi	r22, 0x01	; 1
    540e:	71 05       	cpc	r23, r1
    5410:	a0 e8       	ldi	r26, 0x80	; 128
    5412:	8a 07       	cpc	r24, r26
    5414:	b9 46       	sbci	r27, 0x69	; 105
    5416:	30 f4       	brcc	.+12     	; 0x5424 <modf+0x58>
    5418:	9b 01       	movw	r18, r22
    541a:	ac 01       	movw	r20, r24
    541c:	66 27       	eor	r22, r22
    541e:	77 27       	eor	r23, r23
    5420:	88 27       	eor	r24, r24
    5422:	90 78       	andi	r25, 0x80	; 128
    5424:	30 96       	adiw	r30, 0x00	; 0
    5426:	21 f0       	breq	.+8      	; 0x5430 <modf+0x64>
    5428:	20 83       	st	Z, r18
    542a:	31 83       	std	Z+1, r19	; 0x01
    542c:	42 83       	std	Z+2, r20	; 0x02
    542e:	53 83       	std	Z+3, r21	; 0x03
    5430:	08 95       	ret

00005432 <__mulsi3>:
    5432:	62 9f       	mul	r22, r18
    5434:	d0 01       	movw	r26, r0
    5436:	73 9f       	mul	r23, r19
    5438:	f0 01       	movw	r30, r0
    543a:	82 9f       	mul	r24, r18
    543c:	e0 0d       	add	r30, r0
    543e:	f1 1d       	adc	r31, r1
    5440:	64 9f       	mul	r22, r20
    5442:	e0 0d       	add	r30, r0
    5444:	f1 1d       	adc	r31, r1
    5446:	92 9f       	mul	r25, r18
    5448:	f0 0d       	add	r31, r0
    544a:	83 9f       	mul	r24, r19
    544c:	f0 0d       	add	r31, r0
    544e:	74 9f       	mul	r23, r20
    5450:	f0 0d       	add	r31, r0
    5452:	65 9f       	mul	r22, r21
    5454:	f0 0d       	add	r31, r0
    5456:	99 27       	eor	r25, r25
    5458:	72 9f       	mul	r23, r18
    545a:	b0 0d       	add	r27, r0
    545c:	e1 1d       	adc	r30, r1
    545e:	f9 1f       	adc	r31, r25
    5460:	63 9f       	mul	r22, r19
    5462:	b0 0d       	add	r27, r0
    5464:	e1 1d       	adc	r30, r1
    5466:	f9 1f       	adc	r31, r25
    5468:	bd 01       	movw	r22, r26
    546a:	cf 01       	movw	r24, r30
    546c:	11 24       	eor	r1, r1
    546e:	08 95       	ret

00005470 <__divmodhi4>:
    5470:	97 fb       	bst	r25, 7
    5472:	09 2e       	mov	r0, r25
    5474:	07 26       	eor	r0, r23
    5476:	0a d0       	rcall	.+20     	; 0x548c <__divmodhi4_neg1>
    5478:	77 fd       	sbrc	r23, 7
    547a:	04 d0       	rcall	.+8      	; 0x5484 <__divmodhi4_neg2>
    547c:	49 d0       	rcall	.+146    	; 0x5510 <__udivmodhi4>
    547e:	06 d0       	rcall	.+12     	; 0x548c <__divmodhi4_neg1>
    5480:	00 20       	and	r0, r0
    5482:	1a f4       	brpl	.+6      	; 0x548a <__divmodhi4_exit>

00005484 <__divmodhi4_neg2>:
    5484:	70 95       	com	r23
    5486:	61 95       	neg	r22
    5488:	7f 4f       	sbci	r23, 0xFF	; 255

0000548a <__divmodhi4_exit>:
    548a:	08 95       	ret

0000548c <__divmodhi4_neg1>:
    548c:	f6 f7       	brtc	.-4      	; 0x548a <__divmodhi4_exit>
    548e:	90 95       	com	r25
    5490:	81 95       	neg	r24
    5492:	9f 4f       	sbci	r25, 0xFF	; 255
    5494:	08 95       	ret

00005496 <__udivmodsi4>:
    5496:	a1 e2       	ldi	r26, 0x21	; 33
    5498:	1a 2e       	mov	r1, r26
    549a:	aa 1b       	sub	r26, r26
    549c:	bb 1b       	sub	r27, r27
    549e:	fd 01       	movw	r30, r26
    54a0:	0d c0       	rjmp	.+26     	; 0x54bc <__udivmodsi4_ep>

000054a2 <__udivmodsi4_loop>:
    54a2:	aa 1f       	adc	r26, r26
    54a4:	bb 1f       	adc	r27, r27
    54a6:	ee 1f       	adc	r30, r30
    54a8:	ff 1f       	adc	r31, r31
    54aa:	a2 17       	cp	r26, r18
    54ac:	b3 07       	cpc	r27, r19
    54ae:	e4 07       	cpc	r30, r20
    54b0:	f5 07       	cpc	r31, r21
    54b2:	20 f0       	brcs	.+8      	; 0x54bc <__udivmodsi4_ep>
    54b4:	a2 1b       	sub	r26, r18
    54b6:	b3 0b       	sbc	r27, r19
    54b8:	e4 0b       	sbc	r30, r20
    54ba:	f5 0b       	sbc	r31, r21

000054bc <__udivmodsi4_ep>:
    54bc:	66 1f       	adc	r22, r22
    54be:	77 1f       	adc	r23, r23
    54c0:	88 1f       	adc	r24, r24
    54c2:	99 1f       	adc	r25, r25
    54c4:	1a 94       	dec	r1
    54c6:	69 f7       	brne	.-38     	; 0x54a2 <__udivmodsi4_loop>
    54c8:	60 95       	com	r22
    54ca:	70 95       	com	r23
    54cc:	80 95       	com	r24
    54ce:	90 95       	com	r25
    54d0:	9b 01       	movw	r18, r22
    54d2:	ac 01       	movw	r20, r24
    54d4:	bd 01       	movw	r22, r26
    54d6:	cf 01       	movw	r24, r30
    54d8:	08 95       	ret

000054da <__divmodsi4>:
    54da:	97 fb       	bst	r25, 7
    54dc:	09 2e       	mov	r0, r25
    54de:	05 26       	eor	r0, r21
    54e0:	0e d0       	rcall	.+28     	; 0x54fe <__divmodsi4_neg1>
    54e2:	57 fd       	sbrc	r21, 7
    54e4:	04 d0       	rcall	.+8      	; 0x54ee <__divmodsi4_neg2>
    54e6:	d7 df       	rcall	.-82     	; 0x5496 <__udivmodsi4>
    54e8:	0a d0       	rcall	.+20     	; 0x54fe <__divmodsi4_neg1>
    54ea:	00 1c       	adc	r0, r0
    54ec:	38 f4       	brcc	.+14     	; 0x54fc <__divmodsi4_exit>

000054ee <__divmodsi4_neg2>:
    54ee:	50 95       	com	r21
    54f0:	40 95       	com	r20
    54f2:	30 95       	com	r19
    54f4:	21 95       	neg	r18
    54f6:	3f 4f       	sbci	r19, 0xFF	; 255
    54f8:	4f 4f       	sbci	r20, 0xFF	; 255
    54fa:	5f 4f       	sbci	r21, 0xFF	; 255

000054fc <__divmodsi4_exit>:
    54fc:	08 95       	ret

000054fe <__divmodsi4_neg1>:
    54fe:	f6 f7       	brtc	.-4      	; 0x54fc <__divmodsi4_exit>
    5500:	90 95       	com	r25
    5502:	80 95       	com	r24
    5504:	70 95       	com	r23
    5506:	61 95       	neg	r22
    5508:	7f 4f       	sbci	r23, 0xFF	; 255
    550a:	8f 4f       	sbci	r24, 0xFF	; 255
    550c:	9f 4f       	sbci	r25, 0xFF	; 255
    550e:	08 95       	ret

00005510 <__udivmodhi4>:
    5510:	aa 1b       	sub	r26, r26
    5512:	bb 1b       	sub	r27, r27
    5514:	51 e1       	ldi	r21, 0x11	; 17
    5516:	07 c0       	rjmp	.+14     	; 0x5526 <__udivmodhi4_ep>

00005518 <__udivmodhi4_loop>:
    5518:	aa 1f       	adc	r26, r26
    551a:	bb 1f       	adc	r27, r27
    551c:	a6 17       	cp	r26, r22
    551e:	b7 07       	cpc	r27, r23
    5520:	10 f0       	brcs	.+4      	; 0x5526 <__udivmodhi4_ep>
    5522:	a6 1b       	sub	r26, r22
    5524:	b7 0b       	sbc	r27, r23

00005526 <__udivmodhi4_ep>:
    5526:	88 1f       	adc	r24, r24
    5528:	99 1f       	adc	r25, r25
    552a:	5a 95       	dec	r21
    552c:	a9 f7       	brne	.-22     	; 0x5518 <__udivmodhi4_loop>
    552e:	80 95       	com	r24
    5530:	90 95       	com	r25
    5532:	bc 01       	movw	r22, r24
    5534:	cd 01       	movw	r24, r26
    5536:	08 95       	ret

00005538 <sprintf>:
    5538:	ae e0       	ldi	r26, 0x0E	; 14
    553a:	b0 e0       	ldi	r27, 0x00	; 0
    553c:	e2 ea       	ldi	r30, 0xA2	; 162
    553e:	fa e2       	ldi	r31, 0x2A	; 42
    5540:	0c 94 8d 2d 	jmp	0x5b1a	; 0x5b1a <__prologue_saves__+0x1c>
    5544:	0d 89       	ldd	r16, Y+21	; 0x15
    5546:	1e 89       	ldd	r17, Y+22	; 0x16
    5548:	86 e0       	ldi	r24, 0x06	; 6
    554a:	8c 83       	std	Y+4, r24	; 0x04
    554c:	1a 83       	std	Y+2, r17	; 0x02
    554e:	09 83       	std	Y+1, r16	; 0x01
    5550:	8f ef       	ldi	r24, 0xFF	; 255
    5552:	9f e7       	ldi	r25, 0x7F	; 127
    5554:	9e 83       	std	Y+6, r25	; 0x06
    5556:	8d 83       	std	Y+5, r24	; 0x05
    5558:	9e 01       	movw	r18, r28
    555a:	27 5e       	subi	r18, 0xE7	; 231
    555c:	3f 4f       	sbci	r19, 0xFF	; 255
    555e:	ce 01       	movw	r24, r28
    5560:	01 96       	adiw	r24, 0x01	; 1
    5562:	6f 89       	ldd	r22, Y+23	; 0x17
    5564:	78 8d       	ldd	r23, Y+24	; 0x18
    5566:	a9 01       	movw	r20, r18
    5568:	0e 94 bf 2a 	call	0x557e	; 0x557e <vfprintf>
    556c:	ef 81       	ldd	r30, Y+7	; 0x07
    556e:	f8 85       	ldd	r31, Y+8	; 0x08
    5570:	e0 0f       	add	r30, r16
    5572:	f1 1f       	adc	r31, r17
    5574:	10 82       	st	Z, r1
    5576:	2e 96       	adiw	r28, 0x0e	; 14
    5578:	e4 e0       	ldi	r30, 0x04	; 4
    557a:	0c 94 a9 2d 	jmp	0x5b52	; 0x5b52 <__epilogue_restores__+0x1c>

0000557e <vfprintf>:
    557e:	ac e0       	ldi	r26, 0x0C	; 12
    5580:	b0 e0       	ldi	r27, 0x00	; 0
    5582:	e5 ec       	ldi	r30, 0xC5	; 197
    5584:	fa e2       	ldi	r31, 0x2A	; 42
    5586:	0c 94 7f 2d 	jmp	0x5afe	; 0x5afe <__prologue_saves__>
    558a:	6c 01       	movw	r12, r24
    558c:	1b 01       	movw	r2, r22
    558e:	8a 01       	movw	r16, r20
    5590:	fc 01       	movw	r30, r24
    5592:	17 82       	std	Z+7, r1	; 0x07
    5594:	16 82       	std	Z+6, r1	; 0x06
    5596:	83 81       	ldd	r24, Z+3	; 0x03
    5598:	81 ff       	sbrs	r24, 1
    559a:	d1 c1       	rjmp	.+930    	; 0x593e <vfprintf+0x3c0>
    559c:	2e 01       	movw	r4, r28
    559e:	08 94       	sec
    55a0:	41 1c       	adc	r4, r1
    55a2:	51 1c       	adc	r5, r1
    55a4:	f6 01       	movw	r30, r12
    55a6:	93 81       	ldd	r25, Z+3	; 0x03
    55a8:	f1 01       	movw	r30, r2
    55aa:	93 fd       	sbrc	r25, 3
    55ac:	85 91       	lpm	r24, Z+
    55ae:	93 ff       	sbrs	r25, 3
    55b0:	81 91       	ld	r24, Z+
    55b2:	1f 01       	movw	r2, r30
    55b4:	88 23       	and	r24, r24
    55b6:	09 f4       	brne	.+2      	; 0x55ba <vfprintf+0x3c>
    55b8:	be c1       	rjmp	.+892    	; 0x5936 <vfprintf+0x3b8>
    55ba:	85 32       	cpi	r24, 0x25	; 37
    55bc:	39 f4       	brne	.+14     	; 0x55cc <vfprintf+0x4e>
    55be:	93 fd       	sbrc	r25, 3
    55c0:	85 91       	lpm	r24, Z+
    55c2:	93 ff       	sbrs	r25, 3
    55c4:	81 91       	ld	r24, Z+
    55c6:	1f 01       	movw	r2, r30
    55c8:	85 32       	cpi	r24, 0x25	; 37
    55ca:	29 f4       	brne	.+10     	; 0x55d6 <vfprintf+0x58>
    55cc:	90 e0       	ldi	r25, 0x00	; 0
    55ce:	b6 01       	movw	r22, r12
    55d0:	0e 94 e5 2c 	call	0x59ca	; 0x59ca <fputc>
    55d4:	e7 cf       	rjmp	.-50     	; 0x55a4 <vfprintf+0x26>
    55d6:	ee 24       	eor	r14, r14
    55d8:	ff 24       	eor	r15, r15
    55da:	20 e0       	ldi	r18, 0x00	; 0
    55dc:	20 32       	cpi	r18, 0x20	; 32
    55de:	b0 f4       	brcc	.+44     	; 0x560c <vfprintf+0x8e>
    55e0:	8b 32       	cpi	r24, 0x2B	; 43
    55e2:	69 f0       	breq	.+26     	; 0x55fe <vfprintf+0x80>
    55e4:	8c 32       	cpi	r24, 0x2C	; 44
    55e6:	28 f4       	brcc	.+10     	; 0x55f2 <vfprintf+0x74>
    55e8:	80 32       	cpi	r24, 0x20	; 32
    55ea:	51 f0       	breq	.+20     	; 0x5600 <vfprintf+0x82>
    55ec:	83 32       	cpi	r24, 0x23	; 35
    55ee:	71 f4       	brne	.+28     	; 0x560c <vfprintf+0x8e>
    55f0:	0b c0       	rjmp	.+22     	; 0x5608 <vfprintf+0x8a>
    55f2:	8d 32       	cpi	r24, 0x2D	; 45
    55f4:	39 f0       	breq	.+14     	; 0x5604 <vfprintf+0x86>
    55f6:	80 33       	cpi	r24, 0x30	; 48
    55f8:	49 f4       	brne	.+18     	; 0x560c <vfprintf+0x8e>
    55fa:	21 60       	ori	r18, 0x01	; 1
    55fc:	2c c0       	rjmp	.+88     	; 0x5656 <vfprintf+0xd8>
    55fe:	22 60       	ori	r18, 0x02	; 2
    5600:	24 60       	ori	r18, 0x04	; 4
    5602:	29 c0       	rjmp	.+82     	; 0x5656 <vfprintf+0xd8>
    5604:	28 60       	ori	r18, 0x08	; 8
    5606:	27 c0       	rjmp	.+78     	; 0x5656 <vfprintf+0xd8>
    5608:	20 61       	ori	r18, 0x10	; 16
    560a:	25 c0       	rjmp	.+74     	; 0x5656 <vfprintf+0xd8>
    560c:	27 fd       	sbrc	r18, 7
    560e:	2c c0       	rjmp	.+88     	; 0x5668 <vfprintf+0xea>
    5610:	38 2f       	mov	r19, r24
    5612:	30 53       	subi	r19, 0x30	; 48
    5614:	3a 30       	cpi	r19, 0x0A	; 10
    5616:	98 f4       	brcc	.+38     	; 0x563e <vfprintf+0xc0>
    5618:	26 ff       	sbrs	r18, 6
    561a:	08 c0       	rjmp	.+16     	; 0x562c <vfprintf+0xae>
    561c:	8e 2d       	mov	r24, r14
    561e:	88 0f       	add	r24, r24
    5620:	e8 2e       	mov	r14, r24
    5622:	ee 0c       	add	r14, r14
    5624:	ee 0c       	add	r14, r14
    5626:	e8 0e       	add	r14, r24
    5628:	e3 0e       	add	r14, r19
    562a:	15 c0       	rjmp	.+42     	; 0x5656 <vfprintf+0xd8>
    562c:	8f 2d       	mov	r24, r15
    562e:	88 0f       	add	r24, r24
    5630:	f8 2e       	mov	r15, r24
    5632:	ff 0c       	add	r15, r15
    5634:	ff 0c       	add	r15, r15
    5636:	f8 0e       	add	r15, r24
    5638:	f3 0e       	add	r15, r19
    563a:	20 62       	ori	r18, 0x20	; 32
    563c:	0c c0       	rjmp	.+24     	; 0x5656 <vfprintf+0xd8>
    563e:	8e 32       	cpi	r24, 0x2E	; 46
    5640:	21 f4       	brne	.+8      	; 0x564a <vfprintf+0xcc>
    5642:	26 fd       	sbrc	r18, 6
    5644:	78 c1       	rjmp	.+752    	; 0x5936 <vfprintf+0x3b8>
    5646:	20 64       	ori	r18, 0x40	; 64
    5648:	06 c0       	rjmp	.+12     	; 0x5656 <vfprintf+0xd8>
    564a:	8c 36       	cpi	r24, 0x6C	; 108
    564c:	11 f4       	brne	.+4      	; 0x5652 <vfprintf+0xd4>
    564e:	20 68       	ori	r18, 0x80	; 128
    5650:	02 c0       	rjmp	.+4      	; 0x5656 <vfprintf+0xd8>
    5652:	88 36       	cpi	r24, 0x68	; 104
    5654:	49 f4       	brne	.+18     	; 0x5668 <vfprintf+0xea>
    5656:	f1 01       	movw	r30, r2
    5658:	93 fd       	sbrc	r25, 3
    565a:	85 91       	lpm	r24, Z+
    565c:	93 ff       	sbrs	r25, 3
    565e:	81 91       	ld	r24, Z+
    5660:	1f 01       	movw	r2, r30
    5662:	88 23       	and	r24, r24
    5664:	09 f0       	breq	.+2      	; 0x5668 <vfprintf+0xea>
    5666:	ba cf       	rjmp	.-140    	; 0x55dc <vfprintf+0x5e>
    5668:	98 2f       	mov	r25, r24
    566a:	95 54       	subi	r25, 0x45	; 69
    566c:	93 30       	cpi	r25, 0x03	; 3
    566e:	18 f0       	brcs	.+6      	; 0x5676 <vfprintf+0xf8>
    5670:	90 52       	subi	r25, 0x20	; 32
    5672:	93 30       	cpi	r25, 0x03	; 3
    5674:	28 f4       	brcc	.+10     	; 0x5680 <vfprintf+0x102>
    5676:	0c 5f       	subi	r16, 0xFC	; 252
    5678:	1f 4f       	sbci	r17, 0xFF	; 255
    567a:	ff e3       	ldi	r31, 0x3F	; 63
    567c:	f9 83       	std	Y+1, r31	; 0x01
    567e:	0d c0       	rjmp	.+26     	; 0x569a <vfprintf+0x11c>
    5680:	83 36       	cpi	r24, 0x63	; 99
    5682:	31 f0       	breq	.+12     	; 0x5690 <vfprintf+0x112>
    5684:	83 37       	cpi	r24, 0x73	; 115
    5686:	71 f0       	breq	.+28     	; 0x56a4 <vfprintf+0x126>
    5688:	83 35       	cpi	r24, 0x53	; 83
    568a:	09 f0       	breq	.+2      	; 0x568e <vfprintf+0x110>
    568c:	60 c0       	rjmp	.+192    	; 0x574e <vfprintf+0x1d0>
    568e:	22 c0       	rjmp	.+68     	; 0x56d4 <vfprintf+0x156>
    5690:	f8 01       	movw	r30, r16
    5692:	80 81       	ld	r24, Z
    5694:	89 83       	std	Y+1, r24	; 0x01
    5696:	0e 5f       	subi	r16, 0xFE	; 254
    5698:	1f 4f       	sbci	r17, 0xFF	; 255
    569a:	42 01       	movw	r8, r4
    569c:	71 e0       	ldi	r23, 0x01	; 1
    569e:	a7 2e       	mov	r10, r23
    56a0:	b1 2c       	mov	r11, r1
    56a2:	16 c0       	rjmp	.+44     	; 0x56d0 <vfprintf+0x152>
    56a4:	62 e0       	ldi	r22, 0x02	; 2
    56a6:	66 2e       	mov	r6, r22
    56a8:	71 2c       	mov	r7, r1
    56aa:	60 0e       	add	r6, r16
    56ac:	71 1e       	adc	r7, r17
    56ae:	f8 01       	movw	r30, r16
    56b0:	80 80       	ld	r8, Z
    56b2:	91 80       	ldd	r9, Z+1	; 0x01
    56b4:	26 ff       	sbrs	r18, 6
    56b6:	03 c0       	rjmp	.+6      	; 0x56be <vfprintf+0x140>
    56b8:	6e 2d       	mov	r22, r14
    56ba:	70 e0       	ldi	r23, 0x00	; 0
    56bc:	02 c0       	rjmp	.+4      	; 0x56c2 <vfprintf+0x144>
    56be:	6f ef       	ldi	r22, 0xFF	; 255
    56c0:	7f ef       	ldi	r23, 0xFF	; 255
    56c2:	c4 01       	movw	r24, r8
    56c4:	2c 87       	std	Y+12, r18	; 0x0c
    56c6:	0e 94 da 2c 	call	0x59b4	; 0x59b4 <strnlen>
    56ca:	5c 01       	movw	r10, r24
    56cc:	83 01       	movw	r16, r6
    56ce:	2c 85       	ldd	r18, Y+12	; 0x0c
    56d0:	2f 77       	andi	r18, 0x7F	; 127
    56d2:	17 c0       	rjmp	.+46     	; 0x5702 <vfprintf+0x184>
    56d4:	52 e0       	ldi	r21, 0x02	; 2
    56d6:	65 2e       	mov	r6, r21
    56d8:	71 2c       	mov	r7, r1
    56da:	60 0e       	add	r6, r16
    56dc:	71 1e       	adc	r7, r17
    56de:	f8 01       	movw	r30, r16
    56e0:	80 80       	ld	r8, Z
    56e2:	91 80       	ldd	r9, Z+1	; 0x01
    56e4:	26 ff       	sbrs	r18, 6
    56e6:	03 c0       	rjmp	.+6      	; 0x56ee <vfprintf+0x170>
    56e8:	6e 2d       	mov	r22, r14
    56ea:	70 e0       	ldi	r23, 0x00	; 0
    56ec:	02 c0       	rjmp	.+4      	; 0x56f2 <vfprintf+0x174>
    56ee:	6f ef       	ldi	r22, 0xFF	; 255
    56f0:	7f ef       	ldi	r23, 0xFF	; 255
    56f2:	c4 01       	movw	r24, r8
    56f4:	2c 87       	std	Y+12, r18	; 0x0c
    56f6:	0e 94 cf 2c 	call	0x599e	; 0x599e <strnlen_P>
    56fa:	5c 01       	movw	r10, r24
    56fc:	2c 85       	ldd	r18, Y+12	; 0x0c
    56fe:	20 68       	ori	r18, 0x80	; 128
    5700:	83 01       	movw	r16, r6
    5702:	23 fd       	sbrc	r18, 3
    5704:	20 c0       	rjmp	.+64     	; 0x5746 <vfprintf+0x1c8>
    5706:	08 c0       	rjmp	.+16     	; 0x5718 <vfprintf+0x19a>
    5708:	80 e2       	ldi	r24, 0x20	; 32
    570a:	90 e0       	ldi	r25, 0x00	; 0
    570c:	b6 01       	movw	r22, r12
    570e:	2c 87       	std	Y+12, r18	; 0x0c
    5710:	0e 94 e5 2c 	call	0x59ca	; 0x59ca <fputc>
    5714:	fa 94       	dec	r15
    5716:	2c 85       	ldd	r18, Y+12	; 0x0c
    5718:	8f 2d       	mov	r24, r15
    571a:	90 e0       	ldi	r25, 0x00	; 0
    571c:	a8 16       	cp	r10, r24
    571e:	b9 06       	cpc	r11, r25
    5720:	98 f3       	brcs	.-26     	; 0x5708 <vfprintf+0x18a>
    5722:	11 c0       	rjmp	.+34     	; 0x5746 <vfprintf+0x1c8>
    5724:	f4 01       	movw	r30, r8
    5726:	27 fd       	sbrc	r18, 7
    5728:	85 91       	lpm	r24, Z+
    572a:	27 ff       	sbrs	r18, 7
    572c:	81 91       	ld	r24, Z+
    572e:	4f 01       	movw	r8, r30
    5730:	90 e0       	ldi	r25, 0x00	; 0
    5732:	b6 01       	movw	r22, r12
    5734:	2c 87       	std	Y+12, r18	; 0x0c
    5736:	0e 94 e5 2c 	call	0x59ca	; 0x59ca <fputc>
    573a:	2c 85       	ldd	r18, Y+12	; 0x0c
    573c:	f1 10       	cpse	r15, r1
    573e:	fa 94       	dec	r15
    5740:	08 94       	sec
    5742:	a1 08       	sbc	r10, r1
    5744:	b1 08       	sbc	r11, r1
    5746:	a1 14       	cp	r10, r1
    5748:	b1 04       	cpc	r11, r1
    574a:	61 f7       	brne	.-40     	; 0x5724 <vfprintf+0x1a6>
    574c:	f1 c0       	rjmp	.+482    	; 0x5930 <vfprintf+0x3b2>
    574e:	84 36       	cpi	r24, 0x64	; 100
    5750:	11 f0       	breq	.+4      	; 0x5756 <vfprintf+0x1d8>
    5752:	89 36       	cpi	r24, 0x69	; 105
    5754:	49 f5       	brne	.+82     	; 0x57a8 <vfprintf+0x22a>
    5756:	27 ff       	sbrs	r18, 7
    5758:	08 c0       	rjmp	.+16     	; 0x576a <vfprintf+0x1ec>
    575a:	f8 01       	movw	r30, r16
    575c:	60 81       	ld	r22, Z
    575e:	71 81       	ldd	r23, Z+1	; 0x01
    5760:	82 81       	ldd	r24, Z+2	; 0x02
    5762:	93 81       	ldd	r25, Z+3	; 0x03
    5764:	0c 5f       	subi	r16, 0xFC	; 252
    5766:	1f 4f       	sbci	r17, 0xFF	; 255
    5768:	09 c0       	rjmp	.+18     	; 0x577c <vfprintf+0x1fe>
    576a:	f8 01       	movw	r30, r16
    576c:	60 81       	ld	r22, Z
    576e:	71 81       	ldd	r23, Z+1	; 0x01
    5770:	88 27       	eor	r24, r24
    5772:	77 fd       	sbrc	r23, 7
    5774:	80 95       	com	r24
    5776:	98 2f       	mov	r25, r24
    5778:	0e 5f       	subi	r16, 0xFE	; 254
    577a:	1f 4f       	sbci	r17, 0xFF	; 255
    577c:	4f e6       	ldi	r20, 0x6F	; 111
    577e:	b4 2e       	mov	r11, r20
    5780:	b2 22       	and	r11, r18
    5782:	97 ff       	sbrs	r25, 7
    5784:	09 c0       	rjmp	.+18     	; 0x5798 <vfprintf+0x21a>
    5786:	90 95       	com	r25
    5788:	80 95       	com	r24
    578a:	70 95       	com	r23
    578c:	61 95       	neg	r22
    578e:	7f 4f       	sbci	r23, 0xFF	; 255
    5790:	8f 4f       	sbci	r24, 0xFF	; 255
    5792:	9f 4f       	sbci	r25, 0xFF	; 255
    5794:	f0 e8       	ldi	r31, 0x80	; 128
    5796:	bf 2a       	or	r11, r31
    5798:	a2 01       	movw	r20, r4
    579a:	2a e0       	ldi	r18, 0x0A	; 10
    579c:	30 e0       	ldi	r19, 0x00	; 0
    579e:	0e 94 11 2d 	call	0x5a22	; 0x5a22 <__ultoa_invert>
    57a2:	78 2e       	mov	r7, r24
    57a4:	74 18       	sub	r7, r4
    57a6:	45 c0       	rjmp	.+138    	; 0x5832 <vfprintf+0x2b4>
    57a8:	85 37       	cpi	r24, 0x75	; 117
    57aa:	31 f4       	brne	.+12     	; 0x57b8 <vfprintf+0x23a>
    57ac:	3f ee       	ldi	r19, 0xEF	; 239
    57ae:	b3 2e       	mov	r11, r19
    57b0:	b2 22       	and	r11, r18
    57b2:	2a e0       	ldi	r18, 0x0A	; 10
    57b4:	30 e0       	ldi	r19, 0x00	; 0
    57b6:	25 c0       	rjmp	.+74     	; 0x5802 <vfprintf+0x284>
    57b8:	99 ef       	ldi	r25, 0xF9	; 249
    57ba:	b9 2e       	mov	r11, r25
    57bc:	b2 22       	and	r11, r18
    57be:	8f 36       	cpi	r24, 0x6F	; 111
    57c0:	c1 f0       	breq	.+48     	; 0x57f2 <vfprintf+0x274>
    57c2:	80 37       	cpi	r24, 0x70	; 112
    57c4:	20 f4       	brcc	.+8      	; 0x57ce <vfprintf+0x250>
    57c6:	88 35       	cpi	r24, 0x58	; 88
    57c8:	09 f0       	breq	.+2      	; 0x57cc <vfprintf+0x24e>
    57ca:	b5 c0       	rjmp	.+362    	; 0x5936 <vfprintf+0x3b8>
    57cc:	0d c0       	rjmp	.+26     	; 0x57e8 <vfprintf+0x26a>
    57ce:	80 37       	cpi	r24, 0x70	; 112
    57d0:	21 f0       	breq	.+8      	; 0x57da <vfprintf+0x25c>
    57d2:	88 37       	cpi	r24, 0x78	; 120
    57d4:	09 f0       	breq	.+2      	; 0x57d8 <vfprintf+0x25a>
    57d6:	af c0       	rjmp	.+350    	; 0x5936 <vfprintf+0x3b8>
    57d8:	02 c0       	rjmp	.+4      	; 0x57de <vfprintf+0x260>
    57da:	20 e1       	ldi	r18, 0x10	; 16
    57dc:	b2 2a       	or	r11, r18
    57de:	b4 fe       	sbrs	r11, 4
    57e0:	0b c0       	rjmp	.+22     	; 0x57f8 <vfprintf+0x27a>
    57e2:	84 e0       	ldi	r24, 0x04	; 4
    57e4:	b8 2a       	or	r11, r24
    57e6:	08 c0       	rjmp	.+16     	; 0x57f8 <vfprintf+0x27a>
    57e8:	b4 fe       	sbrs	r11, 4
    57ea:	09 c0       	rjmp	.+18     	; 0x57fe <vfprintf+0x280>
    57ec:	e6 e0       	ldi	r30, 0x06	; 6
    57ee:	be 2a       	or	r11, r30
    57f0:	06 c0       	rjmp	.+12     	; 0x57fe <vfprintf+0x280>
    57f2:	28 e0       	ldi	r18, 0x08	; 8
    57f4:	30 e0       	ldi	r19, 0x00	; 0
    57f6:	05 c0       	rjmp	.+10     	; 0x5802 <vfprintf+0x284>
    57f8:	20 e1       	ldi	r18, 0x10	; 16
    57fa:	30 e0       	ldi	r19, 0x00	; 0
    57fc:	02 c0       	rjmp	.+4      	; 0x5802 <vfprintf+0x284>
    57fe:	20 e1       	ldi	r18, 0x10	; 16
    5800:	32 e0       	ldi	r19, 0x02	; 2
    5802:	b7 fe       	sbrs	r11, 7
    5804:	08 c0       	rjmp	.+16     	; 0x5816 <vfprintf+0x298>
    5806:	f8 01       	movw	r30, r16
    5808:	60 81       	ld	r22, Z
    580a:	71 81       	ldd	r23, Z+1	; 0x01
    580c:	82 81       	ldd	r24, Z+2	; 0x02
    580e:	93 81       	ldd	r25, Z+3	; 0x03
    5810:	0c 5f       	subi	r16, 0xFC	; 252
    5812:	1f 4f       	sbci	r17, 0xFF	; 255
    5814:	07 c0       	rjmp	.+14     	; 0x5824 <vfprintf+0x2a6>
    5816:	f8 01       	movw	r30, r16
    5818:	60 81       	ld	r22, Z
    581a:	71 81       	ldd	r23, Z+1	; 0x01
    581c:	80 e0       	ldi	r24, 0x00	; 0
    581e:	90 e0       	ldi	r25, 0x00	; 0
    5820:	0e 5f       	subi	r16, 0xFE	; 254
    5822:	1f 4f       	sbci	r17, 0xFF	; 255
    5824:	a2 01       	movw	r20, r4
    5826:	0e 94 11 2d 	call	0x5a22	; 0x5a22 <__ultoa_invert>
    582a:	78 2e       	mov	r7, r24
    582c:	74 18       	sub	r7, r4
    582e:	ff e7       	ldi	r31, 0x7F	; 127
    5830:	bf 22       	and	r11, r31
    5832:	b6 fe       	sbrs	r11, 6
    5834:	0b c0       	rjmp	.+22     	; 0x584c <vfprintf+0x2ce>
    5836:	2e ef       	ldi	r18, 0xFE	; 254
    5838:	b2 22       	and	r11, r18
    583a:	7e 14       	cp	r7, r14
    583c:	38 f4       	brcc	.+14     	; 0x584c <vfprintf+0x2ce>
    583e:	b4 fe       	sbrs	r11, 4
    5840:	07 c0       	rjmp	.+14     	; 0x5850 <vfprintf+0x2d2>
    5842:	b2 fc       	sbrc	r11, 2
    5844:	05 c0       	rjmp	.+10     	; 0x5850 <vfprintf+0x2d2>
    5846:	8f ee       	ldi	r24, 0xEF	; 239
    5848:	b8 22       	and	r11, r24
    584a:	02 c0       	rjmp	.+4      	; 0x5850 <vfprintf+0x2d2>
    584c:	a7 2c       	mov	r10, r7
    584e:	01 c0       	rjmp	.+2      	; 0x5852 <vfprintf+0x2d4>
    5850:	ae 2c       	mov	r10, r14
    5852:	8b 2d       	mov	r24, r11
    5854:	90 e0       	ldi	r25, 0x00	; 0
    5856:	b4 fe       	sbrs	r11, 4
    5858:	0d c0       	rjmp	.+26     	; 0x5874 <vfprintf+0x2f6>
    585a:	fe 01       	movw	r30, r28
    585c:	e7 0d       	add	r30, r7
    585e:	f1 1d       	adc	r31, r1
    5860:	20 81       	ld	r18, Z
    5862:	20 33       	cpi	r18, 0x30	; 48
    5864:	19 f4       	brne	.+6      	; 0x586c <vfprintf+0x2ee>
    5866:	e9 ee       	ldi	r30, 0xE9	; 233
    5868:	be 22       	and	r11, r30
    586a:	09 c0       	rjmp	.+18     	; 0x587e <vfprintf+0x300>
    586c:	a3 94       	inc	r10
    586e:	b2 fe       	sbrs	r11, 2
    5870:	06 c0       	rjmp	.+12     	; 0x587e <vfprintf+0x300>
    5872:	04 c0       	rjmp	.+8      	; 0x587c <vfprintf+0x2fe>
    5874:	86 78       	andi	r24, 0x86	; 134
    5876:	90 70       	andi	r25, 0x00	; 0
    5878:	00 97       	sbiw	r24, 0x00	; 0
    587a:	09 f0       	breq	.+2      	; 0x587e <vfprintf+0x300>
    587c:	a3 94       	inc	r10
    587e:	8b 2c       	mov	r8, r11
    5880:	99 24       	eor	r9, r9
    5882:	b3 fc       	sbrc	r11, 3
    5884:	14 c0       	rjmp	.+40     	; 0x58ae <vfprintf+0x330>
    5886:	b0 fe       	sbrs	r11, 0
    5888:	0f c0       	rjmp	.+30     	; 0x58a8 <vfprintf+0x32a>
    588a:	af 14       	cp	r10, r15
    588c:	28 f4       	brcc	.+10     	; 0x5898 <vfprintf+0x31a>
    588e:	e7 2c       	mov	r14, r7
    5890:	ef 0c       	add	r14, r15
    5892:	ea 18       	sub	r14, r10
    5894:	af 2c       	mov	r10, r15
    5896:	08 c0       	rjmp	.+16     	; 0x58a8 <vfprintf+0x32a>
    5898:	e7 2c       	mov	r14, r7
    589a:	06 c0       	rjmp	.+12     	; 0x58a8 <vfprintf+0x32a>
    589c:	80 e2       	ldi	r24, 0x20	; 32
    589e:	90 e0       	ldi	r25, 0x00	; 0
    58a0:	b6 01       	movw	r22, r12
    58a2:	0e 94 e5 2c 	call	0x59ca	; 0x59ca <fputc>
    58a6:	a3 94       	inc	r10
    58a8:	af 14       	cp	r10, r15
    58aa:	c0 f3       	brcs	.-16     	; 0x589c <vfprintf+0x31e>
    58ac:	04 c0       	rjmp	.+8      	; 0x58b6 <vfprintf+0x338>
    58ae:	af 14       	cp	r10, r15
    58b0:	10 f4       	brcc	.+4      	; 0x58b6 <vfprintf+0x338>
    58b2:	fa 18       	sub	r15, r10
    58b4:	01 c0       	rjmp	.+2      	; 0x58b8 <vfprintf+0x33a>
    58b6:	ff 24       	eor	r15, r15
    58b8:	84 fe       	sbrs	r8, 4
    58ba:	0f c0       	rjmp	.+30     	; 0x58da <vfprintf+0x35c>
    58bc:	80 e3       	ldi	r24, 0x30	; 48
    58be:	90 e0       	ldi	r25, 0x00	; 0
    58c0:	b6 01       	movw	r22, r12
    58c2:	0e 94 e5 2c 	call	0x59ca	; 0x59ca <fputc>
    58c6:	82 fe       	sbrs	r8, 2
    58c8:	1f c0       	rjmp	.+62     	; 0x5908 <vfprintf+0x38a>
    58ca:	81 fe       	sbrs	r8, 1
    58cc:	03 c0       	rjmp	.+6      	; 0x58d4 <vfprintf+0x356>
    58ce:	88 e5       	ldi	r24, 0x58	; 88
    58d0:	90 e0       	ldi	r25, 0x00	; 0
    58d2:	10 c0       	rjmp	.+32     	; 0x58f4 <vfprintf+0x376>
    58d4:	88 e7       	ldi	r24, 0x78	; 120
    58d6:	90 e0       	ldi	r25, 0x00	; 0
    58d8:	0d c0       	rjmp	.+26     	; 0x58f4 <vfprintf+0x376>
    58da:	c4 01       	movw	r24, r8
    58dc:	86 78       	andi	r24, 0x86	; 134
    58de:	90 70       	andi	r25, 0x00	; 0
    58e0:	00 97       	sbiw	r24, 0x00	; 0
    58e2:	91 f0       	breq	.+36     	; 0x5908 <vfprintf+0x38a>
    58e4:	81 fc       	sbrc	r8, 1
    58e6:	02 c0       	rjmp	.+4      	; 0x58ec <vfprintf+0x36e>
    58e8:	80 e2       	ldi	r24, 0x20	; 32
    58ea:	01 c0       	rjmp	.+2      	; 0x58ee <vfprintf+0x370>
    58ec:	8b e2       	ldi	r24, 0x2B	; 43
    58ee:	b7 fc       	sbrc	r11, 7
    58f0:	8d e2       	ldi	r24, 0x2D	; 45
    58f2:	90 e0       	ldi	r25, 0x00	; 0
    58f4:	b6 01       	movw	r22, r12
    58f6:	0e 94 e5 2c 	call	0x59ca	; 0x59ca <fputc>
    58fa:	06 c0       	rjmp	.+12     	; 0x5908 <vfprintf+0x38a>
    58fc:	80 e3       	ldi	r24, 0x30	; 48
    58fe:	90 e0       	ldi	r25, 0x00	; 0
    5900:	b6 01       	movw	r22, r12
    5902:	0e 94 e5 2c 	call	0x59ca	; 0x59ca <fputc>
    5906:	ea 94       	dec	r14
    5908:	7e 14       	cp	r7, r14
    590a:	c0 f3       	brcs	.-16     	; 0x58fc <vfprintf+0x37e>
    590c:	7a 94       	dec	r7
    590e:	f2 01       	movw	r30, r4
    5910:	e7 0d       	add	r30, r7
    5912:	f1 1d       	adc	r31, r1
    5914:	80 81       	ld	r24, Z
    5916:	90 e0       	ldi	r25, 0x00	; 0
    5918:	b6 01       	movw	r22, r12
    591a:	0e 94 e5 2c 	call	0x59ca	; 0x59ca <fputc>
    591e:	77 20       	and	r7, r7
    5920:	a9 f7       	brne	.-22     	; 0x590c <vfprintf+0x38e>
    5922:	06 c0       	rjmp	.+12     	; 0x5930 <vfprintf+0x3b2>
    5924:	80 e2       	ldi	r24, 0x20	; 32
    5926:	90 e0       	ldi	r25, 0x00	; 0
    5928:	b6 01       	movw	r22, r12
    592a:	0e 94 e5 2c 	call	0x59ca	; 0x59ca <fputc>
    592e:	fa 94       	dec	r15
    5930:	ff 20       	and	r15, r15
    5932:	c1 f7       	brne	.-16     	; 0x5924 <vfprintf+0x3a6>
    5934:	37 ce       	rjmp	.-914    	; 0x55a4 <vfprintf+0x26>
    5936:	f6 01       	movw	r30, r12
    5938:	26 81       	ldd	r18, Z+6	; 0x06
    593a:	37 81       	ldd	r19, Z+7	; 0x07
    593c:	02 c0       	rjmp	.+4      	; 0x5942 <vfprintf+0x3c4>
    593e:	2f ef       	ldi	r18, 0xFF	; 255
    5940:	3f ef       	ldi	r19, 0xFF	; 255
    5942:	c9 01       	movw	r24, r18
    5944:	2c 96       	adiw	r28, 0x0c	; 12
    5946:	e2 e1       	ldi	r30, 0x12	; 18
    5948:	0c 94 9b 2d 	jmp	0x5b36	; 0x5b36 <__epilogue_restores__>

0000594c <__eerd_byte_m328p>:
    594c:	f9 99       	sbic	0x1f, 1	; 31
    594e:	fe cf       	rjmp	.-4      	; 0x594c <__eerd_byte_m328p>
    5950:	92 bd       	out	0x22, r25	; 34
    5952:	81 bd       	out	0x21, r24	; 33
    5954:	f8 9a       	sbi	0x1f, 0	; 31
    5956:	99 27       	eor	r25, r25
    5958:	80 b5       	in	r24, 0x20	; 32
    595a:	08 95       	ret

0000595c <__eerd_dword_m328p>:
    595c:	a6 e1       	ldi	r26, 0x16	; 22
    595e:	b0 e0       	ldi	r27, 0x00	; 0
    5960:	44 e0       	ldi	r20, 0x04	; 4
    5962:	50 e0       	ldi	r21, 0x00	; 0
    5964:	0c 94 71 2d 	jmp	0x5ae2	; 0x5ae2 <__eerd_blraw_m328p>

00005968 <__eewr_byte_m328p>:
    5968:	26 2f       	mov	r18, r22

0000596a <__eewr_r18_m328p>:
    596a:	f9 99       	sbic	0x1f, 1	; 31
    596c:	fe cf       	rjmp	.-4      	; 0x596a <__eewr_r18_m328p>
    596e:	1f ba       	out	0x1f, r1	; 31
    5970:	92 bd       	out	0x22, r25	; 34
    5972:	81 bd       	out	0x21, r24	; 33
    5974:	20 bd       	out	0x20, r18	; 32
    5976:	0f b6       	in	r0, 0x3f	; 63
    5978:	f8 94       	cli
    597a:	fa 9a       	sbi	0x1f, 2	; 31
    597c:	f9 9a       	sbi	0x1f, 1	; 31
    597e:	0f be       	out	0x3f, r0	; 63
    5980:	01 96       	adiw	r24, 0x01	; 1
    5982:	08 95       	ret

00005984 <__eewr_dword_m328p>:
    5984:	24 2f       	mov	r18, r20
    5986:	0e 94 b5 2c 	call	0x596a	; 0x596a <__eewr_r18_m328p>
    598a:	25 2f       	mov	r18, r21
    598c:	0e 94 b5 2c 	call	0x596a	; 0x596a <__eewr_r18_m328p>
    5990:	0c 94 ca 2c 	jmp	0x5994	; 0x5994 <__eewr_word_m328p>

00005994 <__eewr_word_m328p>:
    5994:	0e 94 b4 2c 	call	0x5968	; 0x5968 <__eewr_byte_m328p>
    5998:	27 2f       	mov	r18, r23
    599a:	0c 94 b5 2c 	jmp	0x596a	; 0x596a <__eewr_r18_m328p>

0000599e <strnlen_P>:
    599e:	fc 01       	movw	r30, r24
    59a0:	05 90       	lpm	r0, Z+
    59a2:	61 50       	subi	r22, 0x01	; 1
    59a4:	70 40       	sbci	r23, 0x00	; 0
    59a6:	01 10       	cpse	r0, r1
    59a8:	d8 f7       	brcc	.-10     	; 0x59a0 <strnlen_P+0x2>
    59aa:	80 95       	com	r24
    59ac:	90 95       	com	r25
    59ae:	8e 0f       	add	r24, r30
    59b0:	9f 1f       	adc	r25, r31
    59b2:	08 95       	ret

000059b4 <strnlen>:
    59b4:	fc 01       	movw	r30, r24
    59b6:	61 50       	subi	r22, 0x01	; 1
    59b8:	70 40       	sbci	r23, 0x00	; 0
    59ba:	01 90       	ld	r0, Z+
    59bc:	01 10       	cpse	r0, r1
    59be:	d8 f7       	brcc	.-10     	; 0x59b6 <strnlen+0x2>
    59c0:	80 95       	com	r24
    59c2:	90 95       	com	r25
    59c4:	8e 0f       	add	r24, r30
    59c6:	9f 1f       	adc	r25, r31
    59c8:	08 95       	ret

000059ca <fputc>:
    59ca:	0f 93       	push	r16
    59cc:	1f 93       	push	r17
    59ce:	cf 93       	push	r28
    59d0:	df 93       	push	r29
    59d2:	8c 01       	movw	r16, r24
    59d4:	eb 01       	movw	r28, r22
    59d6:	8b 81       	ldd	r24, Y+3	; 0x03
    59d8:	81 ff       	sbrs	r24, 1
    59da:	1b c0       	rjmp	.+54     	; 0x5a12 <fputc+0x48>
    59dc:	82 ff       	sbrs	r24, 2
    59de:	0d c0       	rjmp	.+26     	; 0x59fa <fputc+0x30>
    59e0:	2e 81       	ldd	r18, Y+6	; 0x06
    59e2:	3f 81       	ldd	r19, Y+7	; 0x07
    59e4:	8c 81       	ldd	r24, Y+4	; 0x04
    59e6:	9d 81       	ldd	r25, Y+5	; 0x05
    59e8:	28 17       	cp	r18, r24
    59ea:	39 07       	cpc	r19, r25
    59ec:	64 f4       	brge	.+24     	; 0x5a06 <fputc+0x3c>
    59ee:	e8 81       	ld	r30, Y
    59f0:	f9 81       	ldd	r31, Y+1	; 0x01
    59f2:	01 93       	st	Z+, r16
    59f4:	f9 83       	std	Y+1, r31	; 0x01
    59f6:	e8 83       	st	Y, r30
    59f8:	06 c0       	rjmp	.+12     	; 0x5a06 <fputc+0x3c>
    59fa:	e8 85       	ldd	r30, Y+8	; 0x08
    59fc:	f9 85       	ldd	r31, Y+9	; 0x09
    59fe:	80 2f       	mov	r24, r16
    5a00:	09 95       	icall
    5a02:	00 97       	sbiw	r24, 0x00	; 0
    5a04:	31 f4       	brne	.+12     	; 0x5a12 <fputc+0x48>
    5a06:	8e 81       	ldd	r24, Y+6	; 0x06
    5a08:	9f 81       	ldd	r25, Y+7	; 0x07
    5a0a:	01 96       	adiw	r24, 0x01	; 1
    5a0c:	9f 83       	std	Y+7, r25	; 0x07
    5a0e:	8e 83       	std	Y+6, r24	; 0x06
    5a10:	02 c0       	rjmp	.+4      	; 0x5a16 <fputc+0x4c>
    5a12:	0f ef       	ldi	r16, 0xFF	; 255
    5a14:	1f ef       	ldi	r17, 0xFF	; 255
    5a16:	c8 01       	movw	r24, r16
    5a18:	df 91       	pop	r29
    5a1a:	cf 91       	pop	r28
    5a1c:	1f 91       	pop	r17
    5a1e:	0f 91       	pop	r16
    5a20:	08 95       	ret

00005a22 <__ultoa_invert>:
    5a22:	fa 01       	movw	r30, r20
    5a24:	aa 27       	eor	r26, r26
    5a26:	28 30       	cpi	r18, 0x08	; 8
    5a28:	51 f1       	breq	.+84     	; 0x5a7e <__ultoa_invert+0x5c>
    5a2a:	20 31       	cpi	r18, 0x10	; 16
    5a2c:	81 f1       	breq	.+96     	; 0x5a8e <__ultoa_invert+0x6c>
    5a2e:	e8 94       	clt
    5a30:	6f 93       	push	r22
    5a32:	6e 7f       	andi	r22, 0xFE	; 254
    5a34:	6e 5f       	subi	r22, 0xFE	; 254
    5a36:	7f 4f       	sbci	r23, 0xFF	; 255
    5a38:	8f 4f       	sbci	r24, 0xFF	; 255
    5a3a:	9f 4f       	sbci	r25, 0xFF	; 255
    5a3c:	af 4f       	sbci	r26, 0xFF	; 255
    5a3e:	b1 e0       	ldi	r27, 0x01	; 1
    5a40:	3e d0       	rcall	.+124    	; 0x5abe <__ultoa_invert+0x9c>
    5a42:	b4 e0       	ldi	r27, 0x04	; 4
    5a44:	3c d0       	rcall	.+120    	; 0x5abe <__ultoa_invert+0x9c>
    5a46:	67 0f       	add	r22, r23
    5a48:	78 1f       	adc	r23, r24
    5a4a:	89 1f       	adc	r24, r25
    5a4c:	9a 1f       	adc	r25, r26
    5a4e:	a1 1d       	adc	r26, r1
    5a50:	68 0f       	add	r22, r24
    5a52:	79 1f       	adc	r23, r25
    5a54:	8a 1f       	adc	r24, r26
    5a56:	91 1d       	adc	r25, r1
    5a58:	a1 1d       	adc	r26, r1
    5a5a:	6a 0f       	add	r22, r26
    5a5c:	71 1d       	adc	r23, r1
    5a5e:	81 1d       	adc	r24, r1
    5a60:	91 1d       	adc	r25, r1
    5a62:	a1 1d       	adc	r26, r1
    5a64:	20 d0       	rcall	.+64     	; 0x5aa6 <__ultoa_invert+0x84>
    5a66:	09 f4       	brne	.+2      	; 0x5a6a <__ultoa_invert+0x48>
    5a68:	68 94       	set
    5a6a:	3f 91       	pop	r19
    5a6c:	2a e0       	ldi	r18, 0x0A	; 10
    5a6e:	26 9f       	mul	r18, r22
    5a70:	11 24       	eor	r1, r1
    5a72:	30 19       	sub	r19, r0
    5a74:	30 5d       	subi	r19, 0xD0	; 208
    5a76:	31 93       	st	Z+, r19
    5a78:	de f6       	brtc	.-74     	; 0x5a30 <__ultoa_invert+0xe>
    5a7a:	cf 01       	movw	r24, r30
    5a7c:	08 95       	ret
    5a7e:	46 2f       	mov	r20, r22
    5a80:	47 70       	andi	r20, 0x07	; 7
    5a82:	40 5d       	subi	r20, 0xD0	; 208
    5a84:	41 93       	st	Z+, r20
    5a86:	b3 e0       	ldi	r27, 0x03	; 3
    5a88:	0f d0       	rcall	.+30     	; 0x5aa8 <__ultoa_invert+0x86>
    5a8a:	c9 f7       	brne	.-14     	; 0x5a7e <__ultoa_invert+0x5c>
    5a8c:	f6 cf       	rjmp	.-20     	; 0x5a7a <__ultoa_invert+0x58>
    5a8e:	46 2f       	mov	r20, r22
    5a90:	4f 70       	andi	r20, 0x0F	; 15
    5a92:	40 5d       	subi	r20, 0xD0	; 208
    5a94:	4a 33       	cpi	r20, 0x3A	; 58
    5a96:	18 f0       	brcs	.+6      	; 0x5a9e <__ultoa_invert+0x7c>
    5a98:	49 5d       	subi	r20, 0xD9	; 217
    5a9a:	31 fd       	sbrc	r19, 1
    5a9c:	40 52       	subi	r20, 0x20	; 32
    5a9e:	41 93       	st	Z+, r20
    5aa0:	02 d0       	rcall	.+4      	; 0x5aa6 <__ultoa_invert+0x84>
    5aa2:	a9 f7       	brne	.-22     	; 0x5a8e <__ultoa_invert+0x6c>
    5aa4:	ea cf       	rjmp	.-44     	; 0x5a7a <__ultoa_invert+0x58>
    5aa6:	b4 e0       	ldi	r27, 0x04	; 4
    5aa8:	a6 95       	lsr	r26
    5aaa:	97 95       	ror	r25
    5aac:	87 95       	ror	r24
    5aae:	77 95       	ror	r23
    5ab0:	67 95       	ror	r22
    5ab2:	ba 95       	dec	r27
    5ab4:	c9 f7       	brne	.-14     	; 0x5aa8 <__ultoa_invert+0x86>
    5ab6:	00 97       	sbiw	r24, 0x00	; 0
    5ab8:	61 05       	cpc	r22, r1
    5aba:	71 05       	cpc	r23, r1
    5abc:	08 95       	ret
    5abe:	9b 01       	movw	r18, r22
    5ac0:	ac 01       	movw	r20, r24
    5ac2:	0a 2e       	mov	r0, r26
    5ac4:	06 94       	lsr	r0
    5ac6:	57 95       	ror	r21
    5ac8:	47 95       	ror	r20
    5aca:	37 95       	ror	r19
    5acc:	27 95       	ror	r18
    5ace:	ba 95       	dec	r27
    5ad0:	c9 f7       	brne	.-14     	; 0x5ac4 <__ultoa_invert+0xa2>
    5ad2:	62 0f       	add	r22, r18
    5ad4:	73 1f       	adc	r23, r19
    5ad6:	84 1f       	adc	r24, r20
    5ad8:	95 1f       	adc	r25, r21
    5ada:	a0 1d       	adc	r26, r0
    5adc:	08 95       	ret

00005ade <__eerd_block_m328p>:
    5ade:	dc 01       	movw	r26, r24
    5ae0:	cb 01       	movw	r24, r22

00005ae2 <__eerd_blraw_m328p>:
    5ae2:	fc 01       	movw	r30, r24
    5ae4:	f9 99       	sbic	0x1f, 1	; 31
    5ae6:	fe cf       	rjmp	.-4      	; 0x5ae4 <__eerd_blraw_m328p+0x2>
    5ae8:	06 c0       	rjmp	.+12     	; 0x5af6 <__eerd_blraw_m328p+0x14>
    5aea:	f2 bd       	out	0x22, r31	; 34
    5aec:	e1 bd       	out	0x21, r30	; 33
    5aee:	f8 9a       	sbi	0x1f, 0	; 31
    5af0:	31 96       	adiw	r30, 0x01	; 1
    5af2:	00 b4       	in	r0, 0x20	; 32
    5af4:	0d 92       	st	X+, r0
    5af6:	41 50       	subi	r20, 0x01	; 1
    5af8:	50 40       	sbci	r21, 0x00	; 0
    5afa:	b8 f7       	brcc	.-18     	; 0x5aea <__eerd_blraw_m328p+0x8>
    5afc:	08 95       	ret

00005afe <__prologue_saves__>:
    5afe:	2f 92       	push	r2
    5b00:	3f 92       	push	r3
    5b02:	4f 92       	push	r4
    5b04:	5f 92       	push	r5
    5b06:	6f 92       	push	r6
    5b08:	7f 92       	push	r7
    5b0a:	8f 92       	push	r8
    5b0c:	9f 92       	push	r9
    5b0e:	af 92       	push	r10
    5b10:	bf 92       	push	r11
    5b12:	cf 92       	push	r12
    5b14:	df 92       	push	r13
    5b16:	ef 92       	push	r14
    5b18:	ff 92       	push	r15
    5b1a:	0f 93       	push	r16
    5b1c:	1f 93       	push	r17
    5b1e:	cf 93       	push	r28
    5b20:	df 93       	push	r29
    5b22:	cd b7       	in	r28, 0x3d	; 61
    5b24:	de b7       	in	r29, 0x3e	; 62
    5b26:	ca 1b       	sub	r28, r26
    5b28:	db 0b       	sbc	r29, r27
    5b2a:	0f b6       	in	r0, 0x3f	; 63
    5b2c:	f8 94       	cli
    5b2e:	de bf       	out	0x3e, r29	; 62
    5b30:	0f be       	out	0x3f, r0	; 63
    5b32:	cd bf       	out	0x3d, r28	; 61
    5b34:	09 94       	ijmp

00005b36 <__epilogue_restores__>:
    5b36:	2a 88       	ldd	r2, Y+18	; 0x12
    5b38:	39 88       	ldd	r3, Y+17	; 0x11
    5b3a:	48 88       	ldd	r4, Y+16	; 0x10
    5b3c:	5f 84       	ldd	r5, Y+15	; 0x0f
    5b3e:	6e 84       	ldd	r6, Y+14	; 0x0e
    5b40:	7d 84       	ldd	r7, Y+13	; 0x0d
    5b42:	8c 84       	ldd	r8, Y+12	; 0x0c
    5b44:	9b 84       	ldd	r9, Y+11	; 0x0b
    5b46:	aa 84       	ldd	r10, Y+10	; 0x0a
    5b48:	b9 84       	ldd	r11, Y+9	; 0x09
    5b4a:	c8 84       	ldd	r12, Y+8	; 0x08
    5b4c:	df 80       	ldd	r13, Y+7	; 0x07
    5b4e:	ee 80       	ldd	r14, Y+6	; 0x06
    5b50:	fd 80       	ldd	r15, Y+5	; 0x05
    5b52:	0c 81       	ldd	r16, Y+4	; 0x04
    5b54:	1b 81       	ldd	r17, Y+3	; 0x03
    5b56:	aa 81       	ldd	r26, Y+2	; 0x02
    5b58:	b9 81       	ldd	r27, Y+1	; 0x01
    5b5a:	ce 0f       	add	r28, r30
    5b5c:	d1 1d       	adc	r29, r1
    5b5e:	0f b6       	in	r0, 0x3f	; 63
    5b60:	f8 94       	cli
    5b62:	de bf       	out	0x3e, r29	; 62
    5b64:	0f be       	out	0x3f, r0	; 63
    5b66:	cd bf       	out	0x3d, r28	; 61
    5b68:	ed 01       	movw	r28, r26
    5b6a:	08 95       	ret

00005b6c <_exit>:
    5b6c:	f8 94       	cli

00005b6e <__stop_program>:
    5b6e:	ff cf       	rjmp	.-2      	; 0x5b6e <__stop_program>
